(dp0
S'CITo2Mu_Lam16TeVConRR_dimuon_Moriond2017_BB'
p1
(dp2
S'1'
p3
(lp4
F20.79194111116965
aF0.8821273532243652
asS'0'
p5
(lp6
F15.475068204927197
aF0.6565515400217014
asS'3'
p7
(lp8
F28.98154354545064
aF1.229582758214482
asS'2'
p9
(lp10
F32.96153943150355
aF1.3984396830218366
asS'4'
p11
(lp12
F14.006255391003535
aF0.5942350899605543
assS'CITo2Mu_Lam22TeVConLL_dimuon_Moriond2017_BE'
p13
(dp14
g3
(lp15
F56.73211786384002
aF2.406939915155745
asg5
(lp16
F78.05795940745338
aF3.311718745355673
asg7
(lp17
F14.546389561923739
aF0.6171510420610493
asg9
(lp18
F31.50864435327088
aF1.3367985652915837
asg11
(lp19
F3.9601050787082346
aF0.16801302932195275
assS'CITo2Mu_Lam22TeVConLL_dimuon_Moriond2017_BB'
p20
(dp21
g3
(lp22
F17.474751455999296
aF0.7413909152451958
asg5
(lp23
F21.30254045433196
aF0.9037902487055333
asg7
(lp24
F10.031687414725312
aF0.42560845186176083
asg9
(lp25
F13.429428837705473
aF0.5697624119162229
asg11
(lp26
F4.660742571417054
aF0.19773856065682954
assS'CITo2Mu_Lam16TeVConRR_dimuon_Moriond2017_BE'
p27
(dp28
g3
(lp29
F79.56648434311455
aF3.375720038051374
asg5
(lp30
F80.56006313172634
aF3.4178740159956043
asg7
(lp31
F37.40406943049358
aF1.5869202682964674
asg9
(lp32
F68.61256687541538
aF2.9109846787333025
asg11
(lp33
F11.324197930859167
aF0.48044502890455126
assS'CITo2Mu_Lam16TeVConLR_dimuon_Moriond2017_BB'
p34
(dp35
g3
(lp36
F83.137302551792
aF3.5272170242357874
asg5
(lp37
F72.36707513290969
aF3.070274973667009
asg7
(lp38
F39.45961301302073
aF1.6741295966702336
asg9
(lp39
F58.506775757597495
aF2.482232273013474
asg11
(lp40
F24.274381236260055
aF1.0298747748760184
assS'CITo2Mu_Lam10TeVDesRR_dimuon_Moriond2017_BB'
p41
(dp42
g3
(lp43
F-45.512514078726326
aF-1.9309324400349361
asg5
(lp44
F-81.58073574943762
aF-3.461177487756909
asg7
(lp45
F81.32781410029318
aF3.4504469309637735
asg9
(lp46
F40.16996391095935
aF1.7042672328874948
asg11
(lp47
F65.15824426893847
aF2.764430182366554
assS'CITo2Mu_Lam16TeVConLR_dimuon_Moriond2017_BE'
p48
(dp49
g3
(lp50
F127.48255809827879
aF5.408626878858057
asg5
(lp51
F108.34484140102722
aF4.596682323674841
asg7
(lp52
F51.07064237410307
aF2.1667438525368796
asg9
(lp53
F97.53719696515742
aF4.1381528035194455
asg11
(lp54
F19.699994446168596
aF0.8357999797333884
assS'CITo2Mu_Lam28TeVDesLR_dimuon_Moriond2017_BE'
p55
(dp56
g3
(lp57
F34.66359303092031
aF1.4706517015472702
asg5
(lp58
F49.608113010594025
aF2.1046939866995777
asg7
(lp59
F-8.264908175057947
aF-0.35065035698805647
asg9
(lp60
F-4.500573757385666
aF-0.19094317338465747
asg11
(lp61
F-0.08901651824506729
aF-0.003776651021322187
assS'CITo2Mu_Lam28TeVConRR_dimuon_Moriond2017_BB'
p62
(dp63
g3
(lp64
F18.99498339731798
aF0.8058888941261657
asg5
(lp65
F20.778754665982888
aF0.8815678997356869
asg7
(lp66
F5.665956284214097
aF0.2403861666284593
asg9
(lp67
F10.956825727008805
aF0.464858746310829
asg11
(lp68
F2.20052592802629
aF0.09336040835305262
assS'CITo2Mu_Lam28TeVConRR_dimuon_Moriond2017_BE'
p69
(dp70
g3
(lp71
F49.71244404082847
aF2.1091203774375953
asg5
(lp72
F50.389213067711125
aF2.13783325552994
asg7
(lp73
F7.9627549427958115
aF0.33783108101865705
asg9
(lp74
F23.05853897397111
aF0.9782909563649561
asg11
(lp75
F1.9337971275118289
aF0.08204406373816087
assS'CITo2Mu_Lam28TeVDesLR_dimuon_Moriond2017_BB'
p76
(dp77
g3
(lp78
F39.665212643110465
aF1.6828524502289874
asg5
(lp79
F47.15394912219881
aF2.000572631041934
asg7
(lp80
F-7.073960446364268
aF-0.3001227240881754
asg9
(lp81
F1.4972465205861454
aF0.06352279006886563
asg11
(lp82
F0.11660716239469959
aF0.004947222915852784
assS'CITo2Mu_Lam10TeVConLR_dimuon_Moriond2017_BB'
p83
(dp84
g3
(lp85
F206.51598302411935
aF8.761731121185644
asg5
(lp86
F133.501552803339
aF5.663991197170497
asg7
(lp87
F243.3145931193843
aF10.32296392538174
asg9
(lp88
F248.2456613678416
aF10.532171433200409
asg11
(lp89
F149.23987609544076
aF6.331711704631578
assS'CITo2Mu_Lam34TeVConLL_dimuon_Moriond2017_BE'
p90
(dp91
g3
(lp92
F53.701729553882956
aF2.2783714277398004
asg5
(lp93
F79.69682554596147
aF3.381249946955438
asg7
(lp94
F4.739628176893575
aF0.20108539345105683
asg9
(lp95
F18.32024018638299
aF0.7772619641254627
asg11
(lp96
F1.1422588531567874
aF0.048461938856251996
assS'CITo2Mu_Lam10TeVDesLR_dimuon_Moriond2017_BB'
p97
(dp98
g3
(lp99
F140.25873520786718
aF5.950674167167875
asg5
(lp100
F42.3909335509469
aF1.798494994482173
asg7
(lp101
F202.35854310888197
aF8.585345883799246
asg9
(lp102
F200.55505481812867
aF8.508830355788314
asg11
(lp103
F131.19483841563775
aF5.56612559402225
assS'CITo2Mu_Lam10TeVConLR_dimuon_Moriond2017_BE'
p104
(dp105
g3
(lp106
F405.24636171343013
aF17.193147025124578
asg5
(lp107
F269.6304813732529
aF11.439452507617213
asg7
(lp108
F287.55821540094627
aF12.20006184575466
asg9
(lp109
F416.1545909035798
aF17.65594399499009
asg11
(lp110
F120.81015179784544
aF5.125540654345961
assS'CITo2Mu_Lam34TeVDesLR_dimuon_Moriond2017_BE'
p111
(dp112
g3
(lp113
F43.25039717601601
aF1.8349589479303456
asg5
(lp114
F58.33445197899073
aF2.4749211942687217
asg7
(lp115
F-8.97279736583694
aF-0.38068355181576546
asg9
(lp116
F-1.2324187426188473
aF-0.05228709901003112
asg11
(lp117
F-0.7387832774248606
aF-0.03134391991766048
assS'CITo2Mu_Lam28TeVConLR_dimuon_Moriond2017_BE'
p118
(dp119
g3
(lp120
F83.08930441640678
aF3.525180635814875
asg5
(lp121
F95.5588622394007
aF4.054219169517081
asg7
(lp122
F2.4005186826222342
aF0.10184538233083078
asg9
(lp123
F26.618375273394292
aF1.1293220195991256
asg11
(lp124
F1.8754086146621614
aF0.07956684893539699
assS'CITo2Mu_Lam10TeVDesLR_dimuon_Moriond2017_BE'
p125
(dp126
g3
(lp127
F212.59493829238158
aF9.019639350748719
asg5
(lp128
F24.545875941625354
aF1.0413933197092213
asg7
(lp129
F244.67697256065082
aF10.380764789869861
asg9
(lp130
F318.886940260772
aF13.529227073413283
asg11
(lp131
F104.63888853983151
aF4.439452059740291
assS'CITo2Mu_Lam28TeVConLR_dimuon_Moriond2017_BB'
p132
(dp133
g3
(lp134
F61.784203881668475
aF2.6212817720963995
asg5
(lp135
F63.80920580199415
aF2.707195327483084
asg7
(lp136
F1.0567355503463176
aF0.04483349241424677
asg9
(lp137
F18.15721871003538
aF0.7703455486411965
asg11
(lp138
F2.3432199148423916
aF0.09941440149578518
assS'CITo2Mu_Lam34TeVDesLR_dimuon_Moriond2017_BB'
p139
(dp140
g3
(lp141
F38.7439292845599
aF1.6437657076154621
asg5
(lp142
F45.37899254246133
aF1.9252676010112908
asg7
(lp143
F-7.836689929554019
aF-0.3324825954746385
asg9
(lp144
F0.9960766916343289
aF0.04225995499418973
asg11
(lp145
F-0.7774752153748099
aF-0.03298547981975998
assS'CITo2Mu_Lam10TeVConLL_dimuon_Moriond2017_BE'
p146
(dp147
g3
(lp148
F220.63415274945066
aF9.360714334229108
asg5
(lp149
F138.0479529861468
aF5.856878621125567
asg7
(lp150
F170.61163770403815
aF7.2384387581920695
asg9
(lp151
F254.56868029563572
aF10.800434406885255
asg11
(lp152
F64.0558469073402
aF2.7176594233696556
assS'CITo2Mu_Lam34TeVConLL_dimuon_Moriond2017_BB'
p153
(dp154
g3
(lp155
F-12.46314353740263
aF-0.5287663986119218
asg5
(lp156
F-14.445402544752938
aF-0.6128665257818527
asg7
(lp157
F3.6930557079078596
aF0.15668308406168
asg9
(lp158
F0.789126292529744
aF0.03347979315962287
asg11
(lp159
F1.193638537292789
aF0.050641794240319365
assS'CITo2Mu_Lam16TeVDesLR_dimuon_Moriond2017_BB'
p160
(dp161
g3
(lp162
F-13.553460472007487
aF-0.5750246284980192
asg5
(lp163
F-33.01447252818798
aF-1.4006854441187222
asg7
(lp164
F14.27797518702922
aF0.6057631845816975
asg9
(lp165
F-0.5591499393601111
aF-0.023722722829294888
asg11
(lp166
F17.420484974142077
aF0.7390885834064533
assS'CITo2Mu_Lam22TeVConLR_dimuon_Moriond2017_BB'
p167
(dp168
g3
(lp169
F59.09286528087455
aF2.5070979455909694
asg5
(lp170
F58.87004580601467
aF2.497644515891739
asg7
(lp171
F9.12243533695193
aF0.3870321532616699
asg9
(lp172
F24.5464178512849
aF1.0414163109889245
asg11
(lp173
F6.4264487638815595
aF0.2726511299933134
assS'CITo2Mu_Lam22TeVConLR_dimuon_Moriond2017_BE'
p174
(dp175
g3
(lp176
F99.68596424411942
aF4.229317278368193
asg5
(lp177
F106.86684859742081
aF4.533976399636341
asg7
(lp178
F13.402664210737399
aF0.5686268849627197
asg9
(lp179
F44.67738612255994
aF1.8955009615771132
asg11
(lp180
F5.3760043958048325
aF0.22808454983773713
assS'CITo2Mu_Lam22TeVDesRR_dimuon_Moriond2017_BE'
p181
(dp182
g3
(lp183
F-21.67189404428177
aF-0.9194605943920796
asg5
(lp184
F-16.065943453284262
aF-0.6816202537186152
asg7
(lp185
F-1.8014224247650645
aF-0.07642788073997342
asg9
(lp186
F-13.819010385541901
aF-0.5862909571742403
asg11
(lp187
F0.9684400466962102
aF0.04108743145149042
assS'CITo2Mu_Lam22TeVDesLR_dimuon_Moriond2017_BB'
p188
(dp189
g3
(lp190
F44.01423623035441
aF1.8673658944338138
asg5
(lp191
F51.503859531877765
aF2.1851236999362103
asg7
(lp192
F-3.843421995330182
aF-0.16306258535157017
asg9
(lp193
F2.366121902509093
aF0.10038605054269169
asg11
(lp194
F3.108900869487716
aF0.13189949321109107
assS'CITo2Mu_Lam22TeVDesLR_dimuon_Moriond2017_BE'
p195
(dp196
g3
(lp197
F37.58351472564016
aF1.5945334873994774
asg5
(lp198
F53.59971630541804
aF2.2740433721541757
asg7
(lp199
F-4.992166652409836
aF-0.2117996935639405
asg9
(lp200
F-5.053605986925049
aF-0.21440634376797826
asg11
(lp201
F2.2920547209213984
aF0.09724364616084964
assS'CITo2Mu_Lam22TeVDesRR_dimuon_Moriond2017_BB'
p202
(dp203
g3
(lp204
F-12.605280062699705
aF-0.534796740665433
asg5
(lp205
F-16.594562577850297
aF-0.7040476637773476
asg7
(lp206
F-0.6447721399699375
aF-0.02735536514957428
asg9
(lp207
F-6.9831891130048405
aF-0.2962716225668277
asg11
(lp208
F1.5847870149937857
aF0.06723681870230956
assS'CITo2Mu_Lam10TeVDesRR_dimuon_Moriond2017_BE'
p209
(dp210
g3
(lp211
F-92.28376444514322
aF-3.915268537954967
asg5
(lp212
F-166.47385712668097
aF-7.062887595873395
asg7
(lp213
F87.11981740674013
aF3.696180819842386
asg9
(lp214
F50.897919547450385
aF2.1594158436173703
asg11
(lp215
F49.92175855038965
aF2.118000839984282
assS'CITo2Mu_Lam16TeVDesRR_dimuon_Moriond2017_BE'
p216
(dp217
g3
(lp218
F-35.19804783088989
aF-1.4933266983450415
asg5
(lp219
F-7.401861149809065
aF-0.31403437274587476
asg7
(lp220
F3.766912750044966
aF0.15981657298169172
asg9
(lp221
F-22.166259973818683
aF-0.9404347644618681
asg11
(lp222
F5.452897301289199
aF0.23134683953132504
assS'CITo2Mu_Lam22TeVConRR_dimuon_Moriond2017_BE'
p223
(dp224
g3
(lp225
F51.678772993201505
aF2.19254464961358
asg5
(lp226
F47.93540434858892
aF2.0337269684283807
asg7
(lp227
F16.012435026698057
aF0.6793500834412316
asg9
(lp228
F35.78098669266694
aF1.5180586996758247
asg11
(lp229
F3.887913057525367
aF0.16495018125839464
assS'CITo2Mu_Lam34TeVDesRR_dimuon_Moriond2017_BE'
p230
(dp231
g3
(lp232
F5.135514170407646
aF0.21788141368649122
asg5
(lp233
F8.472468006149711
aF0.3594563748320717
asg7
(lp234
F-1.1758461748372113
aF-0.049886928231579294
asg9
(lp235
F-1.238757420246543
aF-0.052556026326089064
asg11
(lp236
F-0.1932010019853787
aF-0.008196824318153816
assS'CITo2Mu_Lam34TeVDesRR_dimuon_Moriond2017_BB'
p237
(dp238
g3
(lp239
F13.781268925654672
aF0.5846897226411519
asg5
(lp240
F18.749912497367404
aF0.7954914164125731
asg7
(lp241
F-1.6371199482655783
aF-0.06945711702206162
asg9
(lp242
F0.4152935650675147
aF0.01761941376254258
asg11
(lp243
F-0.12330001691858028
aF-0.00523117668501265
assS'CITo2Mu_Lam22TeVConRR_dimuon_Moriond2017_BB'
p244
(dp245
g3
(lp246
F22.01801864253173
aF0.9341454174255605
asg5
(lp247
F27.65359925344626
aF1.173242853379626
asg7
(lp248
F11.182499930599668
aF0.4744332918927074
asg9
(lp249
F16.312934282495206
aF0.6920991871321721
asg11
(lp250
F4.811357674463633
aF0.20412861829963033
assS'CITo2Mu_Lam10TeVDesLL_dimuon_Moriond2017_BB'
p251
(dp252
g3
(lp253
F20.092275122391527
aF0.8524430393105291
asg5
(lp254
F-5.594581799387697
aF-0.2373580036949927
asg7
(lp255
F75.84388647852606
aF3.217783586430509
asg9
(lp256
F54.234702390844376
aF2.3009835501720195
asg11
(lp257
F62.31120025930547
aF2.6436403348336714
assS'CITo2Mu_Lam28TeVDesRR_dimuon_Moriond2017_BE'
p258
(dp259
g3
(lp260
F2.198080653309603
aF0.09325666413301062
asg5
(lp261
F17.458900804942687
aF0.7407184290742949
asg7
(lp262
F-2.4398084376053077
aF-0.10351230546161214
asg9
(lp263
F-7.017069943928391
aF-0.29770906448472434
asg11
(lp264
F-0.035293512715717235
aF-0.0014973769303906381
assS'CITo2Mu_Lam28TeVConLL_dimuon_Moriond2017_BB'
p265
(dp266
g3
(lp267
F17.3086249337789
aF0.7343427638213771
asg5
(lp268
F25.799023825224594
aF1.0945598816885769
asg7
(lp269
F5.187128305089594
aF0.2200712159648121
asg9
(lp270
F9.197587337170603
aF0.39022058260013126
asg11
(lp271
F2.1449004160278307
aF0.09100041774858757
assS'CITo2Mu_Lam28TeVConLL_dimuon_Moriond2017_BE'
p272
(dp273
g3
(lp274
F50.315376635570146
aF2.13470064101801
asg5
(lp275
F74.08103065010437
aF3.1429919477986363
asg7
(lp276
F7.303470342038736
aF0.30986000430302546
asg9
(lp277
F20.560241294644754
aF0.8722971625364992
asg11
(lp278
F1.883658038039338
aF0.07991684232804981
assS'CITo2Mu_Lam34TeVDesLL_dimuon_Moriond2017_BE'
p279
(dp280
g3
(lp281
F29.52471820991832
aF1.2526277075313113
asg5
(lp282
F51.80266210981972
aF2.1978008196821373
asg7
(lp283
F-11.984732409096871
aF-0.5084691334307152
asg9
(lp284
F-9.8748473215324
aF-0.4189542902542426
asg11
(lp285
F-1.4487898454038044
aF-0.0614669474519544
assS'CITo2Mu_Lam28TeVDesLL_dimuon_Moriond2017_BE'
p286
(dp287
g3
(lp288
F34.52229157599959
aF1.464656788529312
asg5
(lp289
F53.77303660566213
aF2.2813967297313686
asg7
(lp290
F-13.220712597758428
aF-0.5609073317996041
asg9
(lp291
F-12.552518271231065
aF-0.5325582474333315
asg11
(lp292
F-1.2413395055540986
aF-0.05266557492792354
assS'CITo2Mu_Lam16TeVDesRR_dimuon_Moriond2017_BB'
p293
(dp294
g3
(lp295
F-24.33981593693011
aF-1.0326509341101409
asg5
(lp296
F-17.36863864290251
aF-0.7368889298625048
asg7
(lp297
F6.395349703290719
aF0.27133170859537453
asg9
(lp298
F-9.13236641394235
aF-0.38745349317473454
asg11
(lp299
F7.411665077981695
aF0.3144503181914627
assS'CITo2Mu_Lam10TeVDesLL_dimuon_Moriond2017_BE'
p300
(dp301
g3
(lp302
F-44.925220745896354
aF-1.9060156941435529
asg5
(lp303
F-91.155692065224
aF-3.8674084801843596
asg7
(lp304
F76.52318804218682
aF3.246603910958618
asg9
(lp305
F45.93261806053113
aF1.9487559424951948
asg11
(lp306
F49.17894228128658
aF2.0864858147207737
assS'CITo2Mu_Lam16TeVDesLL_dimuon_Moriond2017_BB'
p307
(dp308
g3
(lp309
F19.990745347374457
aF0.8481354957661142
asg5
(lp310
F36.02173161723715
aF1.5282726417978152
asg7
(lp311
F-1.996499098243035
aF-0.08470428306002864
asg9
(lp312
F-7.699615937141175
aF-0.32666703850107237
asg11
(lp313
F6.746063224553395
aF0.28621122314369357
assS'CITo2Mu_Lam34TeVConLR_dimuon_Moriond2017_BB'
p314
(dp315
g3
(lp316
F50.90428448121389
aF2.1596858848869287
asg5
(lp317
F51.56129798092752
aF2.1875606069456457
asg7
(lp318
F-2.573766784997261
aF-0.10919567681185573
asg9
(lp319
F11.654710263897783
aF0.4944674796219948
asg11
(lp320
F0.6801438824166715
aF0.028856061086362454
assS'CITo2Mu_Lam28TeVDesLL_dimuon_Moriond2017_BB'
p321
(dp322
g3
(lp323
F46.71823389842211
aF1.982086799678011
asg5
(lp324
F74.10303068241546
aF3.1439253301206462
asg7
(lp325
F-10.15089675774604
aF-0.43066607595160583
asg9
(lp326
F-2.1560450524079897
aF-0.0914732446260837
asg11
(lp327
F-1.0301466593613635
aF-0.04370542130706532
assS'CITo2Mu_Lam28TeVDesRR_dimuon_Moriond2017_BB'
p328
(dp329
g3
(lp330
F-1.3797869209136593
aF-0.058539401302233306
asg5
(lp331
F0.12634819157551647
aF0.0053604997832222825
asg7
(lp332
F-1.3540130098357537
aF-0.057445906864180135
asg9
(lp333
F-2.596372402952966
aF-0.1101547519568192
asg11
(lp334
F0.24534071934629775
aF0.010408925181057165
assS'CITo2Mu_Lam34TeVConLR_dimuon_Moriond2017_BE'
p335
(dp336
g3
(lp337
F70.31555001676554
aF2.9832361343830063
asg5
(lp338
F73.2834418499242
aF3.109153120846286
asg7
(lp339
F-0.7042882653781959
aF-0.029880420501541986
asg9
(lp340
F21.733239661989842
aF0.9220632685287269
asg11
(lp341
F0.41437761002905926
aF0.017580553081405353
assS'CITo2Mu_Lam16TeVDesLL_dimuon_Moriond2017_BE'
p342
(dp343
g3
(lp344
F-23.424073650361834
aF-0.9937992792710387
asg5
(lp345
F17.27155637545161
aF0.7327700780836549
asg7
(lp346
F-6.765185730386094
aF-0.2870225223565484
asg9
(lp347
F-34.90891799674063
aF-1.4810599583628243
asg11
(lp348
F4.539601812658011
aF0.19259899353703339
assS'CITo2Mu_Lam34TeVDesLL_dimuon_Moriond2017_BB'
p349
(dp350
g3
(lp351
F46.72744527249091
aF1.9824776051820965
asg5
(lp352
F63.55340000386241
aF2.696342406611536
asg7
(lp353
F-10.324330328449385
aF-0.43802423918738975
asg9
(lp354
F-0.16915450685428368
aF-0.00717661793189582
asg11
(lp355
F-1.3864807993387167
aF-0.05882339851184109
assS'CITo2Mu_Lam34TeVConRR_dimuon_Moriond2017_BE'
p356
(dp357
g3
(lp358
F33.57646452849781
aF1.4245287453822226
asg5
(lp359
F34.55985574841361
aF1.4662505013919291
asg7
(lp360
F6.377367183055604
aF0.2705687748753101
asg9
(lp361
F20.66021792539658
aF0.8765388117503873
asg11
(lp362
F0.9793112516044324
aF0.04154865761410677
assS'CITo2Mu_Lam34TeVConRR_dimuon_Moriond2017_BB'
p363
(dp364
g3
(lp365
F9.68315081585041
aF0.41082129630839254
asg5
(lp366
F11.290505785323376
aF0.4790155922296863
asg7
(lp367
F3.560058829725399
aF0.15104050439531247
asg9
(lp368
F7.394928297387764
aF0.3137402367282707
asg11
(lp369
F1.0552884712727164
aF0.04477209804869538
assS'CITo2Mu_Lam10TeVConRR_dimuon_Moriond2017_BB'
p370
(dp371
g3
(lp372
F87.3127350165363
aF3.7043656208482165
asg5
(lp373
F32.373348132873275
aF1.373484839668053
asg7
(lp374
F137.54682202169838
aF5.835617434932124
asg9
(lp375
F141.8689452597607
aF6.018989593977594
asg11
(lp376
F79.65535114084037
aF3.3794903369690292
assS'CITo2Mu_Lam16TeVConLL_dimuon_Moriond2017_BE'
p377
(dp378
g3
(lp379
F68.3436302316976
aF2.899574663264359
asg5
(lp380
F71.05095776398775
aF3.0144368426828834
asg7
(lp381
F35.87465070838722
aF1.5220325273159632
asg9
(lp382
F60.44092504317405
aF2.5642912775529716
asg11
(lp383
F11.738767246769042
aF0.4980337153776557
assS'CITo2Mu_Lam16TeVConLL_dimuon_Moriond2017_BB'
p384
(dp385
g3
(lp386
F30.697427807024326
aF1.3023815620398835
asg5
(lp387
F27.96842842668616
aF1.1865999239784233
asg7
(lp388
F27.19681596347769
aF1.1538631796674574
asg9
(lp389
F33.18356911243896
aF1.4078596046026832
asg11
(lp390
F13.994630408119349
aF0.5937418837068392
assS'CITo2Mu_Lam10TeVConRR_dimuon_Moriond2017_BE'
p391
(dp392
g3
(lp393
F208.50402897669483
aF8.84607676764824
asg5
(lp394
F124.45277836704895
aF5.280084211250807
asg7
(lp395
F169.12022468976488
aF7.1751634628355205
asg9
(lp396
F249.08621700277763
aF10.567833188566079
asg11
(lp397
F64.3767656392848
aF2.7312748520637244
assS'CITo2Mu_Lam10TeVConLL_dimuon_Moriond2017_BB'
p398
(dp399
g3
(lp400
F69.9425613429949
aF2.967411565151267
asg5
(lp401
F23.139299649454756
aF0.9817173416422177
asg7
(lp402
F132.13559561637157
aF5.606038541787587
asg9
(lp403
F128.74871671212816
aF5.4623454393726965
asg11
(lp404
F79.93658946591952
aF3.39142226857661
assS'CITo2Mu_Lam16TeVDesLR_dimuon_Moriond2017_BE'
p405
(dp406
g3
(lp407
F-49.55220124543712
aF-2.1023218514021442
asg5
(lp408
F-80.47368016395421
aF-3.4142090970581633
asg7
(lp409
F15.676262616197533
aF0.6650874959744667
asg9
(lp410
F-6.968071132235082
aF-0.295630220963619
asg11
(lp411
F13.579698624903834
aF0.5761378190483482
assS'CITo2Mu_Lam22TeVDesLL_dimuon_Moriond2017_BE'
p412
(dp413
g3
(lp414
F26.380615203245156
aF1.119234714125255
asg5
(lp415
F61.9086208989379
aF2.6265603390927725
asg7
(lp416
F-13.178122649602955
aF-0.559100393330537
asg9
(lp417
F-20.361824465412553
aF-0.8638790494094019
asg11
(lp418
F-0.28153392119933107
aF-0.011944472688845168
assS'CITo2Mu_Lam22TeVDesLL_dimuon_Moriond2017_BB'
p419
(dp420
g3
(lp421
F40.45995959122985
aF1.7165707076095391
asg5
(lp422
F56.60742880904536
aF2.4016498065846426
asg7
(lp423
F-9.557148076994494
aF-0.4054754528428068
asg9
(lp424
F-4.18632192799285
aF-0.17761059741082116
asg11
(lp425
F0.321547437003292
aF0.01364210239069092
ass.