(dp0
S'CITo2Mu_Lam10TeVConLL_dimuon_BE'
p1
(dp2
S'1'
p3
(lp4
F200.08612665686053
aF1.6869476389460976
asS'0'
p5
(lp6
F111.49463303633843
aF1.0465718870991978
asS'3'
p7
(lp8
F172.51141746821082
aF1.3155596222830628
asS'2'
p9
(lp10
F251.69521805382118
aF1.9140082563975707
asS'5'
p11
(lp12
F6.040711931334279
aF0.27875759750587337
asS'4'
p13
(lp14
F63.86584915039193
aF0.6291907035271481
assS'CITo2Mu_Lam10TeVConLR_dimuon_BE'
p15
(dp16
g3
(lp17
F380.427381671539
aF3.3007332460189485
asg5
(lp18
F244.2258141479765
aF2.367719549810321
asg7
(lp19
F289.8713198581945
aF2.4539099251994565
asg9
(lp20
F412.8079252492145
aF3.2854531505061213
asg11
(lp21
F10.7163652133222
aF1.3507774438940108
asg13
(lp22
F118.4541499114286
aF1.971083992915354
assS'CITo2Mu_Lam10TeVConLR_dimuon_BB'
p23
(dp24
g3
(lp25
F215.21300679719081
aF2.394419232167799
asg5
(lp26
F145.83679590192253
aF1.8490232061495706
asg7
(lp27
F242.45059521959672
aF2.087707646734421
asg9
(lp28
F248.83529078125943
aF2.3227500285179317
asg11
(lp29
F19.032264692944864
aF2.1498813957779417
asg13
(lp30
F150.2229446164332
aF2.2782468083637495
assS'CITo2Mu_Lam10TeVConLL_dimuon_BB'
p31
(dp32
g3
(lp33
F61.2299929520546
aF0.6599791017045755
asg5
(lp34
F12.759873311849105
aF0.15454776504538364
asg7
(lp35
F133.21468919810448
aF1.0435990871048983
asg9
(lp36
F126.85706552483131
aF1.1568942351833094
asg11
(lp37
F10.684398913580704
aF0.39552500688409875
asg13
(lp38
F79.59395054462124
aF0.6981007113796515
assS'CITo2Mu_Lam28TeVConRR_dimuon_BB'
p39
(dp40
g3
(lp41
F14.929466294381598
aF0.1659103186340078
asg5
(lp42
F16.732487084309923
aF0.21218513203542283
asg7
(lp43
F5.851296151214754
aF0.05387412089290523
asg9
(lp44
F10.55966112345925
aF0.10023568174415101
asg11
(lp45
F0.20012732920001983
aF0.02688128784588276
asg13
(lp46
F2.136934855909804
aF0.04042324723515238
assS'CITo2Mu_Lam28TeVConRR_dimuon_BE'
p47
(dp48
g3
(lp49
F36.02229203089189
aF0.3134945644845643
asg5
(lp50
F33.38539133561676
aF0.3208691381711583
asg7
(lp51
F8.277525139189315
aF0.07322486472172803
asg9
(lp52
F21.554288726285392
aF0.17639089869971503
asg11
(lp53
F0.08729727467331905
aF0.013885259235626888
asg13
(lp54
F1.8147626101240348
aF0.03548994770080039
assS'CITo2Mu_Lam22TeVConRR_dimuon_BB'
p55
(dp56
g3
(lp57
F17.14694211339213
aF0.18975005387514823
asg5
(lp58
F22.54926248094216
aF0.2846144753749657
asg7
(lp59
F11.337850001443677
aF0.10353767697314316
asg9
(lp60
F15.423043140868089
aF0.14569884812847744
asg11
(lp61
F0.4766282728662333
aF0.05990859394685518
asg13
(lp62
F4.765448308529949
aF0.08725032151630557
assS'CITo2Mu_Lam22TeVConRR_dimuon_BE'
p63
(dp64
g3
(lp65
F37.704258649105896
aF0.3260891849898224
asg5
(lp66
F31.756305403285523
aF0.3039926731699664
asg7
(lp67
F16.249661635103216
aF0.14201766577305805
asg9
(lp68
F33.06932793101157
aF0.2680341337584591
asg11
(lp69
F0.2282822394923061
aF0.033891267471593864
asg13
(lp70
F3.8349731277934236
aF0.07274386656904536
assS'CITo2Mu_Lam28TeVConLR_dimuon_BB'
p71
(dp72
g3
(lp73
F66.92889012812287
aF0.7369073975882517
asg5
(lp74
F71.37459612492285
aF0.898794651041996
asg7
(lp75
F1.0091567622719637
aF0.008755119471317284
asg9
(lp76
F19.109207230747188
aF0.17673711931675487
asg11
(lp77
F0.353961916848613
aF0.043011584298558024
asg13
(lp78
F2.3187834939739975
aF0.03912182237568148
assS'CITo2Mu_Lam28TeVConLR_dimuon_BE'
p79
(dp80
g3
(lp81
F77.237625128422
aF0.6715689721790101
asg5
(lp82
F92.07954475773636
aF0.8866370302706178
asg7
(lp83
F2.514523288179852
aF0.021628031758237295
asg9
(lp84
F24.58917587330137
aF0.19941142041935328
asg11
(lp85
F0.24036610154031637
aF0.03336659923220439
asg13
(lp86
F1.7811355140970306
aF0.03237212144359588
assS'CITo2Mu_Lam34TeVConLL_dimuon_BB'
p87
(dp88
g3
(lp89
F7.732306037538876
aF0.08217644636285093
asg5
(lp90
F5.671265847405266
aF0.06793331897263594
asg7
(lp91
F3.5368313200064136
aF0.02765079347197282
asg9
(lp92
F6.535964687461984
aF0.058852736445943105
asg11
(lp93
F0.12894232312440004
aF0.00534776424322796
asg13
(lp94
F1.2054151662706776
aF0.010748976603584901
assS'CITo2Mu_Lam16TeVConRR_dimuon_BE'
p95
(dp96
g3
(lp97
F71.57978269819444
aF0.6138932726669605
asg5
(lp98
F70.44883856410502
aF0.6695578665450743
asg7
(lp99
F38.12326436015954
aF0.33087249389847445
asg9
(lp100
F68.57390837017795
aF0.5502944858731267
asg11
(lp101
F0.9376196417182721
aF0.13069394147734617
asg13
(lp102
F11.225201227881577
aF0.20512921794959926
assS'CITo2Mu_Lam34TeVConLL_dimuon_BE'
p103
(dp104
g3
(lp105
F53.05808490207016
aF0.4454379305944643
asg5
(lp106
F75.89382974799764
aF0.707727265756391
asg7
(lp107
F5.12474789197222
aF0.03958915792653016
asg9
(lp108
F20.09399867308997
aF0.15350258052266813
asg11
(lp109
F0.07239654401875242
aF0.0037575866188789817
asg13
(lp110
F1.1150341245565811
aF0.011199399089081652
assS'CITo2Mu_Lam10TeVConRR_dimuon_BB'
p111
(dp112
g3
(lp113
F78.06517301087712
aF0.8787136206580718
asg5
(lp114
F23.104119328542765
aF0.29581575453662606
asg7
(lp115
F139.12759878876452
aF1.2666553133746863
asg9
(lp116
F139.84853361788436
aF1.338714305330613
asg11
(lp117
F9.904441189276941
aF1.180506951384438
asg13
(lp118
F78.70343367079239
aF1.3446662577424948
assS'CITo2Mu_Lam10TeVConRR_dimuon_BE'
p119
(dp120
g3
(lp121
F190.42118731249514
aF1.6442068117238102
asg5
(lp122
F103.92400624043489
aF0.9971275429994516
asg7
(lp123
F171.3820888594895
aF1.4859162351134516
asg9
(lp124
F247.17345644141648
aF1.9841309115872443
asg11
(lp125
F5.543985630713731
aF0.757603421606202
asg13
(lp126
F63.58582555359572
aF1.1275695977333717
assS'CITo2Mu_Lam28TeVConLL_dimuon_BB'
p127
(dp128
g3
(lp129
F15.384827408392994
aF0.16284644483493466
asg5
(lp130
F23.84235031968842
aF0.2841728186331382
asg7
(lp131
F5.1883771197587265
aF0.040523718340862075
asg9
(lp132
F8.642428228053774
aF0.07763377768035397
asg11
(lp133
F0.23546540184506656
aF0.009432744109202584
asg13
(lp134
F2.1368809570747374
aF0.01899858085522567
assS'CITo2Mu_Lam16TeVConRR_dimuon_BB'
p135
(dp136
g3
(lp137
F15.244794593414838
aF0.16876068868490593
asg5
(lp138
F9.934568703285095
aF0.12536216845504292
asg7
(lp139
F29.2998427541525
aF0.26617792623284864
asg9
(lp140
F31.93736192484971
aF0.30137186607676414
asg11
(lp141
F1.5858314109620708
aF0.19193197125625955
asg13
(lp142
F13.879396448820852
aF0.24484031572792642
assS'CITo2Mu_Lam28TeVConLL_dimuon_BE'
p143
(dp144
g3
(lp145
F33.72509865270786
aF0.27953674998422845
asg5
(lp146
F52.8231537576371
aF0.4879412155039978
asg7
(lp147
F7.48919547787613
aF0.057139017782379335
asg9
(lp148
F17.142742917708972
aF0.1288901216600794
asg11
(lp149
F0.13362677324638772
aF0.006683051054274503
asg13
(lp150
F1.9027151274561387
aF0.019011127704246397
assS'CITo2Mu_Lam22TeVConLL_dimuon_BB'
p151
(dp152
g3
(lp153
F6.575905269139469
aF0.06947594813356812
asg5
(lp154
F9.286830125879646
aF0.11049274175673039
asg7
(lp155
F10.413401144140401
aF0.08082870243191993
asg9
(lp156
F11.14253593714787
aF0.09973478524873414
asg11
(lp157
F0.581342133271981
aF0.022388877069644875
asg13
(lp158
F4.609913609567547
aF0.04084289593013723
assS'CITo2Mu_Lam34TeVConLR_dimuon_BB'
p159
(dp160
g3
(lp161
F51.345647577039756
aF0.567922735741621
asg5
(lp162
F53.2232515959563
aF0.6729363699908161
asg7
(lp163
F-2.5497822891725406
aF-0.02221553166414617
asg9
(lp164
F11.663741015063266
aF0.10843046114517958
asg11
(lp165
F0.19304657328254216
aF0.024753747729281406
asg13
(lp166
F0.6414469666186937
aF0.011141393483713399
assS'CITo2Mu_Lam34TeVConLR_dimuon_BE'
p167
(dp168
g3
(lp169
F57.89629469610702
aF0.504209929489078
asg5
(lp170
F60.6812373861992
aF0.584875654728388
asg7
(lp171
F-0.30024698739358513
aF-0.0025815926097343257
asg9
(lp172
F19.62498587054074
aF0.1595432438480709
asg11
(lp173
F0.13528107819603
aF0.020366629855556265
asg13
(lp174
F0.3586014725133797
aF0.006694752145951225
assS'CITo2Mu_Lam22TeVConLL_dimuon_BE'
p175
(dp176
g3
(lp177
F55.334501020119774
aF0.46527503386037744
asg5
(lp178
F72.05311531376992
aF0.6722632800789101
asg7
(lp179
F14.960931117258681
aF0.11489337369428927
asg9
(lp180
F33.216463080432675
aF0.253954903021675
asg11
(lp181
F0.3044318851326151
aF0.014701015399471355
asg13
(lp182
F3.9405059345991518
aF0.039036985251864664
assS'CITo2Mu_Lam22TeVConLR_dimuon_BB'
p183
(dp184
g3
(lp185
F61.99860618398992
aF0.6817729189042059
asg5
(lp186
F63.56045431046175
aF0.7987063905162962
asg7
(lp187
F9.228889085958947
aF0.07965210266754597
asg9
(lp188
F25.306952957140282
aF0.23353857316725687
asg11
(lp189
F0.925426438310943
aF0.10798159569295952
asg13
(lp190
F6.386518061096561
aF0.10413030908832639
assS'CITo2Mu_Lam22TeVConLR_dimuon_BE'
p191
(dp192
g3
(lp193
F86.34021936144109
aF0.743869364649861
asg5
(lp194
F95.07802567770045
aF0.910479554940376
asg7
(lp195
F13.73264121943049
aF0.11638445154910168
asg9
(lp196
F41.8017685623891
aF0.3334481096067712
asg11
(lp197
F0.5064589205434665
aF0.06714742158470241
asg13
(lp198
F5.20220614827847
aF0.09168220457667181
assS'CITo2Mu_Lam16TeVConLL_dimuon_BB'
p199
(dp200
g3
(lp201
F8.747072024343197
aF0.09310266820757826
asg5
(lp202
F4.160146789791497
aF0.04979009486481233
asg7
(lp203
F28.46268554789419
aF0.22169302788993198
asg9
(lp204
F28.719965695145305
aF0.25893229310042404
asg11
(lp205
F1.8087497408447273
aF0.06804525262984996
asg13
(lp206
F13.827526192479908
aF0.1222116860937191
assS'CITo2Mu_Lam34TeVConRR_dimuon_BE'
p207
(dp208
g3
(lp209
F26.598081920892014
aF0.23075184885795424
asg5
(lp210
F28.420692478086266
aF0.27242605804593667
asg7
(lp211
F6.37835643956285
aF0.05661232868128592
asg9
(lp212
F18.151276560019312
aF0.1483530353544167
asg11
(lp213
F0.0468505095632487
aF0.008022448575697222
asg13
(lp214
F0.9610002940956712
aF0.019300551198635024
assS'CITo2Mu_Lam34TeVConRR_dimuon_BB'
p215
(dp216
g3
(lp217
F5.3944342523190585
aF0.06057741780272227
asg5
(lp218
F7.6058464701491175
aF0.0972072060016238
asg7
(lp219
F3.6575003964339032
aF0.03400194823302352
asg9
(lp220
F6.473493118357226
aF0.06230275371593909
asg11
(lp221
F0.1142381898051309
aF0.016614291791519287
asg13
(lp222
F0.9858984587209849
aF0.019170702792425918
assS'CITo2Mu_Lam16TeVConLL_dimuon_BE'
p223
(dp224
g3
(lp225
F40.31955893021825
aF0.3363563914930643
asg5
(lp226
F36.21577783327916
aF0.3362433297274983
asg7
(lp227
F37.195800964193694
aF0.2813126647160144
asg9
(lp228
F56.370381901426015
aF0.42465128646894723
asg11
(lp229
F1.053493319225173
aF0.04929762026700278
asg13
(lp230
F11.59797590821346
aF0.11409193124605223
assS'CITo2Mu_Lam16TeVConLR_dimuon_BB'
p231
(dp232
g3
(lp233
F71.5058727851233
aF0.7879588197178202
asg5
(lp234
F60.018933423877456
aF0.7546360452488219
asg7
(lp235
F40.63804816622616
aF0.3490548918601741
asg9
(lp236
F56.705176383574894
aF0.5234714827668873
asg11
(lp237
F3.3345894772643554
aF0.38003166120617543
asg13
(lp238
F23.754254655846495
aF0.3703125408840439
assS'CITo2Mu_Lam16TeVConLR_dimuon_BE'
p239
(dp240
g3
(lp241
F112.54554167729509
aF0.9712142642667766
asg5
(lp242
F94.99949311167575
aF0.9123156483628944
asg7
(lp243
F51.86064875201485
aF0.43863579261439356
asg9
(lp244
F95.16642689624734
aF0.7566181181709035
asg11
(lp245
F1.4657426427842384
aF0.18879186168330087
asg13
(lp246
F19.298418936620898
aF0.32846112531449584
ass.