(dp0
S'CITo2Mu_Lam10TeVConLL_dimuon_BE'
p1
(dp2
S'1'
p3
(lp4
F196.81211271652546
aF1.6451386101564212
asS'0'
p5
(lp6
F114.87367996253238
aF1.07129664119662
asS'3'
p7
(lp8
F166.5457487941381
aF1.24395556466576
asS'2'
p9
(lp10
F243.99800589344682
aF1.829559648469973
asS'4'
p11
(lp12
F60.97622273232695
aF0.5876367079534075
assS'CITo2Mu_Lam10TeVConLR_dimuon_BE'
p13
(dp14
g3
(lp15
F384.91981053833035
aF3.310597017309968
asg5
(lp16
F255.25903071579046
aF2.4601948979712662
asg7
(lp17
F280.40845551609294
aF2.32537857672757
asg9
(lp18
F404.7031752006817
aF3.1711759319841177
asg11
(lp19
F114.47636851818626
aF1.908131557996765
assS'CITo2Mu_Lam10TeVConLR_dimuon_BB'
p20
(dp21
g3
(lp22
F212.5758026733688
aF2.362532089197281
asg5
(lp23
F141.7184291824209
aF1.7951737916646229
asg7
(lp24
F241.70346441366814
aF2.0765261035118905
asg9
(lp25
F248.59974119458087
aF2.317071211974824
asg11
(lp26
F148.4470585902811
aF2.263164991078559
assS'CITo2Mu_Lam10TeVConLL_dimuon_BB'
p27
(dp28
g3
(lp29
F63.98787491845053
aF0.6891477940517209
asg5
(lp30
F16.036084938542785
aF0.1940319771407059
asg7
(lp31
F132.44343671160763
aF1.0344783567677174
asg9
(lp32
F127.10142693398839
aF1.1580168470058083
asg11
(lp33
F79.03035767639311
aF0.6905402172556591
assS'CITo2Mu_Lam28TeVConRR_dimuon_BB'
p34
(dp35
g3
(lp36
F14.234042819842045
aF0.15820068637408763
asg5
(lp37
F15.458217569136309
aF0.19604166539649326
asg7
(lp38
F5.756911713054599
aF0.05295086459734805
asg9
(lp39
F10.326479402375242
aF0.0979974709578987
asg11
(lp40
F2.1215971056910643
aF0.040200988221340016
assS'CITo2Mu_Lam28TeVConRR_dimuon_BE'
p41
(dp42
g3
(lp43
F40.747304586313476
aF0.35309946109366525
asg5
(lp44
F37.61701349936675
aF0.36062787336059776
asg7
(lp45
F7.996424155060133
aF0.06920220674219889
asg9
(lp46
F22.48687307668166
aF0.18210811837215918
asg11
(lp47
F1.7871281333084093
aF0.035182529212690716
assS'CITo2Mu_Lam22TeVConRR_dimuon_BB'
p48
(dp49
g3
(lp50
F12.567032644577466
aF0.13893143902208802
asg5
(lp51
F16.46989140741016
aF0.20774295787672303
asg7
(lp52
F11.345054760159314
aF0.1034466923078184
asg9
(lp53
F14.593558681724943
aF0.13770721227777305
asg11
(lp54
F4.680941092431387
aF0.08567347274196029
assS'CITo2Mu_Lam22TeVConRR_dimuon_BE'
p55
(dp56
g3
(lp57
F31.936668624669437
aF0.1952219204951722
asg5
(lp58
F25.102641007935972
aF0.17011338898528056
asg7
(lp59
F15.789051593881496
aF0.09756984458647115
asg9
(lp60
F31.65993330541204
aF0.181185344826248
asg11
(lp61
F3.5972534392618507
aF0.05456207276292783
assS'CITo2Mu_Lam28TeVConLR_dimuon_BB'
p62
(dp63
g3
(lp64
F62.19520149563334
aF0.6836002643931633
asg5
(lp65
F65.01003101491176
aF0.8176095058773002
asg7
(lp66
F1.058970589251146
aF0.009161347309669929
asg9
(lp67
F18.189029063780964
aF0.16776145339190182
asg11
(lp68
F2.2657806727625918
aF0.038417826866382065
assS'CITo2Mu_Lam28TeVConLR_dimuon_BE'
p69
(dp70
g3
(lp71
F87.0996723067467
aF0.7475529219570761
asg5
(lp72
F103.81039616157909
aF0.9918348159000688
asg7
(lp73
F2.383477628567327
aF0.019892833357543348
asg9
(lp74
F26.313807673880433
aF0.20824103816532089
asg11
(lp75
F1.697826947916199
aF0.030989442664014603
assS'CITo2Mu_Lam34TeVConLL_dimuon_BB'
p76
(dp77
g3
(lp78
F8.587784420407672
aF0.09085683137631918
asg5
(lp79
F6.925640141957956
aF0.08262660680526004
asg7
(lp80
F3.312188762840435
aF0.02573154265578737
asg9
(lp81
F6.1632793878381165
aF0.055198936288062696
asg11
(lp82
F1.2079221541992022
aF0.010709348276863566
assS'CITo2Mu_Lam16TeVConRR_dimuon_BE'
p83
(dp84
g3
(lp85
F68.05276199551508
aF0.5785926639548626
asg5
(lp86
F66.84550885077238
aF0.6322292749347206
asg7
(lp87
F36.831929197579235
aF0.3126336350900285
asg9
(lp88
F66.77521913373738
aF0.526756270029664
asg11
(lp89
F10.535888613800683
aF0.19448634868647913
assS'CITo2Mu_Lam34TeVConLL_dimuon_BE'
p90
(dp91
g3
(lp92
F48.73012355373214
aF0.4024529238958744
asg5
(lp93
F73.43422386859515
aF0.6766140599358579
asg7
(lp94
F4.724327323318278
aF0.03529337914157674
asg9
(lp95
F17.694304241054283
aF0.13184750989806132
asg11
(lp96
F1.0627711838661495
aF0.0103170191574609
assS'CITo2Mu_Lam10TeVConRR_dimuon_BB'
p97
(dp98
g3
(lp99
F78.4987058426695
aF0.8829942429458834
asg5
(lp100
F22.11988906422016
aF0.2830565507898167
asg7
(lp101
F138.22828570892312
aF1.2579037153940262
asg9
(lp102
F140.25440025461887
aF1.3424827757269084
asg11
(lp103
F78.11848490840421
aF1.3333746875999042
assS'CITo2Mu_Lam10TeVConRR_dimuon_BE'
p104
(dp105
g3
(lp106
F185.33981616190772
aF1.5878746606424634
asg5
(lp107
F102.48216805170318
aF0.9783687676844661
asg7
(lp108
F165.05124182191446
aF1.4063382020518997
asg9
(lp109
F239.83555650003296
aF1.8997095040493817
asg11
(lp110
F60.5476103292737
aF1.0845170343117632
assS'CITo2Mu_Lam28TeVConLL_dimuon_BB'
p111
(dp112
g3
(lp113
F15.087307240075631
aF0.15972577372690888
asg5
(lp114
F23.266566272833302
aF0.2772741389998542
asg7
(lp115
F5.1541771048414375
aF0.040107762648180355
asg9
(lp116
F8.464467994572033
aF0.07602050943213647
asg11
(lp117
F2.1204020272722146
aF0.01877467165514097
assS'CITo2Mu_Lam16TeVConRR_dimuon_BB'
p118
(dp119
g3
(lp120
F11.572379612431746
aF0.1281752075929628
asg5
(lp121
F4.3800904249869745
aF0.05529811535893204
asg7
(lp122
F29.216020023938185
aF0.26517982692679604
asg9
(lp123
F31.274316316694183
aF0.29513491826991534
asg11
(lp124
F13.678721266331657
aF0.2413949533017499
assS'CITo2Mu_Lam28TeVConLL_dimuon_BE'
p125
(dp126
g3
(lp127
F45.99656924323176
aF0.3786953258319542
asg5
(lp128
F70.00128940900777
aF0.6432584495548733
asg7
(lp129
F7.061550242088742
aF0.05252695981067401
asg9
(lp130
F19.264609801904612
aF0.14302638164304177
asg11
(lp131
F1.7881321307091382
aF0.017287885484155528
assS'CITo2Mu_Lam22TeVConLL_dimuon_BB'
p132
(dp133
g3
(lp134
F9.186340727875972
aF0.09700539715415389
asg5
(lp135
F12.649171942329872
aF0.15037557311828662
asg7
(lp136
F10.326822180286392
aF0.07987039639388512
asg9
(lp137
F11.66379353692588
aF0.1043212651495186
asg11
(lp138
F4.575307263652297
aF0.04037094020731219
assS'CITo2Mu_Lam34TeVConLR_dimuon_BB'
p139
(dp140
g3
(lp141
F48.9521165015326
aF0.540351981501402
asg5
(lp142
F50.08346091108194
aF0.6321366473715933
asg7
(lp143
F-2.501138153976079
aF-0.021726859162886872
asg9
(lp144
F11.427173052151034
aF0.10601467120672001
asg11
(lp145
F0.6285797351746902
aF0.010946429711432169
assS'CITo2Mu_Lam34TeVConLR_dimuon_BE'
p146
(dp147
g3
(lp148
F63.40444872602018
aF0.5455690153845911
asg5
(lp149
F68.1740530249906
aF0.6528341356305852
asg7
(lp150
F-0.5539514404846102
aF-0.004624861859249389
asg9
(lp151
F19.74468176883846
aF0.15648841397291302
asg11
(lp152
F0.3052452727025159
aF0.005734488792751878
assS'CITo2Mu_Lam22TeVConLL_dimuon_BE'
p153
(dp154
g3
(lp155
F56.21178288090323
aF0.4654297696653318
asg5
(lp156
F76.21683383651452
aF0.7033600976857268
asg7
(lp157
F14.090181945914424
aF0.10472945765905259
asg9
(lp158
F31.44944422665435
aF0.234671405312077
asg11
(lp159
F3.7567180022236566
aF0.0361879664788315
assS'CITo2Mu_Lam22TeVConLR_dimuon_BB'
p160
(dp161
g3
(lp162
F56.801531195699226
aF0.6239145855803956
asg5
(lp163
F57.40361382450658
aF0.7206553108332033
asg7
(lp164
F9.180635065933181
aF0.07908035811111735
asg9
(lp165
F24.066668516227992
aF0.22172583180040753
asg11
(lp166
F6.2825757338141095
aF0.10294360027090245
assS'CITo2Mu_Lam22TeVConLR_dimuon_BE'
p167
(dp168
g3
(lp169
F92.2629036553526
aF0.7883442018033692
asg5
(lp170
F100.61799044090776
aF0.9588795611512086
asg7
(lp171
F13.274212116044964
aF0.10971605975917251
asg9
(lp172
F42.5836923630153
aF0.3339322097882732
asg11
(lp173
F4.982335113126548
aF0.08786482450137166
assS'CITo2Mu_Lam16TeVConLL_dimuon_BB'
p174
(dp175
g3
(lp176
F8.594538268890233
aF0.09144818532895356
asg5
(lp177
F3.9456491334628936
aF0.047197906818680066
asg7
(lp178
F28.180208481420394
aF0.21877421918961368
asg9
(lp179
F28.194298408430427
aF0.254025998997883
asg11
(lp180
F13.698173980629349
aF0.12061161697750056
assS'CITo2Mu_Lam34TeVConRR_dimuon_BE'
p181
(dp182
g3
(lp183
F27.72833073785614
aF0.23928547078321585
asg5
(lp184
F28.416607547734884
aF0.27143697814394285
asg7
(lp185
F6.304530620662412
aF0.054550805037313056
asg9
(lp186
F19.29235305169169
aF0.15583325538650378
asg11
(lp187
F0.903764629696767
aF0.018149118779843296
assS'CITo2Mu_Lam34TeVConRR_dimuon_BB'
p188
(dp189
g3
(lp190
F3.52346371013482
aF0.03927364876133255
asg5
(lp191
F3.6074394915805215
aF0.04585999085882622
asg7
(lp192
F3.7115060585299915
aF0.03424680672110948
asg9
(lp193
F6.655272305685429
aF0.06347990927376118
asg11
(lp194
F0.995539608002999
aF0.019250863281998806
assS'CITo2Mu_Lam16TeVConLL_dimuon_BE'
p195
(dp196
g3
(lp197
F43.20763932448051
aF0.3561329551142231
asg5
(lp198
F41.23034639098978
aF0.37951574700054314
asg7
(lp199
F35.60848839404089
aF0.26226850307942845
asg9
(lp200
F54.84248017798626
aF0.40519564849671225
asg11
(lp201
F11.071746577193172
aF0.10632271189464697
assS'CITo2Mu_Lam16TeVConLR_dimuon_BB'
p202
(dp203
g3
(lp204
F67.74327412128451
aF0.7454993829879913
asg5
(lp205
F54.37346293004964
aF0.6829830945292487
asg7
(lp206
F40.44451009647744
aF0.34650628632825564
asg9
(lp207
F55.998549700524336
aF0.5159153668609897
asg11
(lp208
F23.534345977908114
aF0.3686268152511078
assS'CITo2Mu_Lam16TeVConLR_dimuon_BE'
p209
(dp210
g3
(lp211
F112.59330199240264
aF0.961698431811122
asg5
(lp212
F94.26509550356263
aF0.8996898943436948
asg7
(lp213
F50.13868005579393
aF0.4130403880281195
asg9
(lp214
F93.1163112801238
aF0.7260822731683384
asg11
(lp215
F18.536079145058252
aF0.31542546908765406
ass.