(dp0
S'CITo2Mu_Lam16TeVConRR_dimuon_Moriond2017_BB'
p1
(dp2
S'1'
p3
(lp4
F20.617586765798933
aF0.8747301248279067
asS'0'
p5
(lp6
F14.981975066158384
aF0.6356313698909021
asS'3'
p7
(lp8
F28.934963257215188
aF1.2276065239536271
asS'2'
p9
(lp10
F32.72017842413325
aF1.3881996027203032
asS'4'
p11
(lp12
F13.928201552426417
aF0.5909235460472231
assS'CITo2Mu_Lam22TeVConLL_dimuon_Moriond2017_BE'
p13
(dp14
g3
(lp15
F67.2320597702651
aF2.852414722601624
asg5
(lp16
F87.28573569903347
aF3.703220136818597
asg7
(lp17
F14.411913889165646
aF0.6114457224543371
asg9
(lp18
F34.43859959154099
aF1.4611060383448142
asg11
(lp19
F3.963572949604051
aF0.16816015862355543
assS'CITo2Mu_Lam22TeVConLL_dimuon_Moriond2017_BB'
p20
(dp21
g3
(lp22
F19.505716395870706
aF0.8275574601253081
asg5
(lp23
F23.136742774684762
aF0.9816088626329073
asg7
(lp24
F9.932608180991231
aF0.4214048759788727
asg9
(lp25
F13.785540292922434
aF0.5848709414067503
asg11
(lp26
F4.648309087284194
aF0.19721105260018232
assS'CITo2Mu_Lam16TeVConRR_dimuon_Moriond2017_BE'
p27
(dp28
g3
(lp29
F82.20128447882473
aF3.487505140633288
asg5
(lp30
F84.05330986323088
aF3.5660799231278806
asg7
(lp31
F37.19263117213944
aF1.5779497027193983
asg9
(lp32
F69.26643626837904
aF2.9387260076397985
asg11
(lp33
F11.32264431536525
aF0.48037911458148497
assS'CITo2Mu_Lam16TeVConLR_dimuon_Moriond2017_BB'
p34
(dp35
g3
(lp36
F84.22252611048305
aF3.5732591604830173
asg5
(lp37
F73.04070773098965
aF3.0988547843548484
asg7
(lp38
F39.391883447809185
aF1.6712560745793597
asg9
(lp39
F58.83193480170053
aF2.496027602916437
asg11
(lp40
F24.374155622404743
aF1.0341078435779165
assS'CITo2Mu_Lam10TeVDesRR_dimuon_Moriond2017_BB'
p41
(dp42
g3
(lp43
F-45.03962124552311
aF-1.9108692962869853
asg5
(lp44
F-80.88849883840658
aF-3.431808362918248
asg7
(lp45
F81.3630086322149
aF3.4519401084947257
asg9
(lp46
F40.28639868232341
aF1.7092071418713406
asg11
(lp47
F65.29720601408702
aF2.770325829905757
assS'CITo2Mu_Lam16TeVConLR_dimuon_Moriond2017_BE'
p48
(dp49
g3
(lp50
F126.36425126725987
aF5.361181138238415
asg5
(lp51
F108.94117460456732
aF4.621982598799035
asg7
(lp52
F51.12448163455933
aF2.169028058906641
asg9
(lp53
F95.55409962958254
aF4.0540171090951675
asg11
(lp54
F19.840806228025485
aF0.8417741176827064
assS'CITo2Mu_Lam28TeVDesLR_dimuon_Moriond2017_BE'
p55
(dp56
g3
(lp57
F47.232308651534936
aF2.0038971443157836
asg5
(lp58
F65.89887423285018
aF2.7958524505564686
asg7
(lp59
F-8.288892925402934
aF-0.35166794376489685
asg9
(lp60
F-3.076815826242637
aF-0.13053824011189552
asg11
(lp61
F-0.17054522044393972
aF-0.007235620912491864
assS'CITo2Mu_Lam28TeVConRR_dimuon_Moriond2017_BB'
p62
(dp63
g3
(lp64
F18.18754238950521
aF0.7716320734042151
asg5
(lp65
F19.44431432054205
aF0.8249523906946787
asg7
(lp66
F5.679073848841483
aF0.24094269776249994
asg9
(lp67
F10.885009147162464
aF0.4618118268741706
asg11
(lp68
F2.1993216954456543
aF0.09330931709161902
assS'CITo2Mu_Lam28TeVConRR_dimuon_Moriond2017_BE'
p69
(dp70
g3
(lp71
F41.72147843418031
aF1.7700924193162322
asg5
(lp72
F42.48230771965018
aF1.8023716721410956
asg7
(lp73
F7.950566992926497
aF0.3373139900985758
asg9
(lp74
F21.074944838495924
aF0.8941341845059738
asg11
(lp75
F1.9169142916591677
aF0.0813277856751363
assS'CITo2Mu_Lam28TeVDesLR_dimuon_Moriond2017_BB'
p76
(dp77
g3
(lp78
F37.5901082897675
aF1.5948132286338752
asg5
(lp79
F44.842564670613115
aF1.9025088938632102
asg7
(lp80
F-7.084929937669898
aF-0.3005881201894781
asg9
(lp81
F1.0498585238206033
aF0.04454172488880283
asg11
(lp82
F0.149673343535639
aF0.006350102170614842
assS'CITo2Mu_Lam10TeVConLR_dimuon_Moriond2017_BB'
p83
(dp84
g3
(lp85
F205.41924707790236
aF8.715200555701179
asg5
(lp86
F131.84390058621614
aF5.593662969755908
asg7
(lp87
F243.72734732387173
aF10.340475603199119
asg9
(lp88
F248.35486923201992
aF10.536804730479572
asg11
(lp89
F149.65361437340434
aF6.349265133150648
assS'CITo2Mu_Lam34TeVConLL_dimuon_Moriond2017_BE'
p90
(dp91
g3
(lp92
F52.95122477070447
aF2.2465302064498935
asg5
(lp93
F77.84072456365175
aF3.302502251485945
asg7
(lp94
F4.577151128095899
aF0.19419207607153596
asg9
(lp95
F17.894351504274766
aF0.7591930376165031
asg11
(lp96
F1.1491606759601063
aF0.048754758398658476
assS'CITo2Mu_Lam10TeVDesLR_dimuon_Moriond2017_BB'
p97
(dp98
g3
(lp99
F136.2878142614636
aF5.782202259442415
asg5
(lp100
F38.34509159971401
aF1.6268444577226258
asg7
(lp101
F202.66599588555454
aF8.598390000396034
asg9
(lp102
F199.5965284194722
aF8.468163524802135
asg11
(lp103
F131.26682465788062
aF5.569179711624773
assS'CITo2Mu_Lam10TeVConLR_dimuon_Moriond2017_BE'
p104
(dp105
g3
(lp106
F424.6663620693806
aF18.01706786166484
asg5
(lp107
F289.95519398511533
aF12.301757034428153
asg7
(lp108
F288.1169789625593
aF12.223768175964453
asg9
(lp109
F421.6862344583732
aF17.890631755112164
asg11
(lp110
F121.85037636072933
aF5.169673644888282
assS'CITo2Mu_Lam34TeVDesLR_dimuon_Moriond2017_BE'
p111
(dp112
g3
(lp113
F55.34307074161018
aF2.348007636784762
asg5
(lp114
F71.77524597569982
aF3.045165789044988
asg7
(lp115
F-8.945446722696445
aF-0.3795231623016981
asg9
(lp116
F1.0701944747952439
aF0.045404506218965565
asg11
(lp117
F-0.7414312496584947
aF-0.03145626386502826
assS'CITo2Mu_Lam28TeVConLR_dimuon_Moriond2017_BE'
p118
(dp119
g3
(lp120
F98.81196088501997
aF4.192236456248251
asg5
(lp121
F114.32330235736322
aF4.850326940671893
asg7
(lp122
F2.3654789949015935
aF0.10035877428295534
asg9
(lp123
F29.233535892660655
aF1.240273888065641
asg11
(lp124
F1.8980858463716657
aF0.08052896239461674
assS'CITo2Mu_Lam10TeVDesLR_dimuon_Moriond2017_BE'
p125
(dp126
g3
(lp127
F220.06255886890642
aF9.336463659688054
asg5
(lp128
F32.10052382809317
aF1.3619098847091022
asg7
(lp129
F244.81349194784679
aF10.386556816936844
asg9
(lp130
F319.235690588627
aF13.54402329671932
asg11
(lp131
F105.26748827334852
aF4.466121287793607
assS'CITo2Mu_Lam28TeVConLR_dimuon_Moriond2017_BB'
p132
(dp133
g3
(lp134
F61.064791902332104
aF2.5907597067530643
asg5
(lp135
F62.65409311973747
aF2.658188046843587
asg7
(lp136
F1.0706752850899477
aF0.04542490527215652
asg9
(lp137
F18.09348153292916
aF0.7676414092324667
asg11
(lp138
F2.35121001260395
aF0.09975339263435766
assS'CITo2Mu_Lam34TeVDesLR_dimuon_Moriond2017_BB'
p139
(dp140
g3
(lp141
F38.462759539184674
aF1.631836685598303
asg5
(lp142
F45.61056571154131
aF1.9350924185031295
asg7
(lp143
F-7.864052483658249
aF-0.33364349032809953
asg9
(lp144
F0.7737155774989617
aF0.032825971893550895
asg11
(lp145
F-0.7544191742426789
aF-0.03200729483784923
assS'CITo2Mu_Lam10TeVConLL_dimuon_Moriond2017_BE'
p146
(dp147
g3
(lp148
F223.9360081531279
aF9.500800195015364
asg5
(lp149
F141.54396202000135
aF6.005201722821245
asg7
(lp150
F170.1847216237263
aF7.220326242868904
asg9
(lp151
F255.11680277199974
aF10.823689274082723
asg11
(lp152
F64.02593936149823
aF2.7163905536612454
assS'CITo2Mu_Lam34TeVConLL_dimuon_Moriond2017_BB'
p153
(dp154
g3
(lp155
F7.8027313139397165
aF0.33104185343180365
asg5
(lp156
F5.399233245638925
aF0.2290700664719482
asg7
(lp157
F3.3086831833838843
aF0.1403755389461183
asg9
(lp158
F5.754976093640977
aF0.24416295728280016
asg11
(lp159
F1.2245162409831902
aF0.05195182426033647
assS'CITo2Mu_Lam16TeVDesLR_dimuon_Moriond2017_BB'
p160
(dp161
g3
(lp162
F-17.97288397530218
aF-0.7625248881849124
asg5
(lp163
F-37.43266522973852
aF-1.5881334853100402
asg7
(lp164
F14.422840316345514
aF0.6119092914995187
asg9
(lp165
F-1.6048926608197291
aF-0.06808982901252913
asg11
(lp166
F17.423619055241907
aF0.739221551206362
assS'CITo2Mu_Lam22TeVConLR_dimuon_Moriond2017_BB'
p167
(dp168
g3
(lp169
F58.37703260397677
aF2.4767277371892096
asg5
(lp170
F58.02777504933249
aF2.461909994073033
asg7
(lp171
F9.109452769440388
aF0.3864813495701924
asg9
(lp172
F24.35010463471528
aF1.0330874465885493
asg11
(lp173
F6.46574977457524
aF0.27431853066345263
assS'CITo2Mu_Lam22TeVConLR_dimuon_Moriond2017_BE'
p174
(dp175
g3
(lp176
F112.34119472727764
aF4.7662332358953865
asg5
(lp177
F121.1455372013047
aF5.139769851931783
asg7
(lp178
F13.729351953214689
aF0.5824870720448927
asg9
(lp179
F47.805611574905924
aF2.028220327403165
asg11
(lp180
F5.384622413101452
aF0.2284501813459865
assS'CITo2Mu_Lam22TeVDesRR_dimuon_Moriond2017_BE'
p181
(dp182
g3
(lp183
F-17.888446327937004
aF-0.7589425022025511
asg5
(lp184
F-10.554058205270849
aF-0.44777076755907247
asg7
(lp185
F-1.8400616381578416
aF-0.07806720372855823
asg9
(lp186
F-13.538219076252062
aF-0.5743779908404146
asg11
(lp187
F0.8964196823537547
aF0.03803186617088585
assS'CITo2Mu_Lam22TeVDesLR_dimuon_Moriond2017_BB'
p188
(dp189
g3
(lp190
F43.16576014775353
aF1.831368102932913
asg5
(lp191
F49.3620111285104
aF2.094252768118532
asg7
(lp192
F-3.8129957185988204
aF-0.16177170775538993
asg9
(lp193
F2.4676877039854332
aF0.1046951225603257
asg11
(lp194
F3.123571603021955
aF0.13252191972111355
assS'CITo2Mu_Lam22TeVDesLR_dimuon_Moriond2017_BE'
p195
(dp196
g3
(lp197
F50.50533237499076
aF2.1427597805061867
asg5
(lp198
F66.38457388055235
aF2.8164589414270758
asg7
(lp199
F-4.812888405528632
aF-0.20419356171860437
asg9
(lp200
F-1.8584463965866007
aF-0.07884720296988536
asg11
(lp201
F2.246337561463163
aF0.09530403135267934
assS'CITo2Mu_Lam22TeVDesRR_dimuon_Moriond2017_BB'
p202
(dp203
g3
(lp204
F-8.635112833450592
aF-0.3663568104506338
asg5
(lp205
F-12.728948185817103
aF-0.5400435347738085
asg7
(lp206
F-0.5941497350095659
aF-0.02520763839992726
asg9
(lp207
F-5.653244641271101
aF-0.23984685729295843
asg11
(lp208
F1.5425715016504258
aF0.0654457661569279
assS'CITo2Mu_Lam10TeVDesRR_dimuon_Moriond2017_BE'
p209
(dp210
g3
(lp211
F-91.13772205698695
aF-3.8666460773034155
asg5
(lp212
F-164.75518642683255
aF-6.989970573484028
asg7
(lp213
F86.75491211315826
aF3.6806991993874294
asg9
(lp214
F50.988705133734584
aF2.1632675498391034
asg11
(lp215
F49.52464806310453
aF2.101152868877906
assS'CITo2Mu_Lam16TeVDesRR_dimuon_Moriond2017_BE'
p216
(dp217
g3
(lp218
F-49.58443940449342
aF-2.1036896006550454
asg5
(lp219
F-20.661299024405935
aF-0.8765846788968261
asg7
(lp220
F3.9149129075739992
aF0.16609568788201912
asg9
(lp221
F-25.030946726819536
aF-1.0619731302031987
asg11
(lp222
F5.366453437390289
aF0.22767933699003187
assS'CITo2Mu_Lam22TeVConRR_dimuon_Moriond2017_BE'
p223
(dp224
g3
(lp225
F45.728638724149505
aF1.9401018321765522
asg5
(lp226
F42.50906824170829
aF1.8035070249380185
asg7
(lp227
F16.040385963554982
aF0.6805359412607545
asg9
(lp228
F34.139127930377754
aF1.4484005318019106
asg11
(lp229
F3.8770588673434614
aF0.1644896769694798
assS'CITo2Mu_Lam34TeVDesRR_dimuon_Moriond2017_BE'
p230
(dp231
g3
(lp232
F6.424659669675975
aF0.2725752251546164
asg5
(lp233
F13.851753043775489
aF0.5876801105145029
asg7
(lp234
F-1.2582620771691495
aF-0.0533835388365706
asg9
(lp235
F-1.9709330388897683
aF-0.08361960702381388
asg11
(lp236
F-0.20464174467186025
aF-0.008682213922279105
assS'CITo2Mu_Lam34TeVDesRR_dimuon_Moriond2017_BB'
p237
(dp238
g3
(lp239
F13.516934774400397
aF0.5734749743900867
asg5
(lp240
F18.815955147751765
aF0.798293368768632
asg7
(lp241
F-1.6067183990839524
aF-0.06816728852696738
asg9
(lp242
F0.20856112888810685
aF0.008848499311722114
asg11
(lp243
F-0.15246792642438534
aF-0.006468666281288069
assS'CITo2Mu_Lam22TeVConRR_dimuon_Moriond2017_BB'
p244
(dp245
g3
(lp246
F20.01481873754574
aF0.84915684321229
asg5
(lp247
F26.056726533064648
aF1.105493281623207
asg7
(lp248
F11.207078005150748
aF0.475476051283722
asg9
(lp249
F15.657213580526161
aF0.6642793138365691
asg11
(lp250
F4.819128886781978
aF0.20445832291533086
assS'CITo2Mu_Lam10TeVDesLL_dimuon_Moriond2017_BB'
p251
(dp252
g3
(lp253
F23.964063337036293
aF1.0167091014241374
asg5
(lp254
F-1.692981075358034
aF-0.07182710392836957
asg7
(lp255
F75.82221335985369
aF3.216864073879547
asg9
(lp256
F55.49265542621379
aF2.354353977475454
asg11
(lp257
F62.23116534252414
aF2.640244740890405
assS'CITo2Mu_Lam28TeVDesRR_dimuon_Moriond2017_BE'
p258
(dp259
g3
(lp260
F-2.8871986358544746
aF-0.12249346404271491
asg5
(lp261
F11.531318830943292
aF0.489232424483048
asg7
(lp262
F-2.4296884818578235
aF-0.1030829521015509
asg9
(lp263
F-7.169702659818881
aF-0.30418472219094944
asg11
(lp264
F-0.09063718138705479
aF-0.0038454099351852944
assS'CITo2Mu_Lam28TeVConLL_dimuon_Moriond2017_BB'
p265
(dp266
g3
(lp267
F15.254928943119921
aF0.6472118221319417
asg5
(lp268
F23.656552712621306
aF1.0036625305554925
asg7
(lp269
F5.043505966059598
aF0.2139778361733331
asg9
(lp270
F8.221958984795918
aF0.3488281771672114
asg11
(lp271
F2.1349959689450895
aF0.090580207646821
assS'CITo2Mu_Lam28TeVConLL_dimuon_Moriond2017_BE'
p272
(dp273
g3
(lp274
F56.258942320270194
aF2.386864777022754
asg5
(lp275
F80.66474767621662
aF3.4223154050732747
asg7
(lp276
F7.351130369619376
aF0.31188204802465397
asg9
(lp277
F22.309736968847574
aF0.9465219778296199
asg11
(lp278
F1.8926189110580842
aF0.08029701997266424
assS'CITo2Mu_Lam34TeVDesLL_dimuon_Moriond2017_BE'
p279
(dp280
g3
(lp281
F23.56182274629373
aF0.9996434784611843
asg5
(lp282
F44.28992816498726
aF1.8790625126236533
asg7
(lp283
F-11.731488632572514
aF-0.4977249099302954
asg9
(lp284
F-10.413384136017157
aF-0.44180247226068897
asg11
(lp285
F-1.4514429839055913
aF-0.06157951058551684
assS'CITo2Mu_Lam28TeVDesLL_dimuon_Moriond2017_BE'
p286
(dp287
g3
(lp288
F21.862701465925625
aF0.927555867696785
asg5
(lp289
F38.734655294662616
aF1.6433722455467608
asg7
(lp290
F-13.212141903568934
aF-0.560543708040752
asg9
(lp291
F-15.565126106114349
aF-0.6603723731794331
asg11
(lp292
F-1.2179979528405371
aF-0.051675276715492595
assS'CITo2Mu_Lam16TeVDesRR_dimuon_Moriond2017_BB'
p293
(dp294
g3
(lp295
F-23.075674566200348
aF-0.9790179579728526
asg5
(lp296
F-15.112549951120286
aF-0.641171193087455
asg7
(lp297
F6.442704551543713
aF0.27334080465467964
asg9
(lp298
F-8.76572944397526
aF-0.37189840391288953
asg11
(lp299
F7.401747331610752
aF0.31402954384868376
assS'CITo2Mu_Lam10TeVDesLL_dimuon_Moriond2017_BE'
p300
(dp301
g3
(lp302
F-54.68877000507041
aF-2.3202480075202048
asg5
(lp303
F-102.84715590543806
aF-4.36343528198912
asg7
(lp304
F76.47505556894845
aF3.2445618230652897
asg9
(lp305
F44.20310794873859
aF1.8753790428044423
asg11
(lp306
F48.88689593166103
aF2.0740953374663134
assS'CITo2Mu_Lam16TeVDesLL_dimuon_Moriond2017_BB'
p307
(dp308
g3
(lp309
F22.880388428475555
aF0.9707326688374368
asg5
(lp310
F40.11675623208737
aF1.7020098222550002
asg7
(lp311
F-2.0065676288565797
aF-0.08513145463643394
asg9
(lp312
F-7.037241068437936
aF-0.2985648528202158
asg11
(lp313
F6.7320081391387
aF0.28561491637128034
assS'CITo2Mu_Lam34TeVConLR_dimuon_Moriond2017_BB'
p314
(dp315
g3
(lp316
F47.726068436777496
aF2.024845597861117
asg5
(lp317
F48.59494768616719
aF2.061709022417661
asg7
(lp318
F-2.6636559011707064
aF-0.11300934902792226
asg9
(lp319
F10.504642826541925
aF0.44567425059542504
asg11
(lp320
F0.6669748202733272
aF0.028297345097756908
assS'CITo2Mu_Lam28TeVDesLL_dimuon_Moriond2017_BB'
p321
(dp322
g3
(lp323
F52.127105413077174
aF2.2115657832727718
asg5
(lp324
F81.51446115627186
aF3.4583656949020356
asg7
(lp325
F-10.199414971226659
aF-0.432724529417398
asg9
(lp326
F-1.060667579670337
aF-0.04500031429017708
asg11
(lp327
F-1.073324726413344
aF-0.04553731154772429
assS'CITo2Mu_Lam28TeVDesRR_dimuon_Moriond2017_BB'
p328
(dp329
g3
(lp330
F-5.5517896785099765
aF-0.23554248776375322
asg5
(lp331
F-4.710601815672703
aF-0.19985390923990992
asg7
(lp332
F-1.3500478734513308
aF-0.05727768037463484
asg9
(lp333
F-3.563004499969054
aF-0.15116547859957813
asg11
(lp334
F0.23546683446856465
aF0.009990011723835141
assS'CITo2Mu_Lam34TeVConLR_dimuon_Moriond2017_BE'
p335
(dp336
g3
(lp337
F82.05473996644298
aF3.4812877835262395
asg5
(lp338
F88.09760363244072
aF3.7376647760870076
asg7
(lp339
F-0.6720845868147407
aF-0.028514134132059724
asg9
(lp340
F23.556410447797134
aF0.9994138540830595
asg11
(lp341
F0.45008316984666275
aF0.019095411689790714
assS'CITo2Mu_Lam16TeVDesLL_dimuon_Moriond2017_BE'
p342
(dp343
g3
(lp344
F-22.808455831391825
aF-0.9676808272062608
asg5
(lp345
F16.35443462835633
aF0.6938598976909713
asg7
(lp346
F-6.685800680577344
aF-0.2836544999338725
asg9
(lp347
F-33.94872832581797
aF-1.4403225607107428
asg11
(lp348
F4.581984815531854
aF0.19439715206138197
assS'CITo2Mu_Lam34TeVDesLL_dimuon_Moriond2017_BB'
p349
(dp350
g3
(lp351
F53.09639705836992
aF2.2526893449928096
asg5
(lp352
F71.94872693060904
aF3.0525259626223695
asg7
(lp353
F-10.374916093188737
aF-0.44017041142411195
asg9
(lp354
F1.1847565333795842
aF0.050264962728466214
asg11
(lp355
F-1.412326983084407
aF-0.059919959219503355
assS'CITo2Mu_Lam34TeVConRR_dimuon_Moriond2017_BE'
p356
(dp357
g3
(lp358
F32.69197916067367
aF1.3870032092952989
asg5
(lp359
F34.28954055865847
aF1.4547819991679138
asg7
(lp360
F6.3757650420822
aF0.27050080179050745
asg9
(lp361
F20.228667522309422
aF0.8582296787635841
asg11
(lp362
F0.9625602243479396
aF0.04083797171621236
assS'CITo2Mu_Lam34TeVConRR_dimuon_Moriond2017_BB'
p363
(dp364
g3
(lp365
F10.6969861548302
aF0.4538346869003428
asg5
(lp366
F13.75323014504454
aF0.5835001379268143
asg7
(lp367
F3.462992334390286
aF0.14692232177066422
asg9
(lp368
F6.801323268713077
aF0.2885557082609323
asg11
(lp369
F1.0193378817569716
aF0.04324684371064115
assS'CITo2Mu_Lam10TeVConRR_dimuon_Moriond2017_BB'
p370
(dp371
g3
(lp372
F88.3934945416517
aF3.75021836419068
asg5
(lp373
F34.00694337244636
aF1.4427924159650245
asg7
(lp374
F137.51277636335047
aF5.8341729999788585
asg9
(lp375
F141.92618812255483
aF6.02141820296497
asg11
(lp376
F79.45760565883164
aF3.371100706692387
assS'CITo2Mu_Lam16TeVConLL_dimuon_Moriond2017_BE'
p377
(dp378
g3
(lp379
F64.8175289116748
aF2.749974853992021
asg5
(lp380
F68.74025350824172
aF2.916401963769605
asg7
(lp381
F35.44972017005647
aF1.5040042514047478
asg9
(lp382
F58.49718192441679
aF2.481825241143495
asg11
(lp383
F11.756695160688649
aF0.49879433234796067
assS'CITo2Mu_Lam16TeVConLL_dimuon_Moriond2017_BB'
p384
(dp385
g3
(lp386
F33.514473327194764
aF1.4218986814533057
asg5
(lp387
F31.412009816519458
aF1.3326987091175584
asg7
(lp388
F27.03870341915249
aF1.147155032530477
asg9
(lp389
F33.573896834268396
aF1.4244198073421246
asg11
(lp390
F13.967082606451289
aF0.5925731294648632
assS'CITo2Mu_Lam10TeVConRR_dimuon_Moriond2017_BE'
p391
(dp392
g3
(lp393
F205.2641858912301
aF8.708621866705492
asg5
(lp394
F122.9779870140485
aF5.217514113258293
asg7
(lp395
F168.53553971678417
aF7.150357380280368
asg9
(lp396
F247.7781706108301
aF10.512337480134917
asg11
(lp397
F63.98283195531726
aF2.71456166130745
assS'CITo2Mu_Lam10TeVConLL_dimuon_Moriond2017_BB'
p398
(dp399
g3
(lp400
F72.08109368070825
aF3.0581418082182963
asg5
(lp401
F25.548177864182207
aF1.0839173888833973
asg7
(lp402
F131.85613000632975
aF5.594181820109447
asg9
(lp403
F128.65543541306562
aF5.458387849025195
asg11
(lp404
F79.8908828326295
aF3.3894831003559354
assS'CITo2Mu_Lam16TeVDesLR_dimuon_Moriond2017_BE'
p405
(dp406
g3
(lp407
F-45.542596753757834
aF-1.9322087398455967
asg5
(lp408
F-76.5310609569085
aF-3.246937930441862
asg7
(lp409
F15.628395533976999
aF0.6630566676684414
asg9
(lp410
F-6.727000045125749
aF-0.2854024409370377
asg11
(lp411
F13.547227792451933
aF0.5747601982992975
assS'CITo2Mu_Lam22TeVDesLL_dimuon_Moriond2017_BE'
p412
(dp413
g3
(lp414
F15.442988402366382
aF0.6551905092659086
asg5
(lp415
F52.96151136473486
aF2.2469666296735453
asg7
(lp416
F-13.129318503698677
aF-0.557029808779401
asg9
(lp417
F-23.70158807537956
aF-1.005573219179466
asg11
(lp418
F-0.27811688533797607
aF-0.011799500135097863
assS'CITo2Mu_Lam22TeVDesLL_dimuon_Moriond2017_BB'
p419
(dp420
g3
(lp421
F33.440587720234646
aF1.4187639806304906
asg5
(lp422
F49.983038104711454
aF2.1206007112888243
asg7
(lp423
F-9.40988013287862
aF-0.3992274031266626
asg9
(lp424
F-5.8563503190428605
aF-0.24846390141595248
asg11
(lp425
F0.2605511028793357
aF0.011054247101496724
ass.