(dp0
S'CITo2Mu_Lam10TeVConLL_dimuon_BE'
p1
(dp2
S'2900'
p3
(lp4
F15.978448626695316
aF0.3886183780436022
asS'1300'
p5
(lp6
F174.2104420075737
aF1.3287441277533492
asS'600'
p7
(lp8
F587.3118980718161
aF4.234734382885682
asS'700'
p9
(lp10
F492.4488301738658
aF3.4594720033655664
asS'1200'
p11
(lp12
F205.03245271704975
aF1.5206083671695174
asS'3000'
p13
(lp14
F13.67397372473926
aF0.3718581625123209
asS'2800'
p15
(lp16
F18.627438259448045
aF0.40498482451168466
asS'1900'
p17
(lp18
F69.98799207885467
aF0.6772905446004905
asS'2200'
p19
(lp20
F45.23667254403469
aF0.5361290039912772
asS'2300'
p21
(lp22
F39.113899899371646
aF0.5049358444437341
asS'3100'
p23
(lp24
F11.670862493475925
aF0.3544006381927307
asS'1500'
p25
(lp26
F127.22196768272745
aF1.0350106149138254
asS'3300'
p27
(lp28
F8.42362265587971
aF0.31689065554831836
asS'2400'
p29
(lp30
F33.80073285518809
aF0.4792142199158218
asS'400'
p31
(lp32
F806.3178945466557
aF6.655698609630203
asS'1400'
p33
(lp34
F148.61491378749514
aF1.169091508660172
asS'500'
p35
(lp36
F691.4310119082859
aF5.245623408358333
asS'2500'
p37
(lp38
F29.183432428969567
aF0.4575514242159713
asS'2600'
p39
(lp40
F25.16686718171051
aF0.4386615605455532
asS'2700'
p41
(lp42
F21.670876579387993
aF0.4214383917162245
asS'3400'
p43
(lp44
F7.118194604564924
aF0.2968550305512217
asS'1700'
p45
(lp46
F94.00519686310194
aF0.8259800095251298
asS'900'
p47
(lp48
F343.4017317556499
aF2.4035866330191094
asS'800'
p49
(lp50
F411.0581672767148
aF2.8642089321035806
asS'1800'
p51
(lp52
F81.05583807401162
aF0.745131516154531
asS'3500'
p53
(lp54
F5.990230252421123
aF0.27610345601111336
asS'1600'
p55
(lp56
F109.2286483342013
aF0.9217726638973959
asS'3200'
p57
(lp58
F9.931640621561924
aF0.33609044358813556
asS'2000'
p59
(lp60
F60.48860120893404
aF0.6208330851926087
asS'1100'
p61
(lp62
F242.37826765178454
aF1.7540304428613398
asS'2100'
p63
(lp64
F52.30609272627466
aF0.5742680246114548
asS'1000'
p65
(lp66
F287.8612659155941
aF2.042176401163938
assS'CITo2Mu_Lam10TeVConLR_dimuon_BE'
p67
(dp68
S'2900'
p69
(lp70
F29.10308556951363
aF1.8864972121815629
asS'1300'
p71
(lp72
F309.35543689113183
aF2.8247875434475085
asS'600'
p73
(lp74
F1010.4422085901327
aF7.4545342776302865
asS'700'
p75
(lp76
F835.836115525607
aF6.113328693924712
asS'1200'
p77
(lp78
F359.97847125606916
aF3.0955722207201513
asS'3000'
p79
(lp80
F24.725892264850646
aF1.8024768115825636
asS'2800'
p81
(lp82
F34.151122339498514
aF1.9615255100166746
asS'1900'
p83
(lp84
F130.20743692068734
aF2.218302971566886
asS'2200'
p85
(lp86
F84.62453705322446
aF2.1911091224346406
asS'2300'
p87
(lp88
F73.12026801937508
aF2.177423515261624
asS'3100'
p89
(lp90
F20.938829885467676
aF1.710746744813947
asS'1500'
p91
(lp92
F230.57563793060683
aF2.4627083025616026
asS'3300'
p93
(lp94
F14.856351454157341
aF1.509834084057088
asS'2400'
p95
(lp96
F63.070740030282565
aF2.1555097847998863
asS'400'
p97
(lp98
F1479.8958384313974
aF12.3159294034544
asS'1400'
p99
(lp100
F266.74301187333197
aF2.616722790724916
asS'500'
p101
(lp102
F1225.4291021650752
aF9.39603483142037
asS'2500'
p103
(lp104
F54.29469266426589
aF2.1235471820365697
asS'2600'
p105
(lp106
F46.636443353583786
aF2.0806093924018048
asS'2700'
p107
(lp108
F39.96114143895091
aF2.026486188964958
asS'3400'
p109
(lp110
F12.440468313099574
aF1.4035643842038448
asS'1700'
p111
(lp112
F173.08204368511952
aF2.283752588097699
asS'900'
p113
(lp114
F584.470651171782
aF4.429980216126972
asS'800'
p115
(lp116
F696.2219227592627
aF5.1495602996154535
asS'1800'
p117
(lp118
F150.11989149552338
aF2.2412819421595422
asS'3500'
p119
(lp120
F10.372105787932648
aF1.2953050122820549
asS'1600'
p121
(lp122
F199.66151613853495
aF2.354573006589654
asS'3200'
p123
(lp124
F17.67022978402275
aF1.612712833955977
asS'2000'
p125
(lp126
F112.88956264238095
aF2.2066832273303048
asS'1100'
p127
(lp128
F420.6913438740796
aF3.440245057544597
asS'2100'
p129
(lp130
F97.79660832282151
aF2.199472183938623
asS'1000'
p131
(lp132
F494.2776248963173
aF3.875771427278561
assS'CITo2Mu_Lam10TeVConLR_dimuon_BB'
p133
(dp134
S'2900'
p135
(lp136
F47.16031705450332
aF2.6852401806463617
asS'1300'
p137
(lp138
F331.2482707917112
aF3.051314659682219
asS'600'
p139
(lp140
F755.4291740346991
aF6.358415626588593
asS'700'
p141
(lp142
F660.5086088758674
aF5.3076265049057305
asS'1200'
p143
(lp144
F369.40560488058765
aF3.2214723585034704
asS'3000'
p145
(lp146
F40.98382868301458
aF2.6291040715457847
asS'2800'
p147
(lp148
F54.148990896376056
aF2.7269510209514034
asS'1900'
p149
(lp150
F169.49789407232092
aF2.6663803287830685
asS'2200'
p151
(lp152
F118.30640900565369
aF2.7166179914954975
asS'2300'
p153
(lp154
F104.4626511882532
aF2.739453154590855
asS'3100'
p155
(lp156
F35.538398252919514
aF2.5590179620775464
asS'1500'
p157
(lp158
F266.24293365569713
aF2.817224944843542
asS'3300'
p159
(lp160
F26.542509939669117
aF2.380445427096103
asS'2400'
p161
(lp162
F92.0225913457883
aF2.7577882358945365
asS'400'
p163
(lp164
F1015.7800393247269
aF10.497032732125984
asS'1400'
p165
(lp166
F297.0522199051634
aF2.918409996776823
asS'500'
p167
(lp168
F872.7633722072711
aF7.966995582038673
asS'2500'
p169
(lp170
F80.87452864618096
aF2.768058025819905
asS'2600'
p171
(lp172
F70.91259387109864
aF2.7675089613525024
asS'2700'
p173
(lp174
F62.036048677143654
aF2.754201024561687
asS'3400'
p175
(lp176
F22.85641914447206
aF2.274173611828881
asS'1700'
p177
(lp178
F213.14595987267253
aF2.6969585460503485
asS'900'
p179
(lp180
F517.0190898026656
aF4.088575165566263
asS'800'
p181
(lp182
F582.4919025427049
aF4.593463599825229
asS'1800'
p183
(lp184
F190.2557272699568
aF2.6721908017559364
asS'3500'
p185
(lp186
F19.630169906052984
aF2.1582257714933872
asS'1600'
p187
(lp188
F238.3861592025682
aF2.744319475882001
asS'3200'
p189
(lp190
F30.748134872423158
aF2.475786749934557
asS'2000'
p191
(lp192
F150.6896233789624
aF2.675142765115405
asS'1100'
p193
(lp194
F412.3006728686428
aF3.4384306074979967
asS'2100'
p195
(lp196
F133.67269660210872
aF2.6935733338971026
asS'1000'
p197
(lp198
F461.0039605682878
aF3.7184474214553638
assS'CITo2Mu_Lam10TeVConLL_dimuon_BB'
p199
(dp200
S'2900'
p201
(lp202
F25.98573429424821
aF0.5154999830276488
asS'1300'
p203
(lp204
F178.44661587577673
aF1.3083336806139112
asS'600'
p205
(lp206
F388.5432596711346
aF3.2634739973985414
asS'700'
p207
(lp208
F352.27573015904505
aF2.7752864773506505
asS'1200'
p209
(lp210
F199.82867385982863
aF1.4484794716439007
asS'3000'
p211
(lp212
F22.62406201759486
aF0.49922430072085644
asS'2800'
p213
(lp214
F29.760200630836263
aF0.5310232721881485
asS'1900'
p215
(lp216
F90.53783786259392
aF0.7861699856140547
asS'2200'
p217
(lp218
F63.649481985778316
aF0.6554610848126974
asS'2300'
p219
(lp220
F56.39458559916872
aF0.6256106994752572
asS'3100'
p221
(lp222
F19.637045905772673
aF0.48175243351879965
asS'1500'
p223
(lp224
F142.49303261405532
aF1.0848640894157302
asS'3300'
p225
(lp226
F14.647980067897263
aF0.4422718925516082
asS'2400'
p227
(lp228
F49.86283845662071
aF0.6009589703160209
asS'400'
p229
(lp230
F434.9442342979494
aF4.479956362684909
asS'1400'
p231
(lp232
F159.43994440880948
aF1.188562416443454
asS'500'
p233
(lp234
F417.9479140552769
aF3.83369579371073
asS'2500'
p235
(lp236
F43.98926535542799
aF0.5803298885643692
asS'2600'
p237
(lp238
F38.71550213530616
aF0.5625285724320022
asS'2700'
p239
(lp240
F33.98861352445921
aF0.5464253591936707
asS'3400'
p241
(lp242
F12.582662552710268
aF0.42012676738910787
asS'1700'
p243
(lp244
F113.74587466475094
aF0.915154589669477
asS'900'
p245
(lp246
F281.75678443415336
aF2.0674597996281876
asS'800'
p247
(lp248
F315.74160426026356
aF2.3807830821745544
asS'1800'
p249
(lp250
F101.53193767677374
aF0.8460356856153095
asS'3500'
p251
(lp252
F10.76519869765861
aF0.3964589428432068
asS'1600'
p253
(lp254
F127.33685784265205
aF0.9943565118966192
asS'3200'
p255
(lp256
F16.989297221151084
aF0.4628108495504177
asS'2000'
p257
(lp258
F80.63143211631088
aF0.7349026984441638
asS'1100'
p259
(lp260
F223.9423314106113
aF1.6152563962371844
asS'2100'
p261
(lp262
F71.70066290400725
aF0.6915853385091152
asS'1000'
p263
(lp264
F251.1547046489206
aF1.8175304878029312
assS'CITo2Mu_Lam28TeVConRR_dimuon_BB'
p265
(dp266
S'2900'
p267
(lp268
F0.5487639765781475
aF0.03848469436979395
asS'1300'
p269
(lp270
F5.8422109651297305
aF0.059578444963387364
asS'600'
p271
(lp272
F24.262236876760028
aF0.2257283274911975
asS'700'
p273
(lp274
F18.59449318337471
aF0.16414369799211273
asS'1200'
p275
(lp276
F6.886443361064629
aF0.06529635224134692
asS'3000'
p277
(lp278
F0.4687227658295052
aF0.03677146599949253
asS'2800'
p279
(lp280
F0.6405116826096853
aF0.040023242064456094
asS'1900'
p281
(lp282
F2.377393549341772
aF0.04707305507474241
asS'2200'
p283
(lp284
F1.5482527984579793
aF0.04551142760621468
asS'2300'
p285
(lp286
F1.341280261062717
aF0.04496729770798974
asS'3100'
p287
(lp288
F0.39899297569619335
aF0.03490081427486671
asS'1500'
p289
(lp290
F4.275260107890466
aF0.052529839009280016
asS'3300'
p291
(lp292
F0.28573816180503325
aF0.030776804149208935
asS'2400'
p293
(lp294
F1.160866488254043
aF0.04431331759109826
asS'400'
p295
(lp296
F48.93885076070683
aF0.5480064141757531
asS'1400'
p297
(lp298
F4.986006790315546
aF0.055478592748897715
asS'500'
p299
(lp300
F33.1998458499088
aF0.33387526546707563
asS'2500'
p301
(lp302
F1.003385234692163
aF0.04351163019854887
asS'2600'
p303
(lp304
F0.8658055312120135
aF0.042536997026003144
asS'2700'
p305
(lp306
F0.7455718313965635
aF0.04137552053823595
asS'3400'
p307
(lp308
F0.2401954065681967
aF0.028574897116678852
asS'1700'
p309
(lp310
F3.17501305754001
aF0.048909325817809116
asS'900'
p311
(lp312
F11.915201361412528
aF0.1014439876172055
asS'800'
p313
(lp314
F14.716354157267688
aF0.1261516746116989
asS'1800'
p315
(lp316
F2.745496936922489
aF0.04784102366708404
asS'3500'
p317
(lp318
F0.20088816387763636
aF0.02631630006271843
asS'1600'
p319
(lp320
F3.679192521689571
aF0.050415290001942836
asS'3200'
p321
(lp322
F0.33835528945200866
aF0.03289434947628663
asS'2000'
p323
(lp324
F2.06034962304222
aF0.046490764370622065
asS'1100'
p325
(lp326
F8.179278989236373
aF0.073340865523416
asS'2100'
p327
(lp328
F1.7861627642360678
aF0.045997246122305366
asS'1000'
p329
(lp330
F9.809903039094976
aF0.08480886500917355
assS'CITo2Mu_Lam28TeVConRR_dimuon_BE'
p331
(dp332
S'2900'
p333
(lp334
F0.3132839565487775
aF0.026899874747057954
asS'1300'
p335
(lp336
F6.451411896716415
aF0.06264176512016904
asS'600'
p337
(lp338
F44.85723803897463
aF0.3530932482282593
asS'700'
p339
(lp340
F31.314946239945414
aF0.2435236818733224
asS'1200'
p341
(lp342
F8.052573815301635
aF0.07248211007103725
asS'3000'
p343
(lp344
F0.2590164602957068
aF0.02494864408274847
asS'2800'
p345
(lp346
F0.37787995297249855
aF0.02878966402879074
asS'1900'
p347
(lp348
F1.9592701077802306
aF0.041259052221367665
asS'2200'
p349
(lp350
F1.1293784784152272
aF0.03782835277236573
asS'2300'
p351
(lp352
F0.9420274959394509
aF0.036627229863455846
asS'3100'
p353
(lp354
F0.21345109066618917
aF0.02296116902860238
asS'1500'
p355
(lp356
F4.245876474145289
aF0.05061122510216794
asS'3300'
p357
(lp358
F0.14323626894593025
aF0.01897846937242322
asS'2400'
p359
(lp360
F0.7859398259401023
aF0.03531265137321799
asS'400'
p361
(lp362
F97.8549229405362
aF0.8517058368755377
asS'1400'
p363
(lp364
F5.214922948582508
aF0.05561499595772226
asS'500'
p365
(lp366
F66.56904845974532
aF0.5417533770359695
asS'2500'
p367
(lp368
F0.6555357844697174
aF0.03386825593588557
asS'2600'
p369
(lp370
F0.5463472605285535
aF0.032292451979942224
asS'2700'
p371
(lp372
F0.45477065800331007
aF0.030594183388899784
asS'3400'
p373
(lp374
F0.1165038558188487
aF0.01703132361024192
asS'1700'
p375
(lp376
F2.861505707749343
aF0.044529286840282734
asS'900'
p377
(lp378
F16.980886180747518
aF0.13438957667336265
asS'800'
p379
(lp380
F22.700836247875884
aF0.1769777501680108
asS'1800'
p381
(lp382
F2.3640532770724922
aF0.042682283123493314
asS'3500'
p383
(lp384
F0.09423405856190685
aF0.015142822219333602
asS'1600'
p385
(lp386
F3.47725678158913
aF0.04706019842919168
asS'3200'
p387
(lp388
F0.17523489852609864
aF0.020962865805847723
asS'2000'
p389
(lp390
F1.6278422666525012
aF0.04006331731639991
asS'1100'
p391
(lp392
F10.164501719476917
aF0.08630252662129141
asS'2100'
p393
(lp394
F1.355013926314882
aF0.038952562059026634
asS'1000'
p395
(lp396
F13.015836220779008
aF0.10593016190725539
assS'CITo2Mu_Lam22TeVConRR_dimuon_BB'
p397
(dp398
S'2900'
p399
(lp400
F1.3041754261789218
aF0.08624237551911623
asS'1300'
p401
(lp402
F12.282437216338195
aF0.12406024488544745
asS'600'
p403
(lp404
F36.81113918253294
aF0.3386802473484895
asS'700'
p405
(lp406
F31.310818328840554
aF0.27314035396657366
asS'1200'
p407
(lp408
F14.274953208178282
aF0.1342407204015605
asS'3000'
p409
(lp410
F1.125324757084005
aF0.08318978148886255
asS'2800'
p411
(lp412
F1.5075763520824703
aF0.08890633786699842
asS'1900'
p413
(lp414
F5.234217402902678
aF0.10019549768907443
asS'2200'
p415
(lp416
F3.4736293376571474
aF0.0975543237085329
asS'2300'
p417
(lp418
F3.0300327642531957
aF0.09675723642601448
asS'3100'
p419
(lp420
F0.9681603738155525
aF0.07976606465755072
asS'1500'
p421
(lp422
F9.167364668769466
aF0.11089562005898944
asS'3300'
p423
(lp424
F0.7092311001397326
aF0.07192393306358554
asS'2400'
p425
(lp426
F2.641628420314505
aF0.09579721681456692
asS'400'
p427
(lp428
F60.92025746306672
aF0.6771439290829698
asS'1400'
p429
(lp430
F10.597509882933164
aF0.11649882248395688
asS'500'
p431
(lp432
F44.29487523300395
aF0.4412469828414675
asS'2500'
p433
(lp434
F2.3009705397883096
aF0.094586905121796
asS'2600'
p435
(lp436
F2.001802702511024
aF0.09306135083416275
asS'2700'
p437
(lp438
F1.7388367698637923
aF0.0911763334491335
asS'3400'
p439
(lp440
F0.6033661729639934
aF0.06758344405896327
asS'1700'
p441
(lp442
F6.905030282638885
aF0.10380271463445706
asS'900'
p443
(lp444
F22.770142387050328
aF0.19187395325873952
asS'800'
p445
(lp446
F26.69744017940957
aF0.2262469905796052
asS'1800'
p447
(lp448
F6.008176557298528
aF0.1016857949902449
asS'3500'
p449
(lp450
F0.5108990645060306
aF0.06302413913942431
asS'1600'
p451
(lp452
F7.9484169977186765
aF0.10678018196824689
asS'3200'
p453
(lp454
F0.8301895992856001
aF0.07599885041731126
asS'2000'
p455
(lp456
F4.563865606600566
aF0.0991270248069433
asS'1100'
p457
(lp458
F16.637862846572467
aF0.1479793868836385
asS'2100'
p459
(lp460
F3.981330776668604
aF0.09829934915727764
asS'1000'
p461
(lp462
F19.44340653776409
aF0.16659173969009264
assS'CITo2Mu_Lam22TeVConRR_dimuon_BE'
p463
(dp464
S'2900'
p465
(lp466
F0.6860365831213147
aF0.055822130208522294
asS'1300'
p467
(lp468
F13.04934345786749
aF0.12607311475920824
asS'600'
p469
(lp470
F70.43729853044317
aF0.5468290489038723
asS'700'
p471
(lp472
F53.6678069646004
aF0.4114434083233158
asS'1200'
p473
(lp474
F16.1740771468887
aF0.14474459340942236
asS'3000'
p475
(lp476
F0.5713837125325727
aF0.05212067644158309
asS'2800'
p477
(lp478
F0.8215916792500687
aF0.05936782423139249
asS'1900'
p479
(lp480
F4.050385282845848
aF0.08297135449165166
asS'2200'
p481
(lp482
F2.3662376755968246
aF0.07608251265880062
asS'2300'
p483
(lp484
F1.984207499876137
aF0.07382330447262944
asS'3100'
p485
(lp486
F0.47441859585927376
aF0.048305899883724926
asS'1500'
p487
(lp488
F8.661592134932844
aF0.10241739131337484
asS'3300'
p489
(lp490
F0.3233011365532831
aF0.040519265063862324
asS'2400'
p491
(lp492
F1.6648928085181114
aF0.07139320927943972
asS'400'
p493
(lp494
F128.72010857901068
aF1.110171725451473
asS'1400'
p495
(lp496
F10.599342420529467
aF0.11239437918142374
asS'500'
p497
(lp498
F93.96914390954475
aF0.7555603764259329
asS'2500'
p499
(lp500
F1.3970837533931437
aF0.0687427129579223
asS'2600'
p501
(lp502
F1.171831338108222
aF0.0658513843434819
asS'2700'
p503
(lp504
F0.9819415957037202
aF0.06272060002838278
asS'3400'
p505
(lp506
F0.26503254298190493
aF0.03664007830651047
asS'1700'
p507
(lp508
F5.874572475370465
aF0.08989093974719149
asS'900'
p509
(lp510
F32.28858683241725
aF0.25250436205051613
asS'800'
p511
(lp512
F41.405002211226105
aF0.31845696446441624
asS'1800'
p513
(lp514
F4.869436762849055
aF0.08598314533479688
asS'3500'
p515
(lp516
F0.216070736239303
aF0.03282998258667515
asS'1600'
p517
(lp518
F7.116352707640045
aF0.09516888724795038
asS'3200'
p519
(lp520
F0.3924694075418064
aF0.04442324122315911
asS'2000'
p521
(lp522
F3.3788394422205963
aF0.0804884084605697
asS'1100'
p523
(lp524
F20.196151784782963
aF0.17018245515873798
asS'2100'
p525
(lp526
F2.825125022453647
aF0.07825854481779798
asS'1000'
p527
(lp528
F25.423737385525712
aF0.20489293535648417
assS'CITo2Mu_Lam28TeVConLR_dimuon_BB'
p529
(dp530
S'2900'
p531
(lp532
F0.8546370704500997
aF0.05364094484858448
asS'1300'
p533
(lp534
F3.186010490288208
aF0.030277640992949825
asS'600'
p535
(lp536
F43.47009949234376
aF0.3914124411456585
asS'700'
p537
(lp538
F21.886334842965198
aF0.18521503138220835
asS'1200'
p539
(lp540
F3.290533216289816
aF0.029188131610276075
asS'3000'
p541
(lp542
F0.7384655617004652
aF0.052033723942622886
asS'2800'
p543
(lp544
F0.9835615796420671
aF0.05481156381924479
asS'1900'
p545
(lp546
F2.5959335661289167
aF0.04601252708749331
asS'2200'
p547
(lp548
F2.012122215276066
aF0.05229664608272544
asS'2300'
p549
(lp550
F1.8162622097963192
aF0.0537769802374145
asS'3100'
p551
(lp552
F0.6345085786669824
aF0.050022096362613226
asS'1500'
p553
(lp554
F3.1032176932919526
aF0.03513600823071968
asS'3300'
p555
(lp556
F0.4603842834386318
aF0.044956756745756596
asS'2400'
p557
(lp558
F1.6273721853499414
aF0.05487252023767016
asS'400'
p559
(lp560
F154.77212419198577
aF1.7098575395288704
asS'1400'
p561
(lp562
F3.1472619443370675
aF0.03247109594969276
asS'500'
p563
(lp564
F86.15526258328225
aF0.8470568053461023
asS'2500'
p565
(lp566
F1.4482099255687617
aF0.05554524067761297
asS'2600'
p567
(lp568
F1.2805854978986917
aF0.05576747542101576
asS'2700'
p569
(lp570
F1.1255493432970232
aF0.055523769319972334
asS'3400'
p571
(lp572
F0.38860272137801877
aF0.04200471733510987
asS'1700'
p573
(lp574
F2.9138268292176557
aF0.040756250450461835
asS'900'
p575
(lp576
F6.674672246068411
aF0.05373379957712101
asS'800'
p577
(lp578
F11.509429455460321
aF0.09384209919504964
asS'1800'
p579
(lp580
F2.7674446547497116
aF0.04346107358291145
asS'3500'
p581
(lp582
F0.32588491286321186
aF0.03884821244554235
asS'1600'
p583
(lp584
F3.027178922339534
aF0.03795222441201812
asS'3200'
p585
(lp586
F0.5420758405225601
aF0.047647064635262325
asS'2000'
p587
(lp588
F2.407854197659095
aF0.048366139685572976
asS'1100'
p589
(lp590
F3.6212972393704064
aF0.03047411834124348
asS'2100'
p591
(lp592
F2.2110542363127976
aF0.05047682837007865
asS'1000'
p593
(lp594
F4.517270035651819
aF0.036771497653128295
assS'CITo2Mu_Lam28TeVConLR_dimuon_BE'
p595
(dp596
S'2900'
p597
(lp598
F0.6289841905615099
aF0.045668300855761526
asS'1300'
p599
(lp600
F3.1328196114214037
aF0.028809591382195236
asS'600'
p601
(lp602
F59.259270223821886
aF0.4585467179321045
asS'700'
p603
(lp604
F30.52327661610991
aF0.2322897404849459
asS'1200'
p605
(lp606
F3.587031653033705
aF0.030794414030220322
asS'3000'
p607
(lp608
F0.5379657865397898
aF0.043815299263944216
asS'2800'
p609
(lp610
F0.7302423175653165
aF0.047095688687976076
asS'1900'
p611
(lp612
F2.0291223276386248
aF0.03841264746067336
asS'2200'
p613
(lp614
F1.541787373010054
aF0.04508686784029644
asS'2300'
p615
(lp616
F1.385893781987335
aF0.04666608115884678
asS'3100'
p617
(lp618
F0.4568623412133886
aF0.041596273599936416
asS'1500'
p619
(lp620
F2.668951982647453
aF0.029690740970380113
asS'3300'
p621
(lp622
F0.32240862483591415
aF0.036328635716505964
asS'2400'
p623
(lp624
F1.2366858691813383
aF0.04778676162251468
asS'400'
p625
(lp626
F219.26311496678818
aF1.8986300135767735
asS'1400'
p627
(lp628
F2.861639444729942
aF0.028696772210408335
asS'500'
p629
(lp630
F116.64781446343659
aF0.9385987233452785
asS'2500'
p631
(lp632
F1.0956324716777113
aF0.04840240991157666
asS'2600'
p633
(lp634
F0.9637981702340055
aF0.0484898997123843
asS'2700'
p635
(lp636
F0.8418779984613429
aF0.04804810258722108
asS'3400'
p637
(lp638
F0.2678251227319008
aF0.03341947382625231
asS'1700'
p639
(lp640
F2.3485070429034556
aF0.033521940151646924
asS'900'
p641
(lp642
F9.519335342036271
aF0.07314330465576181
asS'800'
p643
(lp644
F16.426862345616286
aF0.12484643762755704
asS'1800'
p645
(lp646
F2.1904112854293087
aF0.03591896280899973
asS'3500'
p647
(lp648
F0.22075403397904741
aF0.03041744059520892
asS'1600'
p649
(lp650
F2.505234618212768
aF0.03138315809250242
asS'3200'
p651
(lp652
F0.38520305674488314
aF0.0390775159798618
asS'2000'
p653
(lp654
F1.8657421474497529
aF0.040856640824168115
asS'1100'
p655
(lp656
F4.438595976443025
aF0.03618623967775379
asS'2100'
p657
(lp658
F1.702485022632097
aF0.0431193489186602
asS'1000'
p659
(lp660
F6.122200795095253
aF0.048132322258506624
assS'CITo2Mu_Lam34TeVConLL_dimuon_BB'
p661
(dp662
S'2900'
p663
(lp664
F0.3155890558001787
aF0.006962232471288142
asS'1300'
p665
(lp666
F3.3487438362670403
aF0.024987762011884747
asS'600'
p667
(lp668
F16.6487130257633
aF0.14818825977412875
asS'700'
p669
(lp670
F12.185066085751174
aF0.10184854981860382
asS'1200'
p671
(lp672
F3.98044602352552
aF0.02955765129599654
asS'3000'
p673
(lp674
F0.27141302585265903
aF0.006686191465431469
asS'2800'
p675
(lp676
F0.36620377988886205
aF0.007229265162978346
asS'1900'
p677
(lp678
F1.3370285991361435
aF0.011809042171179998
asS'2200'
p679
(lp680
F0.8702756862921055
aF0.009365786088531699
asS'2300'
p681
(lp682
F0.7546730149378471
aF0.008848008342950174
asS'3100'
p683
(lp684
F0.23287068458834448
aF0.006395901988583757
asS'1500'
p685
(lp686
F2.4252953119150717
aF0.01863949396460533
asS'3300'
p687
(lp688
F0.16998789495702984
aF0.005763500966614384
asS'2400'
p689
(lp690
F0.6542333057788787
aF0.008427373239156072
asS'400'
p691
(lp692
F32.368937480548084
aF0.345427221202719
asS'1400'
p693
(lp694
F2.840887244943147
aF0.02144636547273367
asS'500'
p695
(lp696
F23.476871225169702
aF0.22645952216939028
asS'2500'
p697
(lp698
F0.566816493274945
aF0.008076871615310437
asS'2600'
p699
(lp700
F0.4906365835063189
aF0.0077728496820121465
asS'2700'
p701
(lp702
F0.4241904698723005
aF0.007495544786791353
asS'3400'
p703
(lp704
F0.1445111110997545
aF0.005421319762282733
asS'1700'
p705
(lp706
F1.7909725620996326
aF0.014538439510047562
asS'900'
p707
(lp708
F7.255245253916087
aF0.05589364815253476
asS'800'
p709
(lp710
F9.25343411795754
aF0.0737538572238846
asS'1800'
p711
(lp712
F1.5459408129957168
aF0.0130354096988968
asS'3500'
p713
(lp714
F0.12237048117757755
aF0.005063905923652526
asS'1600'
p715
(lp716
F2.0803989451775236
aF0.016378305004243848
asS'3200'
p717
(lp718
F0.19926454817984693
aF0.0060886025530671765
asS'2000'
p719
(lp720
F1.1579058956573918
aF0.010813397847776041
asS'1100'
p721
(lp722
F4.783899778149745
aF0.03562555256273643
asS'2100'
p723
(lp724
F1.0036306113653801
aF0.010010339957596847
asS'1000'
p725
(lp726
F5.834494015433997
aF0.04396449380698731
assS'CITo2Mu_Lam16TeVConRR_dimuon_BE'
p727
(dp728
S'2900'
p729
(lp730
F2.5803469938064847
aF0.1971911401165526
asS'1300'
p731
(lp732
F33.87740772779027
aF0.3254853375489372
asS'600'
p733
(lp734
F150.7549519696745
aF1.152554066802571
asS'700'
p735
(lp736
F119.43467812202726
aF0.9017484605660749
asS'1200'
p737
(lp738
F41.05794857017684
aF0.365680203932148
asS'3000'
p739
(lp740
F2.197058555625736
aF0.1881911968865893
asS'2800'
p741
(lp742
F3.0217681143555644
aF0.20513600079278682
asS'1900'
p743
(lp744
F12.072525010029473
aF0.2376049955351616
asS'2200'
p745
(lp746
F7.571322232150715
aF0.23072423062133302
asS'2300'
p747
(lp748
F6.50059592517651
aF0.2285841759030175
asS'3100'
p749
(lp750
F1.86423695222691
aF0.17823124210717642
asS'1500'
p751
(lp752
F23.525361368264015
aF0.27447686638365976
asS'3300'
p753
(lp754
F1.325157551701842
aF0.1559491000627927
asS'2400'
p755
(lp756
F5.584198732482233
aF0.22584438461948414
asS'400'
p757
(lp758
F265.45883476672043
aF2.264110126678168
asS'1400'
p759
(lp760
F28.14283660269992
aF0.2959048159779125
asS'500'
p761
(lp762
F193.1931172980394
aF1.532063559800961
asS'2500'
p763
(lp764
F4.796697316030997
aF0.22225799235102603
asS'2600'
p765
(lp766
F4.117649494988812
aF0.21766235632038494
asS'2700'
p767
(lp768
F3.5305054777788016
aF0.21196573575569586
asS'3400'
p769
(lp770
F1.1087273749071367
aF0.14393698918452633
asS'1700'
p771
(lp772
F16.707935090617532
aF0.24893084499671914
asS'900'
p773
(lp774
F76.34684883911603
aF0.5903793961618928
asS'800'
p775
(lp776
F95.20924783167067
aF0.7222577885833126
asS'1800'
p777
(lp778
F14.176491436690629
aF0.24204730968889518
asS'3500'
p779
(lp780
F0.9220814798000431
aF0.1315736533394555
asS'1600'
p781
(lp782
F19.776477166943124
aF0.25932147523912336
asS'3200'
p783
(lp784
F1.5754295405189012
aF0.1674350363975451
asS'2000'
p785
(lp786
F10.311603633470245
aF0.23470634470868393
asS'1100'
p787
(lp788
F50.11944845595435
aF0.4198380251816152
asS'2100'
p789
(lp790
F8.828249103429192
aF0.23261087377531742
asS'1000'
p791
(lp792
F61.634262587273454
aF0.49259225278447266
assS'CITo2Mu_Lam34TeVConLL_dimuon_BE'
p793
(dp794
S'2900'
p795
(lp796
F0.2105904961489516
aF0.0056622049791619465
asS'1300'
p797
(lp798
F3.8547615801314024
aF0.029734965952829973
asS'600'
p799
(lp800
F40.61868904703101
aF0.3015513118250712
asS'700'
p801
(lp802
F24.49796956699646
aF0.17730875093590842
asS'1200'
p803
(lp804
F4.840586863464743
aF0.03644102350585069
asS'3000'
p805
(lp806
F0.17644221977802813
aF0.005333246491387763
asS'2800'
p807
(lp808
F0.2509289183140627
aF0.0059906866776523356
asS'1900'
p809
(lp810
F1.2015162797014813
aF0.011703583247777958
asS'2200'
p811
(lp812
F0.708404192970203
aF0.008651248174023773
asS'2300'
p813
(lp814
F0.5957059819825102
aF0.00801518558122001
asS'3100'
p815
(lp816
F0.14752605696297494
aF0.005000499764034452
asS'1500'
p817
(lp818
F2.54193535334103
aF0.020787442286648607
asS'3300'
p819
(lp820
F0.10232159525531857
aF0.004321271706135934
asS'2400'
p821
(lp822
F0.5012605013630191
aF0.007496178396196407
asS'400'
p823
(lp824
F146.88361241954817
aF1.2357532753277964
asS'1400'
p825
(lp826
F3.1138373686108043
aF0.024691063222788683
asS'500'
p827
(lp828
F73.70389429450142
aF0.5738111387993587
asS'2500'
p829
(lp830
F0.42188904450020254
aF0.0070592422332531775
asS'2600'
p831
(lp832
F0.3550316863929518
aF0.0066761132473394874
asS'2700'
p833
(lp834
F0.2986108351385338
aF0.006325141785544305
asS'3400'
p835
(lp836
F0.08479944526042743
aF0.003977147834156444
asS'1700'
p837
(lp838
F1.7312330049370335
aF0.015250032077819917
asS'900'
p839
(lp840
F11.138850604256149
aF0.08001179770803517
asS'800'
p841
(lp842
F15.99273361661966
aF0.11465915393550115
asS'1800'
p843
(lp844
F1.4396701834467276
aF0.013280635774023483
asS'3500'
p845
(lp846
F0.06999988806360984
aF0.003632997968451131
asS'1600'
p847
(lp848
F2.0914956264611924
aF0.01770747791680017
asS'3200'
p849
(lp850
F0.12304252885007436
aF0.004662964347005229
asS'2000'
p851
(lp852
F1.005551345067266
aF0.0104454760909137
asS'1100'
p853
(lp854
F6.198900857652916
aF0.045710694594896975
asS'2100'
p855
(lp856
F0.8433379371931882
aF0.009445662894872047
asS'1000'
p857
(lp858
F8.156367546467095
aF0.05918295017505155
assS'CITo2Mu_Lam10TeVConRR_dimuon_BB'
p859
(dp860
S'2900'
p861
(lp862
F24.457836607236203
aF1.5147136279785993
asS'1300'
p863
(lp864
F179.6560963726661
aF1.7787653857682721
asS'600'
p865
(lp866
F408.65206324644055
aF3.604108985819798
asS'700'
p867
(lp868
F367.20950860024163
aF3.0962519587753365
asS'1200'
p869
(lp870
F202.13262978689104
aF1.8818160546035492
asS'3000'
p871
(lp872
F21.21085801935369
aF1.471834693395035
asS'2800'
p873
(lp874
F28.121682512189142
aF1.5494734810857775
asS'1900'
p875
(lp876
F88.80211834256193
aF1.5698710349917082
asS'2200'
p877
(lp878
F61.64638856708295
aF1.595186638135765
asS'2300'
p879
(lp880
F54.39214320164945
aF1.6029509252365293
asS'3100'
p881
(lp882
F18.339997750527434
aF1.4213440759120022
asS'1500'
p883
(lp884
F142.17791478047062
aF1.6433942629892786
asS'3300'
p885
(lp886
F13.579382978614172
aF1.3003404715547975
asS'2400'
p887
(lp888
F47.892792719905984
aF1.606364161778982
asS'400'
p889
(lp890
F465.05184200847066
aF4.995615896298609
asS'1400'
p891
(lp892
F159.79318685558337
aF1.7005474884485565
asS'500'
p893
(lp894
F444.1431602269387
aF4.237872027183613
asS'2500'
p895
(lp896
F42.077011407791446
aF1.6037190991831303
asS'2600'
p897
(lp898
F36.88088814606046
aF1.5937961077526674
asS'2700'
p899
(lp900
F32.24664699041374
aF1.5758324921378761
asS'3400'
p901
(lp902
F11.623217403153648
aF1.2314712877245018
asS'1700'
p903
(lp904
F112.51740450053634
aF1.581086101382502
asS'900'
p905
(lp906
F289.61086105505217
aF2.4123419387433294
asS'800'
p907
(lp908
F326.65935987611743
aF2.7071772398592038
asS'1800'
p909
(lp910
F100.00832376940467
aF1.570562432316925
asS'3500'
p911
(lp912
F9.910002376313013
aF1.15819011322344
asS'1600'
p913
(lp914
F126.50392346203424
aF1.6044459933554625
asS'3200'
p915
(lp916
F15.807703328759736
aF1.3639164673674946
asS'2000'
p917
(lp918
F78.75256831870614
aF1.5758323574282305
asS'1100'
p919
(lp920
F227.64814635112353
aF2.0153085694899215
asS'2100'
p921
(lp922
F69.7359542546305
aF1.585266834819812
asS'1000'
p923
(lp924
F256.6658931107963
aF2.1878490408382554
assS'CITo2Mu_Lam10TeVConRR_dimuon_BE'
p925
(dp926
S'2900'
p927
(lp928
F15.199999441973317
aF1.132966540859772
asS'1300'
p929
(lp930
F172.321187610601
aF1.6574271898131494
asS'600'
p931
(lp932
F576.0012074179857
aF4.327258811205114
asS'700'
p933
(lp934
F484.9910172001017
aF3.618426298151695
asS'1200'
p935
(lp936
F202.82113970229702
aF1.8180929490341933
asS'3000'
p937
(lp938
F12.928556972911316
aF1.0812220776383321
asS'2800'
p939
(lp940
F17.818979327608204
aF1.1785102240654537
asS'1900'
p941
(lp942
F68.92862151569355
aF1.3109840954460736
asS'2200'
p943
(lp944
F44.28710790155174
aF1.3041851581327655
asS'2300'
p945
(lp946
F38.18814736059266
aF1.2992380149165863
asS'3100'
p947
(lp948
F10.961408034674974
aF1.0241140203056591
asS'1500'
p949
(lp950
F125.76693636783587
aF1.446537277371999
asS'3300'
p951
(lp952
F7.793792457681289
aF0.8976399183983851
asS'2400'
p953
(lp954
F32.89672987937262
aF1.2890771997711252
asS'400'
p955
(lp956
F777.2993015253969
aF6.525616893856224
asS'1400'
p957
(lp958
F146.97161854972686
aF1.5356539784180292
asS'500'
p959
(lp960
F672.9954962064689
aF5.234894005072791
asS'2500'
p961
(lp962
F28.30089306374446
aF1.272413222652877
asS'2600'
p963
(lp964
F24.30683380290053
aF1.2485279240351728
asS'2700'
p965
(lp966
F20.835333136269494
aF1.2171792004206783
asS'3400'
p967
(lp968
F6.531226562151955
aF0.8302933008655049
asS'1700'
p969
(lp970
F92.8025366658509
aF1.344912547174508
asS'900'
p971
(lp972
F339.35099440090886
aF2.6305436732383827
asS'800'
p973
(lp974
F405.7322141925655
aF3.0639061989016683
asS'1800'
p975
(lp976
F79.93506138163694
aF1.322042685328864
asS'3500'
p977
(lp978
F5.447516365348868
aF0.7615460344469991
asS'1600'
p979
(lp980
F107.91719678815846
aF1.3846830621335515
asS'3200'
p981
(lp982
F9.260834581932384
aF0.962586123641466
asS'2000'
p983
(lp984
F59.47545716981415
aF1.3069857921041013
asS'1100'
p985
(lp986
F239.7400971508072
aF2.0257186545752695
asS'2100'
p987
(lp988
F51.32836010344574
aF1.3058713436826708
asS'1000'
p989
(lp990
F284.6416389121737
aF2.2914077421355175
assS'CITo2Mu_Lam28TeVConLL_dimuon_BB'
p991
(dp992
S'2900'
p993
(lp994
F0.5939773994886379
aF0.01275521476677194
asS'1300'
p995
(lp996
F5.5680223771497594
aF0.04135783237385655
asS'600'
p997
(lp998
F21.54724152401309
aF0.1911185024557724
asS'700'
p999
(lp1000
F16.263575236896997
aF0.13544039992181872
asS'1200'
p1001
(lp1002
F6.481790288135411
aF0.04790281469519529
asS'3000'
p1003
(lp1004
F0.5140345822084426
aF0.012302363342941401
asS'2800'
p1005
(lp1006
F0.6850354298048413
aF0.013192923110519004
asS'1900'
p1007
(lp1008
F2.371734271237748
aF0.020870846962344643
asS'2200'
p1009
(lp1010
F1.5723446025986154
aF0.01678102010167323
asS'2300'
p1011
(lp1012
F1.3713016640281612
aF0.015903741403711102
asS'3100'
p1013
(lp1014
F0.4438589353826919
aF0.011823763237207453
asS'1500'
p1015
(lp1016
F4.15446971308517
aF0.03180704939442959
asS'3300'
p1017
(lp1018
F0.32827346885391984
aF0.01076720945888715
asS'2400'
p1019
(lp1020
F1.1955720400079464
aF0.01519108716911986
asS'400'
p1021
(lp1022
F55.00872101015784
aF0.5848256149715556
asS'1400'
p1023
(lp1024
F4.802250211674668
aF0.03609962441841343
asS'500'
p1025
(lp1026
F31.544942668880708
aF0.3032115576905322
asS'2500'
p1027
(lp1028
F1.0417562068024537
aF0.014599787180256429
asS'2600'
p1029
(lp1030
F0.9069722901800962
aF0.014090921713069578
asS'2700'
p1031
(lp1032
F0.7887654919886775
aF0.013631076983888435
asS'3400'
p1033
(lp1034
F0.2809488586499347
aF0.010186139508440327
asS'1700'
p1035
(lp1036
F3.129891833037064
aF0.02532641300268333
asS'900'
p1037
(lp1038
F10.675624569296275
aF0.08188907422724086
asS'800'
p1039
(lp1040
F12.973131820686007
aF0.10299119038532066
asS'1800'
p1041
(lp1042
F2.7231010202738037
aF0.022887296291746143
asS'3500'
p1043
(lp1044
F0.23952143355111022
aF0.009571778213302209
asS'1600'
p1045
(lp1046
F3.6026239101006885
aF0.028265056938199876
asS'3200'
p1047
(lp1048
F0.3822790282768612
aF0.011313024000624042
asS'2000'
p1049
(lp1050
F2.0672714400791845
aF0.019215833457547283
asS'1100'
p1051
(lp1052
F7.586484965398128
aF0.05622673600135515
asS'2100'
p1053
(lp1054
F1.8027319714757624
aF0.017869085943241693
asS'1000'
p1055
(lp1056
F8.947842840564114
aF0.06711370799026213
assS'CITo2Mu_Lam16TeVConRR_dimuon_BB'
p1057
(dp1058
S'2900'
p1059
(lp1060
F4.0893403324219
aF0.25913998118657416
asS'1300'
p1061
(lp1062
F33.98414925112459
aF0.33963349670350607
asS'600'
p1063
(lp1064
F83.82468144394761
aF0.7607099721722103
asS'700'
p1065
(lp1066
F76.11321543883616
aF0.654446516405098
asS'1200'
p1067
(lp1068
F38.971431217573404
aF0.36377190855101776
asS'3000'
p1069
(lp1070
F3.5350153373371285
aF0.2506986011837668
asS'2800'
p1071
(lp1072
F4.714341961368224
aF0.2661401304705425
asS'1900'
p1073
(lp1074
F15.457911834110464
aF0.28382903792189756
asS'2200'
p1075
(lp1076
F10.51708929633102
aF0.2818430579294745
asS'2300'
p1077
(lp1078
F9.23944900331446
aF0.28146302594645567
asS'3100'
p1079
(lp1080
F3.04410282867683
aF0.24086541905736453
asS'1500'
p1081
(lp1082
F25.98600863298937
aF0.3076780536201037
asS'3300'
p1083
(lp1084
F2.2275781775951877
aF0.2174238848368035
asS'2400'
p1085
(lp1086
F8.10733493649459
aF0.2805373021854611
asS'400'
p1087
(lp1088
F94.61337789487357
aF1.04396775589875
asS'1400'
p1089
(lp1090
F29.68984168362736
aF0.3213455986609779
asS'500'
p1091
(lp1092
F88.67947349215626
aF0.8737006074849109
asS'2500'
p1093
(lp1094
F7.102833762512709
aF0.2787523649858914
asS'2600'
p1095
(lp1096
F6.210792624503993
aF0.27586438668055835
asS'2700'
p1097
(lp1098
F5.418313079527419
aF0.2716975116368982
asS'3400'
p1099
(lp1100
F1.8911561886920414
aF0.20409792041585983
asS'1700'
p1101
(lp1102
F20.00066992576182
aF0.29086065579460474
asS'900'
p1103
(lp1104
F59.04522806904046
aF0.4924355026474609
asS'800'
p1105
(lp1106
F67.44065172930897
aF0.564115029293725
asS'1800'
p1107
(lp1108
F17.57720493828647
aF0.2864120777819623
asS'3500'
p1109
(lp1110
F1.5963185076156685
aF0.18993201538998156
asS'1600'
p1111
(lp1112
F22.78203736292941
aF0.2977473611927489
asS'3200'
p1113
(lp1114
F2.6101911173915546
aF0.2297316255463703
asS'2000'
p1115
(lp1116
F13.598306914466846
aF0.28255581531854806
asS'1100'
p1117
(lp1118
F44.75909053764111
aF0.3955270841938028
asS'2100'
p1119
(lp1120
F11.961555567944991
aF0.2820592047263173
asS'1000'
p1121
(lp1122
F51.43992019276547
aF0.43736325202752324
assS'CITo2Mu_Lam28TeVConLL_dimuon_BE'
p1123
(dp1124
S'2900'
p1125
(lp1126
F0.3695023173905412
aF0.009692171839140328
asS'1300'
p1127
(lp1128
F6.1433548175776735
aF0.04704940435851787
asS'600'
p1129
(lp1130
F42.16606322975747
aF0.3121905566104588
asS'700'
p1131
(lp1132
F28.156642997220672
aF0.2031811024923345
asS'1200'
p1133
(lp1134
F7.5551554701629655
aF0.05650277480584813
asS'3000'
p1135
(lp1136
F0.31154140538820263
aF0.009165253356283307
asS'2800'
p1137
(lp1138
F0.4376274043364761
aF0.010219160741046611
asS'1900'
p1139
(lp1140
F2.007901208711024
aF0.019463800810636027
asS'2200'
p1141
(lp1142
F1.1985110345081051
aF0.014545709400452536
asS'2300'
p1143
(lp1144
F1.0122645252158664
aF0.013509920179581069
asS'3100'
p1145
(lp1146
F0.26219158874111503
aF0.008631763149686899
asS'1500'
p1147
(lp1148
F4.153051485827104
aF0.03371315435414029
asS'3300'
p1149
(lp1150
F0.18435660304974588
aF0.007536286987511918
asS'2400'
p1151
(lp1152
F0.8557287159277529
aF0.012662602281721044
asS'400'
p1153
(lp1154
F135.96374479992755
aF1.1412441818334054
asS'1400'
p1155
(lp1156
F5.035227302614766
aF0.03962972559957094
asS'500'
p1157
(lp1158
F70.31559113381081
aF0.5460486877783081
asS'2500'
p1159
(lp1160
F0.7237735468516109
aF0.011949433671700491
asS'2600'
p1161
(lp1162
F0.6122510666901791
aF0.011326032909001112
asS'2700'
p1163
(lp1164
F0.5177882473075797
aF0.010757813952587377
asS'3400'
p1165
(lp1166
F0.1538751007788161
aF0.006976010675618183
asS'1700'
p1167
(lp1168
F2.866773270812369
aF0.02509547261393449
asS'900'
p1169
(lp1170
F15.233471888251742
aF0.1089752742413218
asS'800'
p1171
(lp1172
F20.223279230552777
aF0.14449118497739896
asS'1800'
p1173
(lp1174
F2.3955539317712757
aF0.021977935718533962
asS'3500'
p1175
(lp1176
F0.1279432293144308
aF0.0064111483591896175
asS'1600'
p1177
(lp1178
F3.443097733936172
aF0.028949041774325546
asS'3200'
p1179
(lp1180
F0.22015809072197776
aF0.008088815898948856
asS'2000'
p1181
(lp1182
F1.687284102250028
aF0.017446118086516783
asS'1100'
p1183
(lp1184
F9.388868883281972
aF0.06883285106749383
asS'2100'
p1185
(lp1186
F1.420851899567489
aF0.015833679515088465
asS'1000'
p1187
(lp1188
F11.836282431972165
aF0.08546219312955251
assS'CITo2Mu_Lam22TeVConLL_dimuon_BB'
p1189
(dp1190
S'2900'
p1191
(lp1192
F1.38915531530361
aF0.0287955051352221
asS'1300'
p1193
(lp1194
F11.688301971624327
aF0.08607436748039021
asS'600'
p1195
(lp1196
F32.88200351206524
aF0.2899592383917002
asS'700'
p1197
(lp1198
F28.09046339556491
aF0.23211876343053725
asS'1200'
p1199
(lp1200
F13.464639714786092
aF0.09853837365625283
asS'3000'
p1201
(lp1202
F1.2092575312739284
aF0.027882354767699253
asS'2800'
p1203
(lp1204
F1.5923322420364596
aF0.029672700118987042
asS'1900'
p1205
(lp1206
F5.194720305968398
aF0.04548561543651851
asS'2200'
p1207
(lp1208
F3.5129156689153875
aF0.0370474952828463
asS'2300'
p1209
(lp1210
F3.0844005122831804
aF0.035221621350576715
asS'3100'
p1211
(lp1212
F1.0499788030891746
aF0.026905943748459497
asS'1500'
p1213
(lp1214
F8.861610722341366
aF0.06744357015309138
asS'3300'
p1215
(lp1216
F0.7843195909020493
aF0.024698899003709793
asS'2400'
p1217
(lp1218
F2.7072874625071197
aF0.03374100898253776
asS'400'
p1219
(lp1220
F53.90293358629697
aF0.5717196731866324
asS'1400'
p1221
(lp1222
F10.167287615624918
aF0.07587826273179686
asS'500'
p1223
(lp1224
F39.63857703100416
aF0.37952162758582636
asS'2500'
p1225
(lp1226
F2.3748291156690104
aF0.03252047544186017
asS'2600'
p1227
(lp1228
F2.0813084051932593
aF0.03148082751869399
asS'2700'
p1229
(lp1230
F1.8218613397492318
aF0.03055156531058621
asS'3400'
p1231
(lp1232
F0.6741466487121798
aF0.023454732717259407
asS'1700'
p1233
(lp1234
F6.7666984095231175
aF0.05452132306312913
asS'900'
p1235
(lp1236
F20.826487510212687
aF0.15808186789760822
asS'800'
p1237
(lp1238
F24.16252809409025
aF0.19002101860699022
asS'1800'
p1239
(lp1240
F5.925636024382018
aF0.04959267694043789
asS'3500'
p1241
(lp1242
F0.576925493049329
aF0.02211787152713216
asS'1600'
p1243
(lp1244
F7.737504097595141
aF0.06041000809711703
asS'3200'
p1245
(lp1246
F0.9090061988559973
aF0.02584817052868083
asS'2000'
p1247
(lp1248
F4.557646482227436
aF0.04208926000013131
asS'1100'
p1249
(lp1250
F15.542991001661576
aF0.11397764776675488
asS'2100'
p1251
(lp1252
F4.000827972517515
aF0.03930689914267465
asS'1000'
p1253
(lp1254
F17.9768350117046
aF0.13337288701307695
assS'CITo2Mu_Lam34TeVConLR_dimuon_BB'
p1255
(dp1256
S'2900'
p1257
(lp1258
F0.4528679596432067
aF0.030064289628245776
asS'1300'
p1259
(lp1260
F-0.7616871372162315
aF-0.007285228606634842
asS'600'
p1261
(lp1262
F24.85604297827814
aF0.22541685598383657
asS'700'
p1263
(lp1264
F9.04729832042284
aF0.0771718747903746
asS'1200'
p1265
(lp1266
F-1.2556173725185573
aF-0.011195644423655808
asS'3000'
p1267
(lp1268
F0.40142227541978126
aF0.02990177450055465
asS'2800'
p1269
(lp1270
F0.5078237957241436
aF0.029936399901245254
asS'1900'
p1271
(lp1272
F0.8146930492389064
aF0.01491385159979914
asS'2200'
p1273
(lp1274
F0.8303588926272907
aF0.02258917384044332
asS'2300'
p1275
(lp1276
F0.7908643918795117
aF0.024590830091762477
asS'3100'
p1277
(lp1278
F0.3538843636979196
aF0.02946826101441629
asS'1500'
p1279
(lp1280
F0.08471553546017674
aF0.0009712317624820645
asS'3300'
p1281
(lp1282
F0.2709786206315593
aF0.02787926280344973
asS'2400'
p1283
(lp1284
F0.740546902935945
aF0.026292404416389296
asS'400'
p1285
(lp1286
F106.80331449723417
aF1.185539409390406
asS'1400'
p1287
(lp1288
F-0.29966165557436497
aF-0.0031193421321629965
asS'500'
p1289
(lp1290
F56.84984840875882
aF0.5622366285339311
asS'2500'
p1291
(lp1292
F0.6840642524270566
aF0.027682170533969635
asS'2600'
p1293
(lp1294
F0.6248940457508185
aF0.028752799637955625
asS'2700'
p1295
(lp1296
F0.5655586255581257
aF0.02950269448340733
asS'3400'
p1297
(lp1298
F0.23545902523050868
aF0.026773001890859443
asS'1700'
p1299
(lp1300
F0.5926259024595071
aF0.008472399957509855
asS'900'
p1301
(lp1302
F-0.9007850175472925
aF-0.00730278328466009
asS'800'
p1303
(lp1304
F1.937203558718096
aF0.015919246449504938
asS'1800'
p1305
(lp1306
F0.7328988491697892
aF0.011825667947421297
asS'3500'
p1307
(lp1308
F0.20363990597635265
aF0.025492570524926057
asS'1600'
p1309
(lp1310
F0.3804479779619552
aF0.00485101767628377
asS'3200'
p1311
(lp1312
F0.31040890305112595
aF0.02878604392536009
asS'2000'
p1313
(lp1314
F0.8509141776780282
aF0.017739897679698646
asS'1100'
p1315
(lp1316
F-1.664480220119593
aF-0.014078894066560738
asS'2100'
p1317
(lp1318
F0.852952055331544
aF0.020301248596377258
asS'1000'
p1319
(lp1320
F-1.728243032059865
aF-0.014151675887491656
assS'CITo2Mu_Lam34TeVConLR_dimuon_BE'
p1321
(dp1322
S'2900'
p1323
(lp1324
F0.3007866799170492
aF0.024076944493028562
asS'1300'
p1325
(lp1326
F-0.40645382522507845
aF-0.0037353677797197283
asS'600'
p1327
(lp1328
F43.16366999680133
aF0.33375333064494017
asS'700'
p1329
(lp1330
F20.764489540379714
aF0.1577742096525938
asS'1200'
p1331
(lp1332
F-0.3966020976009972
aF-0.0033995524659311983
asS'3000'
p1333
(lp1334
F0.263961131292098
aF0.02373360504427434
asS'2800'
p1335
(lp1336
F0.3393237907036804
aF0.02407456278257742
asS'1900'
p1337
(lp1338
F0.4389450718758674
aF0.008615313770007746
asS'2200'
p1339
(lp1340
F0.5185978985993913
aF0.01615493150485866
asS'2300'
p1341
(lp1342
F0.5070805774255456
aF0.018329219085547445
asS'3100'
p1343
(lp1344
F0.22953644427230735
aF0.023085040475185867
asS'1500'
p1345
(lp1346
F-0.08487374670648862
aF-0.0009490265200397105
asS'3300'
p1347
(lp1348
F0.1693670445828605
aF0.021062930300835128
asS'2400'
p1349
(lp1350
F0.4840236023007316
aF0.020214513763825815
asS'400'
p1351
(lp1352
F152.36774845657192
aF1.3206672901673635
asS'1400'
p1353
(lp1354
F-0.26787866054354836
aF-0.0026900610670153226
asS'500'
p1355
(lp1356
F85.09725394544512
aF0.684866540591628
asS'2500'
p1357
(lp1358
F0.45303224163725697
aF0.02175795932052139
asS'2600'
p1359
(lp1360
F0.41708080954233656
aF0.02292410836690636
asS'2700'
p1361
(lp1362
F0.37855702414595255
aF0.023695985514966086
asS'3400'
p1363
(lp1364
F0.14387760393911403
aF0.019788967259251274
asS'1700'
p1365
(lp1366
F0.2423657680359721
aF0.003522877708882448
asS'900'
p1367
(lp1368
F3.722562559796984
aF0.028540199135265117
asS'800'
p1369
(lp1370
F9.348995815340686
aF0.0709067057340599
asS'1800'
p1371
(lp1372
F0.357778931747033
aF0.006026432011639014
asS'3500'
p1373
(lp1374
F0.12139042040653657
aF0.018403226704515822
asS'1600'
p1375
(lp1376
F0.09245713668957478
aF0.0011707572745787535
asS'3200'
p1377
(lp1378
F0.1979351458279607
aF0.022178187291615983
asS'2000'
p1379
(lp1380
F0.48949166945672085
aF0.011218867430897329
asS'1100'
p1381
(lp1382
F-0.03241046383173796
aF-0.0002637294841392308
asS'2100'
p1383
(lp1384
F0.5143347631010649
aF0.013759057423165562
asS'1000'
p1385
(lp1386
F1.085108494316529
aF0.008513226129737997
assS'CITo2Mu_Lam22TeVConLL_dimuon_BE'
p1387
(dp1388
S'2900'
p1389
(lp1390
F0.845688246371609
aF0.021486880084706738
asS'1300'
p1391
(lp1392
F12.595784035755393
aF0.09594143244400495
asS'600'
p1393
(lp1394
F72.99149018702587
aF0.5414529258985311
asS'700'
p1395
(lp1396
F52.25766552982998
aF0.3772609386110258
asS'1200'
p1397
(lp1398
F15.428251520242341
aF0.114750053240617
asS'3000'
p1399
(lp1400
F0.7186780586260698
aF0.020437615294013767
asS'2800'
p1401
(lp1402
F0.9934844697827772
aF0.0225273050300891
asS'1900'
p1403
(lp1404
F4.240783959790562
aF0.04099059450379634
asS'2200'
p1405
(lp1406
F2.588003624640781
aF0.031138479727223098
asS'2300'
p1407
(lp1408
F2.2035823861757198
aF0.02905812203781303
asS'3100'
p1409
(lp1410
F0.6094265126180185
aF0.019362046041687505
asS'1500'
p1411
(lp1412
F8.581475519642563
aF0.06936186616756637
asS'3300'
p1413
(lp1414
F0.4344972461994288
aF0.017102152404881853
asS'2400'
p1415
(lp1416
F1.8783439330311358
aF0.027360870601971024
asS'400'
p1417
(lp1418
F186.74001424798007
aF1.5720309285899143
asS'1400'
p1419
(lp1420
F10.362625835554274
aF0.08115119004910175
asS'500'
p1421
(lp1422
F109.86173331836744
aF0.8555752640233604
asS'2500'
p1423
(lp1424
F1.6021399922380517
aF0.025939927262544363
asS'2600'
p1425
(lp1426
F1.3668025339984073
aF0.024705873004880297
asS'2700'
p1427
(lp1428
F1.1657150496617539
aF0.023586786135398916
asS'3400'
p1429
(lp1430
F0.364906596970791
aF0.015917769541711334
asS'1700'
p1431
(lp1432
F5.981330885157621
aF0.05221024991047216
asS'900'
p1433
(lp1434
F30.258505199798705
aF0.21583682805226345
asS'800'
p1435
(lp1436
F39.179615541288456
aF0.27957729042867746
asS'1800'
p1437
(lp1438
F5.027229802404551
aF0.04600388269247525
asS'3500'
p1439
(lp1440
F0.30511316372603237
aF0.014704165683625004
asS'1600'
p1441
(lp1442
F7.146829112764056
aF0.0598779252269723
asS'3200'
p1443
(lp1444
F0.5154067267081649
aF0.01825107276417468
asS'2000'
p1445
(lp1446
F3.5884633835963715
aF0.036957226539162176
asS'1100'
p1447
(lp1448
F19.07220477850001
aF0.1391142444718091
asS'2100'
p1449
(lp1450
F3.0443009406470445
aF0.033725189862707276
asS'1000'
p1451
(lp1452
F23.846483092460787
aF0.1714582708887644
assS'CITo2Mu_Lam22TeVConLR_dimuon_BB'
p1453
(dp1454
S'2900'
p1455
(lp1456
F2.1081913683790794
aF0.12631208560565516
asS'1300'
p1457
(lp1458
F13.008017004304353
aF0.12272450582100665
asS'600'
p1459
(lp1460
F60.837454203670745
aF0.5430160708496969
asS'700'
p1461
(lp1462
F40.39403055055729
aF0.3385324006512637
asS'1200'
p1463
(lp1464
F14.492083667260992
aF0.12787708463600994
asS'3000'
p1465
(lp1466
F1.828073355098955
aF0.12306378076675965
asS'2800'
p1467
(lp1468
F2.420935320851468
aF0.1286899182999324
asS'1900'
p1469
(lp1470
F7.135672846075969
aF0.12189852923944075
asS'2200'
p1471
(lp1472
F5.130874419186391
aF0.12736059913760508
asS'2300'
p1473
(lp1474
F4.566883768359502
aF0.12895847944197822
asS'3100'
p1475
(lp1476
F1.5780370848756784
aF0.11895950487619923
asS'1500'
p1477
(lp1478
F10.662468346560829
aF0.11884438411182623
asS'3300'
p1479
(lp1480
F1.158555977202436
aF0.10836483136863309
asS'2400'
p1481
(lp1482
F4.0512099661480345
aF0.1301763276249917
asS'400'
p1483
(lp1484
F158.09403011554627
aF1.7382181382679818
asS'1400'
p1485
(lp1486
F11.760077038009072
aF0.12001810178215239
asS'500'
p1487
(lp1488
F98.51477703049545
aF0.9619466686285199
asS'2500'
p1489
(lp1490
F3.5813929757208722
aF0.13086909913339145
asS'2600'
p1491
(lp1492
F3.154852735878535
aF0.13091297039902305
asS'2700'
p1493
(lp1494
F2.7689302591179605
aF0.13020987695943284
asS'3400'
p1495
(lp1496
F0.9845806345261495
aF0.10201997429574035
asS'1700'
p1497
(lp1498
F8.758741347786973
aF0.11926764477671489
asS'900'
p1499
(lp1500
F22.86674731919068
aF0.18263980278418954
asS'800'
p1501
(lp1502
F29.240697336708962
aF0.23619351664026292
asS'1800'
p1503
(lp1504
F7.916251012291159
aF0.12038496356770614
asS'3500'
p1505
(lp1506
F0.8316365285634644
aF0.09510459661000878
asS'1600'
p1507
(lp1508
F9.66995744426286
aF0.11869203386345456
asS'3200'
p1509
(lp1510
F1.3556402286684135
aF0.1140389764294144
asS'2000'
p1511
(lp1512
F6.413006674699359
aF0.12366770551701785
asS'1100'
p1513
(lp1514
F16.37505066005164
aF0.137118512206235
asS'2100'
p1515
(lp1516
F5.74550561724483
aF0.12554205972174834
asS'1000'
p1517
(lp1518
F18.96730684340963
aF0.15345953641787718
assS'CITo2Mu_Lam22TeVConLR_dimuon_BE'
p1519
(dp1520
S'2900'
p1521
(lp1522
F1.4141796423984023
aF0.09758471854678286
asS'1300'
p1523
(lp1524
F13.358885456622659
aF0.12188860824464243
asS'600'
p1525
(lp1526
F95.91001158781603
aF0.7334319885043774
asS'700'
p1527
(lp1528
F62.61186424714742
aF0.4700371591042324
asS'1200'
p1529
(lp1530
F15.941230794871878
aF0.13585309861745445
asS'3000'
p1531
(lp1532
F1.2049678096172125
aF0.09330937110855915
asS'2800'
p1533
(lp1534
F1.6513497584932828
aF0.10119435355676941
asS'1900'
p1535
(lp1536
F5.702294865323923
aF0.10418721460941507
asS'2200'
p1537
(lp1538
F3.8519520671505907
aF0.10760268861021215
asS'2300'
p1539
(lp1540
F3.370648009870048
aF0.10819785532131572
asS'3100'
p1541
(lp1542
F1.0211248997492728
aF0.08844351095580935
asS'1500'
p1543
(lp1544
F9.794978550382744
aF0.10741789724446976
asS'3300'
p1545
(lp1546
F0.7202009064395374
aF0.07730989089455502
asS'2400'
p1547
(lp1548
F2.9423402300661894
aF0.10822771204707202
asS'400'
p1549
(lp1550
F257.38515335212196
aF2.216492150794249
asS'1400'
p1551
(lp1552
F11.37395035994125
aF0.11289754065005647
asS'500'
p1553
(lp1554
F155.3354937428453
aF1.239004165456407
asS'2500'
p1555
(lp1556
F2.560899758609996
aF0.10758786662634219
asS'2600'
p1557
(lp1558
F2.221302608781438
aF0.10621494695967332
asS'2700'
p1559
(lp1560
F1.9193286644095493
aF0.10408205408069429
asS'3400'
p1561
(lp1562
F0.5988606131043882
aF0.07124869126203168
asS'1700'
p1563
(lp1564
F7.421140486377857
aF0.10330455298566016
asS'900'
p1565
(lp1566
F31.791528549128742
aF0.24122340727336972
asS'800'
p1567
(lp1568
F43.40300386638566
aF0.3253392502864631
asS'1800'
p1569
(lp1570
F6.4991319143241295
aF0.10336954944558932
asS'3500'
p1571
(lp1572
F0.49433315061408345
aF0.06500208500191813
asS'1600'
p1573
(lp1574
F8.502871295536776
aF0.10446266131536253
asS'3200'
p1575
(lp1576
F0.8602710489497185
aF0.0830769611905975
asS'2000'
p1577
(lp1578
F5.006384945237048
aF0.10536809896901414
asS'1100'
p1579
(lp1580
F19.439014793175502
aF0.15714546683044048
asS'2100'
p1581
(lp1582
F4.39391905382448
aF0.10659240625774727
asS'1000'
p1583
(lp1584
F24.3986532065678
aF0.18981844405669113
assS'CITo2Mu_Lam16TeVConLL_dimuon_BB'
p1585
(dp1586
S'2900'
p1587
(lp1588
F4.386982117997348
aF0.08863813012267727
asS'1300'
p1589
(lp1590
F33.73601869441406
aF0.24753306423478263
asS'600'
p1591
(lp1592
F80.29698858888776
aF0.7026963592168027
asS'700'
p1593
(lp1594
F73.49638311930875
aF0.601081128751892
asS'1200'
p1595
(lp1596
F38.56060105564546
aF0.2805112453898523
asS'3000'
p1597
(lp1598
F3.825532702282571
aF0.08595161056633852
asS'2800'
p1599
(lp1600
F5.016553776753027
aF0.09118021668715791
asS'1900'
p1601
(lp1602
F15.644641311522353
aF0.13660299394575223
asS'2200'
p1603
(lp1604
F10.78029832868622
aF0.11241002958052726
asS'2300'
p1605
(lp1606
F9.518316044114322
aF0.1071264154160696
asS'3100'
p1607
(lp1608
F3.3251788847020793
aF0.08303005143400173
asS'1500'
p1609
(lp1610
F25.95505698085632
aF0.19746582950620978
asS'3300'
p1611
(lp1612
F2.4838362462613124
aF0.07626800420684028
asS'2400'
p1613
(lp1614
F8.397809417810091
aF0.10284719349375607
asS'400'
p1615
(lp1616
F89.26354045515404
aF0.9465048464795004
asS'1400'
p1617
(lp1618
F29.564546439204406
aF0.22026601529976603
asS'500'
p1619
(lp1620
F84.16998488500144
aF0.8026271584611372
asS'2500'
p1621
(lp1622
F7.40119372360978
aF0.09933421192980045
asS'2600'
p1623
(lp1624
F6.513583419997272
aF0.09635655726245128
asS'2700'
p1625
(lp1626
F5.722314342927811
aF0.09370097674537503
asS'3400'
p1627
(lp1628
F2.1325755520719474
aF0.07238533727641226
asS'1700'
p1629
(lp1630
F20.102022626451323
aF0.16196874060404054
asS'900'
p1631
(lp1632
F57.71175924543067
aF0.4329520823775767
asS'800'
p1633
(lp1634
F65.55524235846568
aF0.5095324423432928
asS'1800'
p1635
(lp1636
F17.725685428974817
aF0.1481980612825553
asS'3500'
p1637
(lp1638
F1.82165336200817
aF0.06817627850166168
asS'1600'
p1639
(lp1640
F22.82482353963479
aF0.1782427325161068
asS'3200'
p1641
(lp1642
F2.8797595850559037
aF0.0798131820249359
asS'2000'
p1643
(lp1644
F13.816163029246155
aF0.12692414120338527
asS'1100'
p1645
(lp1646
F44.12948238848787
aF0.32089089328564885
asS'2100'
p1647
(lp1648
F12.204625105154678
aF0.11893353970499067
asS'1000'
p1649
(lp1650
F50.51283624490083
aF0.37085371052725136
assS'CITo2Mu_Lam34TeVConRR_dimuon_BE'
p1651
(dp1652
S'2900'
p1653
(lp1654
F0.1389484492012507
aF0.012665677804268263
asS'1300'
p1655
(lp1656
F4.289943970832027
aF0.041858457421547646
asS'600'
p1657
(lp1658
F40.605046616124696
aF0.3220156786547733
asS'700'
p1659
(lp1660
F27.91614339090222
aF0.2191800652281854
asS'1200'
p1661
(lp1662
F5.653393928673765
aF0.051174719098777
asS'3000'
p1663
(lp1664
F0.11515542210882265
aF0.011790017717809515
asS'2800'
p1665
(lp1666
F0.16770099118254986
aF0.013542478800790781
asS'1900'
p1667
(lp1668
F1.0077447676274272
aF0.021802421440125414
asS'2200'
p1669
(lp1670
F0.5368074898243309
aF0.018736344616111365
asS'2300'
p1671
(lp1672
F0.43914355093157964
aF0.017861116295550244
asS'3100'
p1673
(lp1674
F0.09541173552005332
aF0.010920112905756682
asS'1500'
p1675
(lp1676
F2.554315911819806
aF0.030687474286087146
asS'3300'
p1677
(lp1678
F0.06530815790566541
aF0.009216833885181928
asS'2400'
p1679
(lp1680
F0.3605151401514368
aF0.017002344233278555
asS'400'
p1681
(lp1682
F93.87633924943748
aF0.818477290962
asS'1400'
p1683
(lp1684
F3.29300344361139
aF0.03531394451548145
asS'500'
p1685
(lp1686
F60.60485253692718
aF0.49546226075306193
asS'2500'
p1687
(lp1688
F0.29683526877439603
aF0.016145770020447363
asS'2600'
p1689
(lp1690
F0.24498422941002163
aF0.015284481605927637
asS'2700'
p1691
(lp1692
F0.20256059544602173
aF0.014416385206986057
asS'3400'
p1693
(lp1694
F0.053892101538135645
aF0.008392827226339675
asS'1700'
p1695
(lp1696
F1.5797839885304024
aF0.024989766495965016
asS'900'
p1697
(lp1698
F14.029994416525739
aF0.11218007447501485
asS'800'
p1699
(lp1700
F19.605940341958018
aF0.15446485098851093
asS'1800'
p1701
(lp1702
F1.257396525991897
aF0.023198987268486473
asS'3500'
p1703
(lp1704
F0.04435849925245346
aF0.007593027170446059
asS'1600'
p1705
(lp1706
F2.000207190760518
aF0.027386139179783737
asS'3200'
p1707
(lp1708
F0.0789906470393941
aF0.010060789112909804
asS'2000'
p1709
(lp1710
F0.812652218477921
aF0.020653574721365732
asS'1100'
p1711
(lp1712
F7.545002386840032
aF0.06452794372820422
asS'2100'
p1713
(lp1714
F0.658908540094749
aF0.019653307673339376
asS'1000'
p1715
(lp1716
F10.210390506208498
aF0.0838502467036578
assS'CITo2Mu_Lam34TeVConRR_dimuon_BB'
p1717
(dp1718
S'2900'
p1719
(lp1720
F0.30549776618816266
aF0.02327335728711628
asS'1300'
p1721
(lp1722
F3.1815793264631047
aF0.032673710481660755
asS'600'
p1723
(lp1724
F12.597822305171917
aF0.1186686134921174
asS'700'
p1725
(lp1726
F10.748391636206634
aF0.09613586797602183
asS'1200'
p1727
(lp1728
F3.87569328266288
aF0.03700408857671444
asS'3000'
p1729
(lp1730
F0.26809487031321116
aF0.022864997310723424
asS'2800'
p1731
(lp1732
F0.3477168134913327
aF0.02356728620851601
asS'1900'
p1733
(lp1734
F1.1552460907338742
aF0.023707806496047
asS'2200'
p1735
(lp1736
F0.758321663251319
aF0.023585510386167213
asS'2300'
p1737
(lp1738
F0.6637286547990475
aF0.02368488535379668
asS'3100'
p1739
(lp1740
F0.2349062211519531
aF0.02234075264880391
asS'1500'
p1741
(lp1742
F2.198309057883833
aF0.027329364363907895
asS'3300'
p1743
(lp1744
F0.17923509345390712
aF0.02095568242146061
asS'2400'
p1745
(lp1746
F0.5822123027040734
aF0.023781160673078942
asS'400'
p1747
(lp1748
F19.127286616184392
aF0.21609541736505414
asS'1400'
p1749
(lp1750
F2.633320997082585
aF0.02955323835311703
asS'500'
p1751
(lp1752
F14.308196155011387
aF0.1454538769817984
asS'2500'
p1753
(lp1754
F0.5114653932880819
aF0.023841280018805595
asS'2600'
p1755
(lp1756
F0.4496921155200816
aF0.023838574437658164
asS'2700'
p1757
(lp1758
F0.39548222256823995
aF0.023752314160616447
asS'3400'
p1759
(lp1760
F0.1559589043508634
aF0.020106973148470517
asS'1700'
p1761
(lp1762
F1.5705994537983976
aF0.024735533977213415
asS'900'
p1763
(lp1764
F7.238971696823512
aF0.06234769209896455
asS'800'
p1765
(lp1766
F8.89088992365393
aF0.07719692695519573
asS'1800'
p1767
(lp1768
F1.3426445361043786
aF0.0240780492813474
asS'3500'
p1769
(lp1770
F0.1352806057524173
aF0.01916534360999113
asS'1600'
p1771
(lp1772
F1.8507280875934642
aF0.025778001286424764
asS'3200'
p1773
(lp1774
F0.2054285614047482
aF0.021702670110834547
asS'2000'
p1775
(lp1776
F0.9995883441228561
aF0.023545012355139065
asS'1100'
p1777
(lp1778
F4.755101123725268
aF0.0429804731165197
asS'2100'
p1779
(lp1780
F0.8689780310409807
aF0.0235230142767718
asS'1000'
p1781
(lp1782
F5.863398910101694
aF0.05118789472176819
assS'CITo2Mu_Lam16TeVConLL_dimuon_BE'
p1783
(dp1784
S'2900'
p1785
(lp1786
F2.788679103608879
aF0.06883543513451518
asS'1300'
p1787
(lp1788
F34.34976550093682
aF0.25951732257244553
asS'600'
p1789
(lp1790
F126.33361074471827
aF0.9238058368577041
asS'700'
p1791
(lp1792
F106.13684748002748
aF0.7535554986298727
asS'1200'
p1793
(lp1794
F41.207209651436735
aF0.3031948518706781
asS'3000'
p1795
(lp1796
F2.3856531678436874
aF0.06586936960544308
asS'2800'
p1797
(lp1798
F3.251953702825817
aF0.07170941292395408
asS'1900'
p1799
(lp1800
F12.640873185540514
aF0.12163389289817197
asS'2200'
p1801
(lp1802
F7.996097707058372
aF0.0949926920261247
asS'2300'
p1803
(lp1804
F6.883877130845742
aF0.08933110131624869
asS'3100'
p1805
(lp1806
F2.0349073802309205
aF0.0627507868948035
asS'1500'
p1807
(lp1808
F24.209971269949452
aF0.19489918125829542
asS'3300'
p1809
(lp1810
F1.46439448814489
aF0.05594916782752419
asS'2400'
p1811
(lp1812
F5.929891878733669
aF0.08473087185787834
asS'400'
p1813
(lp1814
F189.5442580471572
aF1.5845027135673688
asS'1400'
p1815
(lp1816
F28.769909898214657
aF0.2239952505407111
asS'500'
p1817
(lp1818
F149.09665136678245
aF1.1485034496489526
asS'2500'
p1819
(lp1820
F5.108588163317356
aF0.08090251218937364
asS'2600'
p1821
(lp1822
F4.399253198472897
aF0.07759172625897674
asS'2700'
p1823
(lp1824
F3.78499555346068
aF0.07458459154199648
asS'3400'
p1825
(lp1826
F1.234037674030065
aF0.052266106627459216
asS'1700'
p1827
(lp1828
F17.367591855953588
aF0.15120786799588148
asS'900'
p1829
(lp1830
F72.78967767750912
aF0.5103270397905819
asS'800'
p1831
(lp1832
F88.1436169357107
aF0.617966598221874
asS'1800'
p1833
(lp1834
F14.79363095698276
aF0.13495366543751217
asS'3500'
p1835
(lp1836
F1.0344415229712087
aF0.04842209993787612
asS'1600'
p1837
(lp1838
F20.46359142270089
aF0.17095210175135855
asS'3200'
p1839
(lp1840
F1.7297232621509795
aF0.05944717797535489
asS'2000'
p1841
(lp1842
F10.829967634589138
aF0.11079268328211307
asS'1100'
p1843
(lp1844
F49.65579974766936
aF0.3573545585720612
asS'2100'
p1845
(lp1846
F9.298266932799047
aF0.1020332244030745
asS'1000'
p1847
(lp1848
F60.05802465184124
aF0.4250770426725567
assS'CITo2Mu_Lam16TeVConLR_dimuon_BB'
p1849
(dp1850
S'2900'
p1851
(lp1852
F8.17217623904266
aF0.4714784341717593
asS'1300'
p1853
(lp1854
F53.32014057244389
aF0.49461672735280754
asS'600'
p1855
(lp1856
F151.58494244194424
aF1.3222284201657442
asS'700'
p1857
(lp1858
F123.80467091022493
aF1.014384726263448
asS'1200'
p1859
(lp1860
F60.03720519098959
aF0.5236206730689045
asS'3000'
p1861
(lp1862
F7.13866349110426
aF0.4635822343307061
asS'2800'
p1863
(lp1864
F9.321553999353174
aF0.47618191510556024
asS'1900'
p1865
(lp1866
F27.177400629687682
aF0.44033742285720195
asS'2200'
p1867
(lp1868
F19.350412664624308
aF0.4555234936076353
asS'2300'
p1869
(lp1870
F17.229613644778464
aF0.46223307225875565
asS'3100'
p1871
(lp1872
F6.211246335428096
aF0.45241318370781464
asS'1500'
p1873
(lp1874
F42.42899121919709
aF0.45813506809890847
asS'3300'
p1875
(lp1876
F4.639794287016917
aF0.42044564739788093
asS'2400'
p1877
(lp1878
F15.312192299051404
aF0.46848159517608673
asS'400'
p1879
(lp1880
F248.38073906932482
aF2.692782864166166
asS'1400'
p1881
(lp1882
F47.51197674852525
aF0.47338939184692314
asS'500'
p1883
(lp1884
F192.08967111325626
aF1.8389460347542823
asS'2500'
p1885
(lp1886
F13.578713497153354
aF0.4735671202935092
asS'2600'
p1887
(lp1888
F12.012174359358635
aF0.47687248880058913
asS'2700'
p1889
(lp1890
F10.59756953752591
aF0.47788049865305543
asS'3400'
p1891
(lp1892
F3.9800538631467757
aF0.39997688687759325
asS'1700'
p1893
(lp1894
F33.94795450695546
aF0.4417614544992362
asS'900'
p1895
(lp1896
F89.06643147060603
aF0.7014101252371202
asS'800'
p1897
(lp1898
F103.95923964835069
aF0.8239235765153378
asS'1800'
p1899
(lp1900
F30.37956078051355
aF0.4394510911131378
asS'3500'
p1901
(lp1902
F3.3948157037836997
aF0.3768780899050745
asS'1600'
p1903
(lp1904
F37.93992256492284
aF0.4478128297877904
asS'3200'
p1905
(lp1906
F5.381013998038164
aF0.4379942911661625
asS'2000'
p1907
(lp1908
F24.295676586773922
aF0.44379604530294076
asS'1100'
p1909
(lp1910
F67.92936286010826
aF0.5635458967255446
asS'2100'
p1911
(lp1912
F21.69702902677103
aF0.44911514553565735
asS'1000'
p1913
(lp1914
F77.39694398902931
aF0.6197755232049924
assS'CITo2Mu_Lam16TeVConLR_dimuon_BE'
p1915
(dp1916
S'2900'
p1917
(lp1918
F4.840550596317748
aF0.3198598531091779
asS'1300'
p1919
(lp1920
F51.665964872059675
aF0.46832301746139054
asS'600'
p1921
(lp1922
F213.6123438344954
aF1.607627329912954
asS'700'
p1923
(lp1924
F167.34337853615432
aF1.2358387876422043
asS'1200'
p1925
(lp1926
F61.15098372422674
aF0.5191611429554079
asS'3000'
p1927
(lp1928
F4.102896728475777
aF0.3046639922562648
asS'2800'
p1929
(lp1930
F5.682180952751296
aF0.3329899649970288
asS'1900'
p1931
(lp1932
F21.038939246329402
aF0.3678170168922628
asS'2200'
p1933
(lp1934
F13.797974740710012
aF0.3667853187974238
asS'2300'
p1935
(lp1936
F11.973872453254613
aF0.3657464546370233
asS'3100'
p1937
(lp1938
F3.458276081129721
aF0.28761774328940093
asS'1500'
p1939
(lp1940
F37.657863002846184
aF0.40519282707105814
asS'3300'
p1941
(lp1942
F2.410518418908628
aF0.2491159853107836
asS'2400'
p1943
(lp1944
F10.373741162025897
aF0.3632737461121285
asS'400'
p1945
(lp1946
F368.0371196611213
aF3.143790029409075
asS'1400'
p1947
(lp1948
F43.975818837374874
aF0.4313178046802894
asS'500'
p1949
(lp1950
F277.19605940675183
aF2.1826224346015795
asS'2500'
p1951
(lp1952
F8.967262426721723
aF0.3589649574286965
asS'2600'
p1953
(lp1954
F7.729638164991018
aF0.3525571271868859
asS'2700'
p1955
(lp1956
F6.640343936069907
aF0.3439097177089664
asS'3400'
p1957
(lp1958
F1.9909516427003537
aF0.2283330133169573
asS'1700'
p1959
(lp1960
F27.98969509762893
aF0.37668872059298325
asS'900'
p1961
(lp1962
F107.5889003935306
aF0.8078162938618283
asS'800'
p1963
(lp1964
F133.1818914026264
aF0.9841587674372418
asS'1800'
p1965
(lp1966
F24.243743217148285
aF0.37060024717981677
asS'3500'
p1967
(lp1968
F1.6312204869883948
aF0.20701757978031957
asS'1600'
p1969
(lp1970
F32.40467991234356
aF0.3876378521890754
asS'3200'
p1971
(lp1972
F2.8970275210405383
aF0.26899509317295844
asS'2000'
p1973
(lp1974
F18.277443742590457
aF0.3669826442480744
asS'1100'
p1975
(lp1976
F73.01983452395571
aF0.5879686689699021
asS'2100'
p1977
(lp1978
F15.883539642875498
aF0.3669509522244129
asS'1000'
p1979
(lp1980
F88.10371446838693
aF0.680952602814528
ass.