(dp0
S'CITo2Mu_Lam10TeVConLL_dimuon_BE'
p1
(dp2
S'1'
p3
(lp4
F196.81211271652546
aF1.6451386101564212
asS'0'
p5
(lp6
F114.87367996253238
aF1.07129664119662
asS'3'
p7
(lp8
F166.5457487941381
aF1.24395556466576
asS'2'
p9
(lp10
F243.99800589344682
aF1.829559648469973
asS'5'
p11
(lp12
F5.639553761743039
aF0.2603541772331794
asS'4'
p13
(lp14
F60.97622273232695
aF0.5876367079534075
assS'CITo2Mu_Lam10TeVConLR_dimuon_BE'
p15
(dp16
g3
(lp17
F384.91981053833035
aF3.310597017309968
asg5
(lp18
F255.25903071579046
aF2.4601948979712662
asg7
(lp19
F280.40845551609294
aF2.32537857672757
asg9
(lp20
F404.7031752006817
aF3.1711759319841177
asg11
(lp21
F10.294581137127595
aF1.3013378960034812
asg13
(lp22
F114.47636851818626
aF1.908131557996765
assS'CITo2Mu_Lam10TeVConLR_dimuon_BB'
p23
(dp24
g3
(lp25
F212.5758026733688
aF2.362532089197281
asg5
(lp26
F141.7184291824209
aF1.7951737916646229
asg7
(lp27
F241.70346441366814
aF2.0765261035118905
asg9
(lp28
F248.59974119458087
aF2.317071211974824
asg11
(lp29
F19.065706955730093
aF2.1072111287684576
asg13
(lp30
F148.4470585902811
aF2.263164991078559
assS'CITo2Mu_Lam10TeVConLL_dimuon_BB'
p31
(dp32
g3
(lp33
F63.98787491845053
aF0.6891477940517209
asg5
(lp34
F16.036084938542785
aF0.1940319771407059
asg7
(lp35
F132.44343671160763
aF1.0344783567677174
asg9
(lp36
F127.10142693398839
aF1.1580168470058083
asg11
(lp37
F10.536061878649718
aF0.39183285621243336
asg13
(lp38
F79.03035767639311
aF0.6905402172556591
assS'CITo2Mu_Lam28TeVConRR_dimuon_BB'
p39
(dp40
g3
(lp41
F14.234042819842045
aF0.15820068637408763
asg5
(lp42
F15.458217569136309
aF0.19604166539649326
asg7
(lp43
F5.756911713054599
aF0.05295086459734805
asg9
(lp44
F10.326479402375242
aF0.0979974709578987
asg11
(lp45
F0.17288837067696639
aF0.023008501174647696
asg13
(lp46
F2.1215971056910643
aF0.040200988221340016
assS'CITo2Mu_Lam28TeVConRR_dimuon_BE'
p47
(dp48
g3
(lp49
F40.747304586313476
aF0.35309946109366525
asg5
(lp50
F37.61701349936675
aF0.36062787336059776
asg7
(lp51
F7.996424155060133
aF0.06920220674219889
asg9
(lp52
F22.48687307668166
aF0.18210811837215918
asg11
(lp53
F0.08786548927559823
aF0.013984287131576532
asg13
(lp54
F1.7871281333084093
aF0.035182529212690716
assS'CITo2Mu_Lam22TeVConRR_dimuon_BB'
p55
(dp56
g3
(lp57
F12.567032644577466
aF0.13893143902208802
asg5
(lp58
F16.46989140741016
aF0.20774295787672303
asg7
(lp59
F11.345054760159314
aF0.1034466923078184
asg9
(lp60
F14.593558681724943
aF0.13770721227777305
asg11
(lp61
F0.4909262064907292
aF0.060785641738168666
asg13
(lp62
F4.680941092431387
aF0.08567347274196029
assS'CITo2Mu_Lam22TeVConRR_dimuon_BE'
p63
(dp64
g3
(lp65
F31.936668624669437
aF0.1952219204951722
asg5
(lp66
F25.102641007935972
aF0.17011338898528056
asg7
(lp67
F15.789051593881496
aF0.09756984458647115
asg9
(lp68
F31.65993330541204
aF0.181185344826248
asg11
(lp69
F0.23824670452297853
aF0.03183724654831057
asg13
(lp70
F3.5972534392618507
aF0.05456207276292783
assS'CITo2Mu_Lam28TeVConLR_dimuon_BB'
p71
(dp72
g3
(lp73
F62.19520149563334
aF0.6836002643931633
asg5
(lp74
F65.01003101491176
aF0.8176095058773002
asg7
(lp75
F1.058970589251146
aF0.009161347309669929
asg9
(lp76
F18.189029063780964
aF0.16776145339190182
asg11
(lp77
F0.33639734734511134
aF0.0402767357826769
asg13
(lp78
F2.2657806727625918
aF0.038417826866382065
assS'CITo2Mu_Lam28TeVConLR_dimuon_BE'
p79
(dp80
g3
(lp81
F87.0996723067467
aF0.7475529219570761
asg5
(lp82
F103.81039616157909
aF0.9918348159000688
asg7
(lp83
F2.383477628567327
aF0.019892833357543348
asg9
(lp84
F26.313807673880433
aF0.20824103816532089
asg11
(lp85
F0.20607024031932974
aF0.028933389566006967
asg13
(lp86
F1.697826947916199
aF0.030989442664014603
assS'CITo2Mu_Lam34TeVConLL_dimuon_BB'
p87
(dp88
g3
(lp89
F8.587784420407672
aF0.09085683137631918
asg5
(lp90
F6.925640141957956
aF0.08262660680526004
asg7
(lp91
F3.312188762840435
aF0.02573154265578737
asg9
(lp92
F6.1632793878381165
aF0.055198936288062696
asg11
(lp93
F0.11856461560611208
aF0.0049473724794406905
asg13
(lp94
F1.2079221541992022
aF0.010709348276863566
assS'CITo2Mu_Lam16TeVConRR_dimuon_BE'
p95
(dp96
g3
(lp97
F68.05276199551508
aF0.5785926639548626
asg5
(lp98
F66.84550885077238
aF0.6322292749347206
asg7
(lp99
F36.831929197579235
aF0.3126336350900285
asg9
(lp100
F66.77521913373738
aF0.526756270029664
asg11
(lp101
F0.8863229405615282
aF0.1250769427831743
asg13
(lp102
F10.535888613800683
aF0.19448634868647913
assS'CITo2Mu_Lam34TeVConLL_dimuon_BE'
p103
(dp104
g3
(lp105
F48.73012355373214
aF0.4024529238958744
asg5
(lp106
F73.43422386859515
aF0.6766140599358579
asg7
(lp107
F4.724327323318278
aF0.03529337914157674
asg9
(lp108
F17.694304241054283
aF0.13184750989806132
asg11
(lp109
F0.06743794483216656
aF0.0034902613914219068
asg13
(lp110
F1.0627711838661495
aF0.0103170191574609
assS'CITo2Mu_Lam10TeVConRR_dimuon_BB'
p111
(dp112
g3
(lp113
F78.4987058426695
aF0.8829942429458834
asg5
(lp114
F22.11988906422016
aF0.2830565507898167
asg7
(lp115
F138.22828570892312
aF1.2579037153940262
asg9
(lp116
F140.25440025461887
aF1.3424827757269084
asg11
(lp117
F9.591643946673743
aF1.1215899341707813
asg13
(lp118
F78.11848490840421
aF1.3333746875999042
assS'CITo2Mu_Lam10TeVConRR_dimuon_BE'
p119
(dp120
g3
(lp121
F185.33981616190772
aF1.5878746606424634
asg5
(lp122
F102.48216805170318
aF0.9783687676844661
asg7
(lp123
F165.05124182191446
aF1.4063382020518997
asg9
(lp124
F239.83555650003296
aF1.8997095040493817
asg11
(lp125
F5.1576609358362635
aF0.7132401137873162
asg13
(lp126
F60.5476103292737
aF1.0845170343117632
assS'CITo2Mu_Lam28TeVConLL_dimuon_BB'
p127
(dp128
g3
(lp129
F15.087307240075631
aF0.15972577372690888
asg5
(lp130
F23.266566272833302
aF0.2772741389998542
asg7
(lp131
F5.1541771048414375
aF0.040107762648180355
asg9
(lp132
F8.464467994572033
aF0.07602050943213647
asg11
(lp133
F0.2347860822403075
aF0.009448424856574633
asg13
(lp134
F2.1204020272722146
aF0.01877467165514097
assS'CITo2Mu_Lam16TeVConRR_dimuon_BB'
p135
(dp136
g3
(lp137
F11.572379612431746
aF0.1281752075929628
asg5
(lp138
F4.3800904249869745
aF0.05529811535893204
asg7
(lp139
F29.216020023938185
aF0.26517982692679604
asg9
(lp140
F31.274316316694183
aF0.29513491826991534
asg11
(lp141
F1.5489709713860345
aF0.18452679920827347
asg13
(lp142
F13.678721266331657
aF0.2413949533017499
assS'CITo2Mu_Lam28TeVConLL_dimuon_BE'
p143
(dp144
g3
(lp145
F45.99656924323176
aF0.3786953258319542
asg5
(lp146
F70.00128940900777
aF0.6432584495548733
asg7
(lp147
F7.061550242088742
aF0.05252695981067401
asg9
(lp148
F19.264609801904612
aF0.14302638164304177
asg11
(lp149
F0.11665214971841996
aF0.005865169522233265
asg13
(lp150
F1.7881321307091382
aF0.017287885484155528
assS'CITo2Mu_Lam22TeVConLL_dimuon_BB'
p151
(dp152
g3
(lp153
F9.186340727875972
aF0.09700539715415389
asg5
(lp154
F12.649171942329872
aF0.15037557311828662
asg7
(lp155
F10.326822180286392
aF0.07987039639388512
asg9
(lp156
F11.66379353692588
aF0.1043212651495186
asg11
(lp157
F0.5692118806513542
aF0.02202810091732556
asg13
(lp158
F4.575307263652297
aF0.04037094020731219
assS'CITo2Mu_Lam34TeVConLR_dimuon_BB'
p159
(dp160
g3
(lp161
F48.9521165015326
aF0.540351981501402
asg5
(lp162
F50.08346091108194
aF0.6321366473715933
asg7
(lp163
F-2.501138153976079
aF-0.021726859162886872
asg9
(lp164
F11.427173052151034
aF0.10601467120672001
asg11
(lp165
F0.20774205934289533
aF0.025996815218357183
asg13
(lp166
F0.6285797351746902
aF0.010946429711432169
assS'CITo2Mu_Lam34TeVConLR_dimuon_BE'
p167
(dp168
g3
(lp169
F63.40444872602018
aF0.5455690153845911
asg5
(lp170
F68.1740530249906
aF0.6528341356305852
asg7
(lp171
F-0.5539514404846102
aF-0.004624861859249389
asg9
(lp172
F19.74468176883846
aF0.15648841397291302
asg11
(lp173
F0.10516556049987338
aF0.016199493893118044
asg13
(lp174
F0.3052452727025159
aF0.005734488792751878
assS'CITo2Mu_Lam22TeVConLL_dimuon_BE'
p175
(dp176
g3
(lp177
F56.21178288090323
aF0.4654297696653318
asg5
(lp178
F76.21683383651452
aF0.7033600976857268
asg7
(lp179
F14.090181945914424
aF0.10472945765905259
asg9
(lp180
F31.44944422665435
aF0.234671405312077
asg11
(lp181
F0.2793930618798838
aF0.013487920061533236
asg13
(lp182
F3.7567180022236566
aF0.0361879664788315
assS'CITo2Mu_Lam22TeVConLR_dimuon_BB'
p183
(dp184
g3
(lp185
F56.801531195699226
aF0.6239145855803956
asg5
(lp186
F57.40361382450658
aF0.7206553108332033
asg7
(lp187
F9.180635065933181
aF0.07908035811111735
asg9
(lp188
F24.066668516227992
aF0.22172583180040753
asg11
(lp189
F0.8986025490990661
aF0.10302420690112389
asg13
(lp190
F6.2825757338141095
aF0.10294360027090245
assS'CITo2Mu_Lam22TeVConLR_dimuon_BE'
p191
(dp192
g3
(lp193
F92.2629036553526
aF0.7883442018033692
asg5
(lp194
F100.61799044090776
aF0.9588795611512086
asg7
(lp195
F13.274212116044964
aF0.10971605975917251
asg9
(lp196
F42.5836923630153
aF0.3339322097882732
asg11
(lp197
F0.5067922811111045
aF0.0671910189415186
asg13
(lp198
F4.982335113126548
aF0.08786482450137166
assS'CITo2Mu_Lam16TeVConLL_dimuon_BB'
p199
(dp200
g3
(lp201
F8.594538268890233
aF0.09144818532895356
asg5
(lp202
F3.9456491334628936
aF0.047197906818680066
asg7
(lp203
F28.180208481420394
aF0.21877421918961368
asg9
(lp204
F28.194298408430427
aF0.254025998997883
asg11
(lp205
F1.7865120821167693
aF0.06750744190709665
asg13
(lp206
F13.698173980629349
aF0.12061161697750056
assS'CITo2Mu_Lam34TeVConRR_dimuon_BE'
p207
(dp208
g3
(lp209
F27.72833073785614
aF0.23928547078321585
asg5
(lp210
F28.416607547734884
aF0.27143697814394285
asg7
(lp211
F6.304530620662412
aF0.054550805037313056
asg9
(lp212
F19.29235305169169
aF0.15583325538650378
asg11
(lp213
F0.06531817314726165
aF0.011045936678364848
asg13
(lp214
F0.903764629696767
aF0.018149118779843296
assS'CITo2Mu_Lam34TeVConRR_dimuon_BB'
p215
(dp216
g3
(lp217
F3.52346371013482
aF0.03927364876133255
asg5
(lp218
F3.6074394915805215
aF0.04585999085882622
asg7
(lp219
F3.7115060585299915
aF0.03424680672110948
asg9
(lp220
F6.655272305685429
aF0.06347990927376118
asg11
(lp221
F0.14706827236141562
aF0.020491654062434816
asg13
(lp222
F0.995539608002999
aF0.019250863281998806
assS'CITo2Mu_Lam16TeVConLL_dimuon_BE'
p223
(dp224
g3
(lp225
F43.20763932448051
aF0.3561329551142231
asg5
(lp226
F41.23034639098978
aF0.37951574700054314
asg7
(lp227
F35.60848839404089
aF0.26226850307942845
asg9
(lp228
F54.84248017798626
aF0.40519564849671225
asg11
(lp229
F0.96770367394213
aF0.04539169937682041
asg13
(lp230
F11.071746577193172
aF0.10632271189464697
assS'CITo2Mu_Lam16TeVConLR_dimuon_BB'
p231
(dp232
g3
(lp233
F67.74327412128451
aF0.7454993829879913
asg5
(lp234
F54.37346293004964
aF0.6829830945292487
asg7
(lp235
F40.44451009647744
aF0.34650628632825564
asg9
(lp236
F55.998549700524336
aF0.5159153668609897
asg11
(lp237
F3.3247195375412324
aF0.3709229451833334
asg13
(lp238
F23.534345977908114
aF0.3686268152511078
assS'CITo2Mu_Lam16TeVConLR_dimuon_BE'
p239
(dp240
g3
(lp241
F112.59330199240264
aF0.961698431811122
asg5
(lp242
F94.26509550356263
aF0.8996898943436948
asg7
(lp243
F50.13868005579393
aF0.4130403880281195
asg9
(lp244
F93.1163112801238
aF0.7260822731683384
asg11
(lp245
F1.5908726089192748
aF0.20437419548092203
asg13
(lp246
F18.536079145058252
aF0.31542546908765406
ass.