(dp0
S'CITo2Mu_Lam16TeVConRR_dimuon_Moriond2017_BB'
p1
(dp2
S'1'
p3
(lp4
F18.094684013490678
aF0.7676924261620244
asS'0'
p5
(lp6
F11.613345040737954
aF0.4927125018338982
asS'3'
p7
(lp8
F28.96186882065136
aF1.228748030335069
asS'2'
p9
(lp10
F32.61333738702325
aF1.383666721409334
asS'4'
p11
(lp12
F13.990905571097864
aF0.5935838522558368
assS'CITo2Mu_Lam22TeVConLL_dimuon_Moriond2017_BE'
p13
(dp14
g3
(lp15
F59.91845797460155
aF2.5421248771249156
asg5
(lp16
F81.78641140869945
aF3.469903566960252
asg7
(lp17
F14.482077680118628
aF0.6144225199969336
asg9
(lp18
F32.23966975250039
aF1.3678133463124709
asg11
(lp19
F3.953789482732344
aF0.16774508127744556
assS'CITo2Mu_Lam22TeVConLL_dimuon_Moriond2017_BB'
p20
(dp21
g3
(lp22
F17.1037755842886
aF0.7256517419726024
asg5
(lp23
F21.253289963141583
aF0.9017007273276841
asg7
(lp24
F10.04910003293503
aF0.4263472066866191
asg9
(lp25
F13.273474313747897
aF0.5631458218293957
asg11
(lp26
F4.659223345431533
aF0.19767410535703855
assS'CITo2Mu_Lam16TeVConRR_dimuon_Moriond2017_BE'
p27
(dp28
g3
(lp29
F87.91069492295105
aF3.7297349111304294
asg5
(lp30
F91.48288927944054
aF3.881290282321831
asg7
(lp31
F37.412253067786935
aF1.5872674706219616
asg9
(lp32
F70.41549063328375
aF2.987476255642366
asg11
(lp33
F11.224576174903087
aF0.47621843575313594
assS'CITo2Mu_Lam16TeVConLR_dimuon_Moriond2017_BB'
p34
(dp35
g3
(lp36
F82.55963093573507
aF3.5027084932150165
asg5
(lp37
F70.20267868364886
aF2.978447409280104
asg7
(lp38
F39.54703400130683
aF1.6778385550883415
asg9
(lp39
F59.093949580655675
aF2.507143948534654
asg11
(lp40
F24.283351302937405
aF1.0302553425745336
assS'CITo2Mu_Lam10TeVDesRR_dimuon_Moriond2017_BB'
p41
(dp42
g3
(lp43
F-48.610367536214994
aF-2.062363231249682
asg5
(lp44
F-84.57920853722817
aF-3.5883919142439105
asg7
(lp45
F81.36459701175298
aF3.452007497731274
asg9
(lp46
F39.686110369708075
aF1.6837390656803006
asg11
(lp47
F65.11837407513195
aF2.7627386333020847
assS'CITo2Mu_Lam16TeVConLR_dimuon_Moriond2017_BE'
p48
(dp49
g3
(lp50
F124.59440644762151
aF5.2860929818215645
asg5
(lp51
F108.96423196624119
aF4.622960839806787
asg7
(lp52
F51.17544113244219
aF2.1711900872977705
asg9
(lp53
F95.65475124920385
aF4.058287395661465
asg11
(lp54
F19.819890244176044
aF0.8408867276417987
assS'CITo2Mu_Lam28TeVDesLR_dimuon_Moriond2017_BE'
p55
(dp56
g3
(lp57
F34.34531235595148
aF1.4571481961318047
asg5
(lp58
F50.46699903529475
aF2.1411334346395123
asg7
(lp59
F-8.15616974031012
aF-0.3460369759129085
asg9
(lp60
F-4.865497671611934
aF-0.20642558384664936
asg11
(lp61
F-0.1688500605110761
aF-0.007163701367468448
assS'CITo2Mu_Lam28TeVConRR_dimuon_Moriond2017_BB'
p62
(dp63
g3
(lp64
F14.054665512753672
aF0.5962889574826097
asg5
(lp65
F14.591211352030427
aF0.6190526695648109
asg7
(lp66
F5.757283883364465
aF0.24426086850858203
asg9
(lp67
F10.541698849271285
aF0.44724640449276903
asg11
(lp68
F2.176630271243489
aF0.09234660149593112
assS'CITo2Mu_Lam28TeVConRR_dimuon_Moriond2017_BE'
p69
(dp70
g3
(lp71
F50.09834707890616
aF2.1254928567439086
asg5
(lp72
F49.83016078933201
aF2.1141146761051606
asg7
(lp73
F8.037275594892456
aF0.34099272452481594
asg9
(lp74
F23.583557587963583
aF1.0005656096971505
asg11
(lp75
F1.910596512756563
aF0.08105974501689214
assS'CITo2Mu_Lam28TeVDesLR_dimuon_Moriond2017_BB'
p76
(dp77
g3
(lp78
F39.41730668864483
aF1.672334691339037
asg5
(lp79
F46.65800162116864
aF1.9795313605764764
asg7
(lp80
F-7.096279107992359
aF-0.3010696247072293
asg9
(lp81
F1.733648760670576
aF0.0735524876919491
asg11
(lp82
F0.14490801403723186
aF0.0061479263624401245
assS'CITo2Mu_Lam10TeVConLR_dimuon_Moriond2017_BB'
p83
(dp84
g3
(lp85
F205.8867126637366
aF8.735033440844063
asg5
(lp86
F132.63302003489287
aF5.627142472555438
asg7
(lp87
F243.54018383466126
aF10.332534928854443
asg9
(lp88
F248.3370476116869
aF10.53604862316422
asg11
(lp89
F149.72503689328357
aF6.35229533403881
assS'CITo2Mu_Lam34TeVConLL_dimuon_Moriond2017_BE'
p90
(dp91
g3
(lp92
F57.160612490664676
aF2.425119402535528
asg5
(lp93
F83.67710378657443
aF3.5501188510522392
asg7
(lp94
F4.682154285526828
aF0.19864698275146048
asg9
(lp95
F19.21163130030135
aF0.8150804862059289
asg11
(lp96
F1.128144739559354
aF0.04786312773014105
assS'CITo2Mu_Lam10TeVDesLR_dimuon_Moriond2017_BB'
p97
(dp98
g3
(lp99
F136.6280041739028
aF5.796635295081036
asg5
(lp100
F38.44062796219407
aF1.6308977223081986
asg7
(lp101
F202.72682366725866
aF8.600970704611685
asg9
(lp102
F199.9358845533569
aF8.482561186212562
asg11
(lp103
F131.10788307314695
aF5.562436391282111
assS'CITo2Mu_Lam10TeVConLR_dimuon_Moriond2017_BE'
p104
(dp105
g3
(lp106
F408.6826670771942
aF17.33893711462129
asg5
(lp107
F274.9624614978584
aF11.66566926581284
asg7
(lp108
F287.48954445545667
aF12.19714838428109
asg9
(lp109
F416.8020902808548
aF17.683415067019205
asg11
(lp110
F120.86750728767026
aF5.127974041693566
assS'CITo2Mu_Lam34TeVDesLR_dimuon_Moriond2017_BE'
p111
(dp112
g3
(lp113
F43.025980357245885
aF1.8254377486684656
asg5
(lp114
F60.48904470056186
aF2.5663328217158097
asg7
(lp115
F-8.90328303070681
aF-0.37773430835015415
asg9
(lp116
F-1.882421230687953
aF-0.07986436903613868
asg11
(lp117
F-0.7774493238244333
aF-0.03298438133430918
assS'CITo2Mu_Lam28TeVConLR_dimuon_Moriond2017_BE'
p118
(dp119
g3
(lp120
F91.15312947585039
aF3.867299758724951
asg5
(lp121
F107.35789363978256
aF4.554809676395663
asg7
(lp122
F2.3592271744450883
aF0.100093532004582
asg9
(lp123
F27.346987750031644
aF1.1602344289843693
asg11
(lp124
F1.8315179477288628
aF0.07770472564223686
assS'CITo2Mu_Lam10TeVDesLR_dimuon_Moriond2017_BE'
p125
(dp126
g3
(lp127
F215.27961020227906
aF9.133540333513691
asg5
(lp128
F29.22442791947219
aF1.2398874694893753
asg7
(lp129
F244.243385815017
aF10.362369262185645
asg9
(lp130
F318.2442976658825
aF13.501962057209742
asg11
(lp131
F104.37793980827273
aF4.428380942682656
assS'CITo2Mu_Lam28TeVConLR_dimuon_Moriond2017_BB'
p132
(dp133
g3
(lp134
F60.42237908688162
aF2.5635044392654938
asg5
(lp135
F61.40641158289384
aF2.6052534023157836
asg7
(lp136
F1.081628611607485
aF0.04588961555958258
asg9
(lp137
F18.277543062369574
aF0.7754504785698397
asg11
(lp138
F2.351299604978907
aF0.09975719371691014
assS'CITo2Mu_Lam34TeVDesLR_dimuon_Moriond2017_BB'
p139
(dp140
g3
(lp141
F37.06988902549364
aF1.5727421944655597
asg5
(lp142
F43.29811935272619
aF1.8369836284162306
asg7
(lp143
F-7.879934987292415
aF-0.3343173278894159
asg9
(lp144
F0.856978303659929
aF0.03635851019086081
asg11
(lp145
F-0.7696720504492056
aF-0.03265441956974327
assS'CITo2Mu_Lam10TeVConLL_dimuon_Moriond2017_BE'
p146
(dp147
g3
(lp148
F216.91457188720233
aF9.202905883177056
asg5
(lp149
F134.62226009399956
aF5.711538780667574
asg7
(lp150
F170.76522231319046
aF7.244954801309119
asg9
(lp151
F253.38957262090446
aF10.750409104932162
asg11
(lp152
F64.1819075682873
aF2.723007724261449
assS'CITo2Mu_Lam34TeVConLL_dimuon_Moriond2017_BB'
p153
(dp154
g3
(lp155
F7.899037517203396
aF0.3351277795956883
asg5
(lp156
F6.292076426811377
aF0.2669501945485408
asg7
(lp157
F3.352553559377448
aF0.1422368013676134
asg9
(lp158
F5.982917209882743
aF0.2538336798231472
asg11
(lp159
F1.218284043229025
aF0.051687414502716515
assS'CITo2Mu_Lam16TeVDesLR_dimuon_Moriond2017_BB'
p160
(dp161
g3
(lp162
F-28.129200241806416
aF-1.1934208944201354
asg5
(lp163
F-46.50606845151458
aF-1.9730853821035033
asg7
(lp164
F14.510893191912345
aF0.6156450586244955
asg9
(lp165
F-4.622182377388299
aF-0.19610259017593346
asg11
(lp166
F17.408731147491054
aF0.7385899107746635
assS'CITo2Mu_Lam22TeVConLR_dimuon_Moriond2017_BB'
p167
(dp168
g3
(lp169
F59.02879229747384
aF2.5043795591277602
asg5
(lp170
F58.73811792750428
aF2.4920472900404036
asg7
(lp171
F9.04979309095291
aF0.38395020377687816
asg9
(lp172
F24.597648778890402
aF1.0435898551679044
asg11
(lp173
F6.42838463731514
aF0.2727332621472576
assS'CITo2Mu_Lam22TeVConLR_dimuon_Moriond2017_BE'
p174
(dp175
g3
(lp176
F102.70158285197397
aF4.357259140393371
asg5
(lp177
F111.981669367731
aF4.750979866710749
asg7
(lp178
F13.323222494102453
aF0.5652564583702195
asg9
(lp179
F44.602559012981374
aF1.8923263161811377
asg11
(lp180
F5.370908197629502
aF0.22786833646045435
assS'CITo2Mu_Lam22TeVDesRR_dimuon_Moriond2017_BE'
p181
(dp182
g3
(lp183
F-20.584501102792842
aF-0.8733264190276071
asg5
(lp184
F-16.75539721720793
aF-0.710871299625716
asg7
(lp185
F-1.6790051553364265
aF-0.07123415585913359
asg9
(lp186
F-12.866567363799447
aF-0.5458822220121666
asg11
(lp187
F0.9393433052650679
aF0.039852961260906886
assS'CITo2Mu_Lam22TeVDesLR_dimuon_Moriond2017_BB'
p188
(dp189
g3
(lp190
F40.8258074669277
aF1.732092318436858
asg5
(lp191
F46.89824598099267
aF1.98972406553488
asg7
(lp192
F-3.7098718859366357
aF-0.15739653407274729
asg9
(lp193
F2.291758787107881
aF0.0972310907524704
asg11
(lp194
F3.0851841705441894
aF0.13089327889207142
assS'CITo2Mu_Lam22TeVDesLR_dimuon_Moriond2017_BE'
p195
(dp196
g3
(lp197
F29.08826156091959
aF1.2341104201592539
asg5
(lp198
F45.96806355623016
aF1.950259767517473
asg7
(lp199
F-4.761741527908121
aF-0.20202358347848548
asg9
(lp200
F-6.9691263528221725
aF-0.29567499018158583
asg11
(lp201
F2.159640494877277
aF0.09162578633116764
assS'CITo2Mu_Lam22TeVDesRR_dimuon_Moriond2017_BB'
p202
(dp203
g3
(lp204
F-9.534908101622932
aF-0.40453189059888756
asg5
(lp205
F-14.601742181297709
aF-0.6194994548119956
asg7
(lp206
F-0.5857566106349026
aF-0.024851548290287268
asg9
(lp207
F-5.415612601928615
aF-0.22976498370618278
asg11
(lp208
F1.5766053568859673
aF0.06688970034654626
assS'CITo2Mu_Lam10TeVDesRR_dimuon_Moriond2017_BE'
p209
(dp210
g3
(lp211
F-93.73212418391472
aF-3.976717237527941
asg5
(lp212
F-168.66528191008456
aF-7.155861875361691
asg7
(lp213
F87.20760622799502
aF3.6999053840916885
asg9
(lp214
F50.851639646656565
aF2.1574523537163333
asg11
(lp215
F49.76633203063273
aF2.1114066512185015
assS'CITo2Mu_Lam16TeVDesRR_dimuon_Moriond2017_BE'
p216
(dp217
g3
(lp218
F-45.10807949981813
aF-1.9137737340373975
asg5
(lp219
F-20.059330806438766
aF-0.8510453303578241
asg7
(lp220
F3.9258517902659946
aF0.16655978536982596
asg9
(lp221
F-23.36202124991013
aF-0.9911666188821405
asg11
(lp222
F5.392353990875721
aF0.2287782044103939
assS'CITo2Mu_Lam22TeVConRR_dimuon_Moriond2017_BE'
p223
(dp224
g3
(lp225
F51.22761330722324
aF2.173403565212386
asg5
(lp226
F47.86381355039043
aF2.0306896280957782
asg7
(lp227
F15.967119908542173
aF0.6774275258009339
asg9
(lp228
F35.57910513065218
aF1.5094935903859945
asg11
(lp229
F3.86024982337311
aF0.1637765296308779
assS'CITo2Mu_Lam34TeVDesRR_dimuon_Moriond2017_BE'
p230
(dp231
g3
(lp232
F6.018996946152697
aF0.2553644133939416
asg5
(lp233
F10.89372356359695
aF0.4621815482514651
asg7
(lp234
F-1.0718576527495927
aF-0.045475068883555965
asg9
(lp235
F-1.0274548162503265
aF-0.043591216076003046
asg11
(lp236
F-0.22454539152443687
aF-0.009526654141867057
assS'CITo2Mu_Lam34TeVDesRR_dimuon_Moriond2017_BB'
p237
(dp238
g3
(lp239
F10.723797133602488
aF0.45497218039435083
asg5
(lp240
F14.13692274904406
aF0.5997788364575655
asg7
(lp241
F-1.535050544575391
aF-0.06512667897200171
asg9
(lp242
F0.5845285177664721
aF0.024799444722575625
asg11
(lp243
F-0.12234849846102547
aF-0.005190807175786979
assS'CITo2Mu_Lam22TeVConRR_dimuon_Moriond2017_BB'
p244
(dp245
g3
(lp246
F16.81776514185924
aF0.7135173465726845
asg5
(lp247
F21.469855543682797
aF0.9108888267620218
asg7
(lp248
F11.218698843524187
aF0.4759690817007379
asg9
(lp249
F15.311633836503859
aF0.6496176070102363
asg11
(lp250
F4.782254867408383
aF0.2028938907664105
assS'CITo2Mu_Lam10TeVDesLL_dimuon_Moriond2017_BB'
p251
(dp252
g3
(lp253
F21.70321585665232
aF0.9207894663476557
asg5
(lp254
F-4.252108015417889
aF-0.18040166472237973
asg7
(lp255
F75.77635535673295
aF3.2149184835808464
asg9
(lp256
F54.73296320002916
aF2.322122965990463
asg11
(lp257
F62.28656399731682
aF2.6425951067587556
assS'CITo2Mu_Lam28TeVDesRR_dimuon_Moriond2017_BE'
p258
(dp259
g3
(lp260
F-0.7499905982024302
aF-0.03181940626890562
asg5
(lp261
F13.325695185482573
aF0.5653613657807793
asg7
(lp262
F-2.4328656799872164
aF-0.1032177492020989
asg9
(lp263
F-7.248954397953867
aF-0.3075470886783136
asg11
(lp264
F-0.04050027419574276
aF-0.0017182811114234552
assS'CITo2Mu_Lam28TeVConLL_dimuon_Moriond2017_BB'
p265
(dp266
g3
(lp267
F16.948143062193935
aF0.7190488132678242
asg5
(lp268
F25.213256173440527
aF1.0697078649620029
asg7
(lp269
F5.1233142572448
aF0.2173638152068511
asg9
(lp270
F8.908231186827976
aF0.37794424083501293
asg11
(lp271
F2.1488007166833243
aF0.09116589349111752
assS'CITo2Mu_Lam28TeVConLL_dimuon_Moriond2017_BE'
p272
(dp273
g3
(lp274
F50.55032112308936
aF2.1446684914376437
asg5
(lp275
F75.87161981518261
aF3.2189602122553955
asg7
(lp276
F7.219140686701074
aF0.30628220003436235
asg9
(lp277
F20.154572310816548
aF0.8550860851735804
asg11
(lp278
F1.8832142236690719
aF0.07989801287900163
assS'CITo2Mu_Lam34TeVDesLL_dimuon_Moriond2017_BE'
p279
(dp280
g3
(lp281
F26.398990946126105
aF1.1200143308692825
asg5
(lp282
F50.73611971673904
aF2.1525512581679203
asg7
(lp283
F-12.0480683790421
aF-0.5111562510611931
asg9
(lp284
F-11.666918511570202
aF-0.49498543170492915
asg11
(lp285
F-1.5114781489335627
aF-0.06412658692357276
assS'CITo2Mu_Lam28TeVDesLL_dimuon_Moriond2017_BE'
p286
(dp287
g3
(lp288
F30.25393018638306
aF1.2835655515401512
asg5
(lp289
F47.457241924679465
aF2.0134402548810826
asg7
(lp290
F-13.256750615114221
aF-0.5624362953867721
asg9
(lp291
F-13.468171045845054
aF-0.5714061046018413
asg11
(lp292
F-1.2192259864988095
aF-0.05172737777112998
assS'CITo2Mu_Lam16TeVDesRR_dimuon_Moriond2017_BB'
p293
(dp294
g3
(lp295
F-25.60364212183515
aF-1.0862705380453896
asg5
(lp296
F-19.27620018299001
aF-0.8178199118940963
asg7
(lp297
F6.452137028991054
aF0.2737409907806639
asg9
(lp298
F-8.94987029102353
aF-0.37971083841136544
asg11
(lp299
F7.463077139207186
aF0.3166315472191021
assS'CITo2Mu_Lam10TeVDesLL_dimuon_Moriond2017_BE'
p300
(dp301
g3
(lp302
F-49.57424563933728
aF-2.1032571158269815
asg5
(lp303
F-95.28783822013907
aF-4.042720594204021
asg7
(lp304
F76.46149094633442
aF3.2439863248672127
asg9
(lp305
F44.28124313445579
aF1.8786940379846366
asg11
(lp306
F49.08509680654597
aF2.0825042884264082
assS'CITo2Mu_Lam16TeVDesLL_dimuon_Moriond2017_BB'
p307
(dp308
g3
(lp309
F20.549691579538944
aF0.871849576031045
asg5
(lp310
F36.721836061467116
aF1.557975557801046
asg7
(lp311
F-2.0413185200221022
aF-0.08660581008415895
asg9
(lp312
F-7.582136343541407
aF-0.32168280146394623
asg11
(lp313
F6.760263142292824
aF0.2868136746312441
assS'CITo2Mu_Lam34TeVConLR_dimuon_Moriond2017_BB'
p314
(dp315
g3
(lp316
F49.13597226218121
aF2.0846627512069467
asg5
(lp317
F49.435210692990836
aF2.097358362623973
asg7
(lp318
F-2.546794435622786
aF-0.1080513369430223
asg9
(lp319
F11.614534814458665
aF0.4927629796578577
asg11
(lp320
F0.6933419232217046
aF0.029416006535459397
assS'CITo2Mu_Lam28TeVDesLL_dimuon_Moriond2017_BB'
p321
(dp322
g3
(lp323
F50.72515975224724
aF2.1520862662550972
asg5
(lp324
F79.55494796983623
aF3.37523059118485
asg7
(lp325
F-10.241064046872474
aF-0.43449155004655643
asg9
(lp326
F-1.6170497582307632
aF-0.0686056109736624
asg11
(lp327
F-1.070351873352247
aF-0.045411184074185915
assS'CITo2Mu_Lam28TeVDesRR_dimuon_Moriond2017_BB'
p328
(dp329
g3
(lp330
F-4.202602506525466
aF-0.17830132385974434
asg5
(lp331
F-4.4229664842184775
aF-0.18765057563710252
asg7
(lp332
F-1.2821991525840062
aF-0.05439910293742774
asg9
(lp333
F-2.578327504265701
aF-0.10938917174316386
asg11
(lp334
F0.24505379489551515
aF0.010396752007566968
assS'CITo2Mu_Lam34TeVConLR_dimuon_Moriond2017_BE'
p335
(dp336
g3
(lp337
F72.56912866862967
aF3.0788473791832285
asg5
(lp338
F79.22104067717669
aF3.3610641045292176
asg7
(lp339
F-0.7894389796076737
aF-0.03349305934881448
asg9
(lp340
F20.881859072955308
aF0.8859422492561119
asg11
(lp341
F0.3754234765464983
aF0.015927869164959467
assS'CITo2Mu_Lam16TeVDesLL_dimuon_Moriond2017_BE'
p342
(dp343
g3
(lp344
F-22.909063815275772
aF-0.9719492624650116
asg5
(lp345
F17.876058065394318
aF0.758416912735488
asg7
(lp346
F-6.948971500577677
aF-0.29481989221983207
asg9
(lp347
F-35.188726616732254
aF-1.492931232720656
asg11
(lp348
F4.458749391791986
aF0.18916871583285044
assS'CITo2Mu_Lam34TeVDesLL_dimuon_Moriond2017_BB'
p349
(dp350
g3
(lp351
F51.05780065953576
aF2.166199024729723
asg5
(lp352
F68.57327748585237
aF2.9093177711059814
asg7
(lp353
F-10.404376575651732
aF-0.4414203138397086
asg9
(lp354
F0.81765840361291
aF0.03469030811333134
asg11
(lp355
F-1.3984059988859507
aF-0.059329341879852206
assS'CITo2Mu_Lam34TeVConRR_dimuon_Moriond2017_BE'
p356
(dp357
g3
(lp358
F31.253163764245755
aF1.3259594418739116
asg5
(lp359
F32.726320151252594
aF1.3884601741339602
asg7
(lp360
F6.418285103945578
aF0.27230477523531144
asg9
(lp361
F19.990738473431804
aF0.8481352041294264
asg11
(lp362
F0.9775046334075936
aF0.041472009295426784
assS'CITo2Mu_Lam34TeVConRR_dimuon_Moriond2017_BB'
p363
(dp364
g3
(lp365
F6.278461578022132
aF0.2663725654343185
asg5
(lp366
F6.850525823716794
aF0.29064319587862225
asg7
(lp367
F3.6394895928917563
aF0.15441046627149768
asg9
(lp368
F7.081856835207361
aF0.3004577394940457
asg11
(lp369
F1.0305885044166732
aF0.04372416720515591
assS'CITo2Mu_Lam10TeVConRR_dimuon_Moriond2017_BB'
p370
(dp371
g3
(lp372
F86.14868554258089
aF3.6549791842479866
asg5
(lp373
F29.22199376340984
aF1.239784196993886
asg7
(lp374
F137.80229565121834
aF5.846456263082999
asg9
(lp375
F142.67317060928727
aF6.0531099858727355
asg11
(lp376
F79.52066999553341
aF3.373776299900358
assS'CITo2Mu_Lam16TeVConLL_dimuon_Moriond2017_BE'
p377
(dp378
g3
(lp379
F65.6109315983108
aF2.7836360791879375
asg5
(lp380
F68.89883681644869
aF2.923130083726574
asg7
(lp381
F35.80587783550585
aF1.519114741429397
asg9
(lp382
F59.18294601894411
aF2.5109197476355662
asg11
(lp383
F11.75645669031512
aF0.49878421490686664
assS'CITo2Mu_Lam16TeVConLL_dimuon_Moriond2017_BB'
p384
(dp385
g3
(lp386
F29.948638072837014
aF1.2706131041162803
asg5
(lp387
F27.37765637553923
aF1.1615355885683345
asg7
(lp388
F27.192833795149078
aF1.1536942305737181
asg9
(lp389
F32.85369827281173
aF1.3938643701457163
asg11
(lp390
F13.995253398800397
aF0.5937683149629503
assS'CITo2Mu_Lam10TeVConRR_dimuon_Moriond2017_BE'
p391
(dp392
g3
(lp393
F206.18361197252057
aF8.747629811718308
asg5
(lp394
F123.46933419063953
aF5.2383602084873555
asg7
(lp395
F169.03242595134458
aF7.1714384778365226
asg9
(lp396
F248.24574595650284
aF10.532175021993368
asg11
(lp397
F64.21346599131208
aF2.724346634756911
assS'CITo2Mu_Lam10TeVConLL_dimuon_Moriond2017_BB'
p398
(dp399
g3
(lp400
F69.99753156576247
aF2.9697437541882037
asg5
(lp401
F22.39147077232542
aF0.9499896494311011
asg7
(lp402
F132.29680542430924
aF5.612878094690777
asg9
(lp403
F128.914832589041
aF5.4693931391543655
asg11
(lp404
F79.95306044010702
aF3.3921210728290543
assS'CITo2Mu_Lam16TeVDesLR_dimuon_Moriond2017_BE'
p405
(dp406
g3
(lp407
F-53.37870674590067
aF-2.2646667306596684
asg5
(lp408
F-79.63862782903288
aF-3.3787808269380513
asg7
(lp409
F15.654109275230525
aF0.6641476093170441
asg9
(lp410
F-9.252401772921928
aF-0.39254616215373184
asg11
(lp411
F13.509714055878044
aF0.5731686252481549
assS'CITo2Mu_Lam22TeVDesLL_dimuon_Moriond2017_BE'
p412
(dp413
g3
(lp414
F21.93320029325173
aF0.9305468796288643
asg5
(lp415
F57.92050088967699
aF2.4573587369287235
asg7
(lp416
F-13.255298606171813
aF-0.5623746918646009
asg9
(lp417
F-22.02179434863706
aF-0.9343056070690112
asg11
(lp418
F-0.31383419715836736
aF-0.01331485733873505
assS'CITo2Mu_Lam22TeVDesLL_dimuon_Moriond2017_BB'
p419
(dp420
g3
(lp421
F41.547221975475736
aF1.7626993438992986
asg5
(lp422
F57.74059665715981
aF2.4497260467621
asg7
(lp423
F-9.5771430338867
aF-0.4063237670192874
asg9
(lp424
F-3.8692678148026403
aF-0.1641591306044281
asg11
(lp425
F0.3080695674754539
aF0.013070284814346007
ass.