(dp0
S'CITo2Mu_Lam16TeVConRR_dimuon_Moriond2017_BB'
p1
(dp2
S'1'
p3
(lp4
F18.064795785601746
aF0.7664243760449496
asS'0'
p5
(lp6
F11.608742498866832
aF0.49251723251983226
asS'3'
p7
(lp8
F28.792340616884225
aF1.2215555577859019
asS'2'
p9
(lp10
F32.503618417685516
aF1.3790117397747235
asS'4'
p11
(lp12
F13.848277489829123
aF0.5875326552486716
assS'CITo2Mu_Lam22TeVConLL_dimuon_Moriond2017_BE'
p13
(dp14
g3
(lp15
F59.35439111283597
aF2.518193546945092
asg5
(lp16
F80.72099429315449
aF3.424701746928609
asg7
(lp17
F13.889884406577622
aF0.5892978872272993
asg9
(lp18
F31.40502077941028
aF1.3324021893855267
asg11
(lp19
F3.767553890476003
aF0.15984377426648047
assS'CITo2Mu_Lam22TeVConLL_dimuon_Moriond2017_BB'
p20
(dp21
g3
(lp22
F17.076444009320312
aF0.7244921614525673
asg5
(lp23
F21.233962681000094
aF0.900880740191835
asg7
(lp24
F9.989586907872358
aF0.423822278628534
asg9
(lp25
F13.228894785189738
aF0.5612544726126611
asg11
(lp26
F4.611690118345239
aF0.1956574413247746
assS'CITo2Mu_Lam16TeVConRR_dimuon_Moriond2017_BE'
p27
(dp28
g3
(lp29
F81.53276481333796
aF3.459142253303953
asg5
(lp30
F84.52851100683642
aF3.5862410001921456
asg7
(lp31
F36.19150688573097
aF1.5354755964156
asg9
(lp32
F67.59454313945139
aF2.8677935895067623
asg11
(lp33
F10.69967389791268
aF0.45394871818192534
assS'CITo2Mu_Lam16TeVConLR_dimuon_Moriond2017_BB'
p34
(dp35
g3
(lp36
F82.4188444651262
aF3.496735429131005
asg5
(lp37
F70.14456218488783
aF2.9759817350577396
asg7
(lp38
F39.31706821994174
aF1.6680819332816943
asg9
(lp39
F58.90515892958055
aF2.4991342395586633
asg11
(lp40
F24.03542550738682
aF1.01973674189864
assS'CITo2Mu_Lam10TeVDesRR_dimuon_Moriond2017_BB'
p41
(dp42
g3
(lp43
F-48.525948856659966
aF-2.0587816500033513
asg5
(lp44
F-84.47382054179013
aF-3.583920680270117
asg7
(lp45
F80.88254788694174
aF3.43155588543013
asg9
(lp46
F39.54406302727523
aF1.677712507335273
asg11
(lp47
F64.44742530454475
aF2.734272687771426
assS'CITo2Mu_Lam16TeVConLR_dimuon_Moriond2017_BE'
p48
(dp49
g3
(lp50
F130.9902632294137
aF5.557446203935758
asg5
(lp51
F116.79262358725987
aF4.955091367867163
asg7
(lp52
F49.14332751713137
aF2.0849748082461033
asg9
(lp53
F95.17977817432285
aF4.038135994733702
asg11
(lp54
F18.875140189641016
aF0.800804377436514
assS'CITo2Mu_Lam28TeVDesLR_dimuon_Moriond2017_BE'
p55
(dp56
g3
(lp57
F34.71127019360517
aF1.4726744722498022
asg5
(lp58
F51.01186200243251
aF2.164250012572344
asg7
(lp59
F-7.8930643640107405
aF-0.33487436016803274
asg9
(lp60
F-4.4819519824972645
aF-0.19015311838657836
asg11
(lp61
F-0.15946722569846727
aF-0.006765621400103514
assS'CITo2Mu_Lam28TeVConRR_dimuon_Moriond2017_BB'
p62
(dp63
g3
(lp64
F14.340409917943873
aF0.608412065878376
asg5
(lp65
F14.982837070233472
aF0.6356679416265164
asg7
(lp66
F5.728579987940556
aF0.24304306536253908
asg9
(lp67
F10.585804238511173
aF0.44911763768187285
asg11
(lp68
F2.1568015594882115
aF0.09150534050327012
assS'CITo2Mu_Lam28TeVConRR_dimuon_Moriond2017_BE'
p69
(dp70
g3
(lp71
F48.77799919143922
aF2.0694752400587166
asg5
(lp72
F48.63591520174623
aF2.063447126902119
asg7
(lp73
F7.759131219201279
aF0.32919205807280816
asg9
(lp74
F22.902629011749696
aF0.971676256872478
asg11
(lp75
F1.8253629065182975
aF0.07744358935952846
assS'CITo2Mu_Lam28TeVDesLR_dimuon_Moriond2017_BB'
p76
(dp77
g3
(lp78
F39.344451002626215
aF1.6692436863611315
asg5
(lp79
F46.60097747813086
aF1.9771120310824744
asg7
(lp80
F-7.056758439223408
aF-0.29939290473421615
asg9
(lp81
F1.730785158406718
aF0.07343099533718539
asg11
(lp82
F0.1416308596687088
aF0.006008888477821458
assS'CITo2Mu_Lam10TeVConLR_dimuon_Moriond2017_BB'
p83
(dp84
g3
(lp85
F205.47408212435323
aF8.717527009692704
asg5
(lp86
F132.45813719590456
aF5.619722822073731
asg7
(lp87
F242.1088164034741
aF10.271807151836722
asg9
(lp88
F247.5067851313802
aF10.500823569364842
asg11
(lp89
F148.19395832422194
aF6.287337171716037
assS'CITo2Mu_Lam34TeVConLL_dimuon_Moriond2017_BE'
p90
(dp91
g3
(lp92
F56.06966457843987
aF2.3788344025362
asg5
(lp93
F82.45119732952207
aF3.4981080449193134
asg7
(lp94
F4.510015183540268
aF0.19134373917213696
asg9
(lp95
F18.68149236435403
aF0.7925885960111666
asg11
(lp96
F1.0767150670061443
aF0.04568115151714636
assS'CITo2Mu_Lam10TeVDesLR_dimuon_Moriond2017_BB'
p97
(dp98
g3
(lp99
F136.35133522333751
aF5.784897225615727
asg5
(lp100
F38.38940134336883
aF1.6287243609352835
asg7
(lp101
F201.53826924208468
aF8.550544610980698
asg9
(lp102
F199.26693853567062
aF8.45418021029134
asg11
(lp103
F129.75425068719576
aF5.505006632921723
assS'CITo2Mu_Lam10TeVConLR_dimuon_Moriond2017_BE'
p104
(dp105
g3
(lp106
F401.8092566365448
aF17.047323006673597
asg5
(lp107
F272.0521177855692
aF11.54219383934024
asg7
(lp108
F277.72345877072684
aF11.78280845948181
asg9
(lp109
F406.5010627102385
aF17.24637948011686
asg11
(lp110
F115.40064152396965
aF4.89603457049261
assS'CITo2Mu_Lam34TeVDesLR_dimuon_Moriond2017_BE'
p111
(dp112
g3
(lp113
F43.061213508150104
aF1.8269325646640822
asg5
(lp114
F61.08663147909442
aF2.5916862815226773
asg7
(lp115
F-8.627006997381493
aF-0.366012908951535
asg9
(lp116
F-1.8362199048648336
aF-0.07790421278877846
asg11
(lp117
F-0.7456913178468887
aF-0.03163700325128809
assS'CITo2Mu_Lam28TeVConLR_dimuon_Moriond2017_BE'
p118
(dp119
g3
(lp120
F90.09091587557384
aF3.8222338523355033
asg5
(lp121
F106.73290546348676
aF4.528293673738452
asg7
(lp122
F2.250742846272999
aF0.09549093175840492
asg9
(lp123
F26.742928254431035
aF1.1346063550496104
asg11
(lp124
F1.74774065192512
aF0.07415035600389899
assS'CITo2Mu_Lam10TeVDesLR_dimuon_Moriond2017_BE'
p125
(dp126
g3
(lp127
F212.10990112176648
aF8.99906096640055
asg5
(lp128
F29.691087612937054
aF1.2596861635147016
asg7
(lp129
F236.19164160143146
aF10.020762686157292
asg9
(lp130
F310.78481394950967
aF13.18548296600987
asg11
(lp131
F99.57856051054264
aF4.22476052386798
assS'CITo2Mu_Lam28TeVConLR_dimuon_Moriond2017_BB'
p132
(dp133
g3
(lp134
F60.30603149154143
aF2.558568228847106
asg5
(lp135
F61.32944861541068
aF2.601988140143329
asg7
(lp136
F1.0748765136414704
aF0.0456031483040423
asg9
(lp137
F18.2207059886197
aF0.7730390857535596
asg11
(lp138
F2.326313386600585
aF0.09869711824981899
assS'CITo2Mu_Lam34TeVDesLR_dimuon_Moriond2017_BB'
p139
(dp140
g3
(lp141
F37.0059907404177
aF1.5700312198245567
asg5
(lp142
F43.24988133752822
aF1.834937062756783
asg7
(lp143
F-7.835816018571329
aF-0.33244551857171767
asg9
(lp144
F0.8577168849287773
aF0.03638984554028041
asg11
(lp145
F-0.7632361537658556
aF-0.0323813675984745
assS'CITo2Mu_Lam10TeVConLL_dimuon_Moriond2017_BE'
p146
(dp147
g3
(lp148
F211.64441625855932
aF8.979312116201742
asg5
(lp149
F131.47028229497073
aF5.57781168811701
asg7
(lp150
F164.89446571201205
aF6.995879693105782
asg9
(lp151
F246.42407977339417
aF10.454888271325306
asg11
(lp152
F61.25572534382843
aF2.598860326627305
assS'CITo2Mu_Lam34TeVConLL_dimuon_Moriond2017_BB'
p153
(dp154
g3
(lp155
F7.880695146725714
aF0.33434957872282
asg5
(lp156
F6.283178744612201
aF0.266572697863348
asg7
(lp157
F3.333163415053143
aF0.1414141472152193
asg9
(lp158
F5.961751600247339
aF0.2529356990570787
asg11
(lp159
F1.2059457545303967
aF0.05116394524629427
assS'CITo2Mu_Lam16TeVDesLR_dimuon_Moriond2017_BB'
p160
(dp161
g3
(lp162
F-17.34826617707364
aF-0.7360245993382797
asg5
(lp163
F-36.86114310873836
aF-1.5638858552686004
asg7
(lp164
F14.303145324478443
aF0.6068310630741222
asg9
(lp165
F-1.2265654605759835
aF-0.05203876528454873
asg11
(lp166
F17.281512092223643
aF0.7331924633741196
assS'CITo2Mu_Lam22TeVConLR_dimuon_Moriond2017_BB'
p167
(dp168
g3
(lp169
F57.46499212216406
aF2.4380331366248247
asg5
(lp170
F57.62237239748583
aF2.4447102162191263
asg7
(lp171
F9.036347819577522
aF0.3833797692230123
asg9
(lp172
F24.10684226793765
aF1.0227666984391923
asg11
(lp173
F6.359248980640028
aF0.2698000846478522
assS'CITo2Mu_Lam22TeVConLR_dimuon_Moriond2017_BE'
p174
(dp175
g3
(lp176
F101.51049120504013
aF4.306725401559676
asg5
(lp177
F111.36207030827268
aF4.7246925049171615
asg7
(lp178
F12.895468599022834
aF0.547108397576834
asg9
(lp179
F43.71901919455337
aF1.8548408963576113
asg11
(lp180
F5.120217161421129
aF0.21723241655931697
assS'CITo2Mu_Lam22TeVDesRR_dimuon_Moriond2017_BE'
p181
(dp182
g3
(lp183
F-20.315589996833296
aF-0.861917487033985
asg5
(lp184
F-16.861587053074118
aF-0.7153765528077602
asg7
(lp185
F-1.6082082936583433
aF-0.06823049940037568
asg9
(lp186
F-12.476577219811588
aF-0.5293363414875826
asg11
(lp187
F0.9025395334572637
aF0.03829150946379444
assS'CITo2Mu_Lam22TeVDesLR_dimuon_Moriond2017_BB'
p188
(dp189
g3
(lp190
F50.475577248834725
aF2.1414973774173873
asg5
(lp191
F57.03154293236673
aF2.419643444940494
asg7
(lp192
F-3.88401896343003
aF-0.1647849688379112
asg9
(lp193
F4.38588213640034
aF0.1860772200080174
asg11
(lp194
F3.1174584903034575
aF0.13226256231366912
assS'CITo2Mu_Lam22TeVDesLR_dimuon_Moriond2017_BE'
p195
(dp196
g3
(lp197
F35.15692984902023
aF1.491582210116517
asg5
(lp198
F52.226986749534944
aF2.2158033894921676
asg7
(lp199
F-4.790441744965676
aF-0.20324123056466084
asg9
(lp200
F-5.752377535822404
aF-0.24405270981151106
asg11
(lp201
F2.0694993950798213
aF0.08780142335534398
assS'CITo2Mu_Lam22TeVDesRR_dimuon_Moriond2017_BB'
p202
(dp203
g3
(lp204
F-12.526656637428573
aF-0.5314610312352732
asg5
(lp205
F-17.619522603775636
aF-0.7475330348639644
asg7
(lp206
F-0.5693681261893175
aF-0.02415624378119666
asg9
(lp207
F-6.158541442635936
aF-0.26128478497837526
asg11
(lp208
F1.5454682164824871
aF0.06556866335898276
assS'CITo2Mu_Lam10TeVDesRR_dimuon_Moriond2017_BE'
p209
(dp210
g3
(lp211
F-92.32730956829857
aF-3.917116001067212
asg5
(lp212
F-166.9199374342552
aF-7.081813180499766
asg7
(lp213
F84.41528253229438
aF3.5814371228618205
asg9
(lp214
F49.66760506944371
aF2.1072180209939395
asg11
(lp215
F47.57734052515438
aF2.018535606969492
assS'CITo2Mu_Lam16TeVDesRR_dimuon_Moriond2017_BE'
p216
(dp217
g3
(lp218
F-49.77139154526719
aF-2.111621308244954
asg5
(lp219
F-23.31387293890043
aF-0.9891238590490824
asg7
(lp220
F4.229164806597552
aF0.17942826681003737
asg9
(lp221
F-23.349675663180733
aF-0.9906428399964956
asg11
(lp222
F5.185416961872294
aF0.21999860982117866
assS'CITo2Mu_Lam22TeVConRR_dimuon_Moriond2017_BE'
p223
(dp224
g3
(lp225
F45.50084532463336
aF1.930437376726108
asg5
(lp226
F41.56836053093889
aF1.7635961768540476
asg7
(lp227
F15.431148276564237
aF0.6546881752712207
asg9
(lp228
F33.73382114088133
aF1.4312048210430786
asg11
(lp229
F3.6585055347302737
aF0.15521724435697756
assS'CITo2Mu_Lam34TeVDesRR_dimuon_Moriond2017_BE'
p230
(dp231
g3
(lp232
F5.830776670740875
aF0.24737890340791163
asg5
(lp233
F10.660044735143401
aF0.4522673951983112
asg7
(lp234
F-1.0167600123255482
aF-0.04313747397328277
asg9
(lp235
F-0.9427885717118443
aF-0.039999131536957486
asg11
(lp236
F-0.21193897283844487
aF-0.008991809093506553
assS'CITo2Mu_Lam34TeVDesRR_dimuon_Moriond2017_BB'
p237
(dp238
g3
(lp239
F10.697778097239166
aF0.45386828617120417
asg5
(lp240
F14.112047058700796
aF0.5987234502978603
asg7
(lp241
F-1.5262722832434221
aF-0.06475424888510993
asg9
(lp242
F0.5830714573635873
aF0.024737626885086933
asg11
(lp243
F-0.12133017551824166
aF-0.005147603392290163
assS'CITo2Mu_Lam22TeVConRR_dimuon_Moriond2017_BB'
p244
(dp245
g3
(lp246
F16.78122571773656
aF0.7119671100980166
asg5
(lp247
F21.43847184094693
aF0.9095573290206254
asg7
(lp248
F11.153646419605359
aF0.47320914109560036
asg9
(lp249
F15.259731826867494
aF0.6474155912319713
asg11
(lp250
F4.733808498985944
aF0.2008384854282884
assS'CITo2Mu_Lam10TeVDesLL_dimuon_Moriond2017_BB'
p251
(dp252
g3
(lp253
F21.652209489135657
aF0.9186254494463721
asg5
(lp254
F-4.258152723909234
aF-0.1806581199842513
asg7
(lp255
F75.33080134134036
aF3.196015227640707
asg9
(lp256
F54.55130671006961
aF2.314415933836646
asg11
(lp257
F61.644159908320475
aF2.615340209503279
assS'CITo2Mu_Lam28TeVDesRR_dimuon_Moriond2017_BE'
p258
(dp259
g3
(lp260
F-0.6421305835785915
aF-0.027243293403341834
asg5
(lp261
F13.117333042242763
aF0.5565213087151334
asg7
(lp262
F-2.344274962584386
aF-0.09945916338055556
asg9
(lp263
F-7.002817188174504
aF-0.29710437127007416
asg11
(lp264
F-0.037285127891874215
aF-0.0015818740061851165
assS'CITo2Mu_Lam28TeVConLL_dimuon_Moriond2017_BB'
p265
(dp266
g3
(lp267
F16.914298082285484
aF0.717612892379681
asg5
(lp268
F25.178406903820246
aF1.0682293356699288
asg7
(lp269
F5.093429863975679
aF0.21609592777891662
asg9
(lp270
F8.878442122756667
aF0.37668039788241153
asg11
(lp271
F2.126948265199576
aF0.09023877249333502
assS'CITo2Mu_Lam28TeVConLL_dimuon_Moriond2017_BE'
p272
(dp273
g3
(lp274
F49.415393302077405
aF2.0965175819339543
asg5
(lp275
F74.60937819439346
aF3.165407835682041
asg7
(lp276
F6.946478306436575
aF0.2947141149507928
asg9
(lp277
F19.54481391948383
aF0.8292162275697744
asg11
(lp278
F1.794857264242688
aF0.07614934456847638
assS'CITo2Mu_Lam34TeVDesLL_dimuon_Moriond2017_BE'
p279
(dp280
g3
(lp281
F25.988462173016387
aF1.102597070108998
asg5
(lp282
F49.99510295651021
aF2.1211125796000787
asg7
(lp283
F-11.63226655222946
aF-0.4935152735790548
asg9
(lp284
F-11.251957936471172
aF-0.47738014551027347
asg11
(lp285
F-1.4434959849716589
aF-0.06124234797534089
assS'CITo2Mu_Lam28TeVDesLL_dimuon_Moriond2017_BE'
p286
(dp287
g3
(lp288
F29.539331373215305
aF1.2532476915430244
asg5
(lp289
F46.40798654959417
aF1.9689241194259277
asg7
(lp290
F-12.805621619603777
aF-0.5432965130718534
asg9
(lp291
F-13.05625076391533
aF-0.5539298071221943
asg11
(lp292
F-1.160711760779778
aF-0.049244829423021524
assS'CITo2Mu_Lam16TeVDesRR_dimuon_Moriond2017_BB'
p293
(dp294
g3
(lp295
F-20.446902558976888
aF-0.8674886072227878
asg5
(lp296
F-14.012697089345465
aF-0.5945083880753506
asg7
(lp297
F6.23837890147022
aF0.2646720014904407
asg9
(lp298
F-7.812389391529109
aF-0.33145161096120473
asg11
(lp299
F7.4219871643163895
aF0.314888247226058
assS'CITo2Mu_Lam10TeVDesLL_dimuon_Moriond2017_BE'
p300
(dp301
g3
(lp302
F-47.802111935765424
aF-2.028071850289088
asg5
(lp303
F-93.34329891659536
aF-3.96022077853485
asg7
(lp304
F74.07136098663275
aF3.142581698721882
asg9
(lp305
F43.73125243925614
aF1.855359908974726
asg11
(lp306
F46.92812714410403
aF1.9909918159188271
assS'CITo2Mu_Lam16TeVDesLL_dimuon_Moriond2017_BB'
p307
(dp308
g3
(lp309
F19.08313141021381
aF0.8096286975861713
asg5
(lp310
F35.602041167126686
aF1.5104666840014744
asg7
(lp311
F-2.0524072994544227
aF-0.08707626715205949
asg9
(lp312
F-8.019005608269055
aF-0.34021759463880025
asg11
(lp313
F6.684231946450914
aF0.2835879441815518
assS'CITo2Mu_Lam34TeVConLR_dimuon_Moriond2017_BB'
p314
(dp315
g3
(lp316
F48.627595451559785
aF2.0630941497956425
asg5
(lp317
F48.613353805167094
aF2.0624899279112703
asg7
(lp318
F-2.522731553494957
aF-0.10703043531537346
asg9
(lp319
F11.516363029282587
aF0.4885979035567061
asg11
(lp320
F0.6835340526022806
aF0.028999893826019696
assS'CITo2Mu_Lam28TeVDesLL_dimuon_Moriond2017_BB'
p321
(dp322
g3
(lp323
F50.62301639516795
aF2.147752690628462
asg5
(lp324
F79.44608090569648
aF3.3706117528267843
asg7
(lp325
F-10.18326364752415
aF-0.432039286786487
asg9
(lp326
F-1.608563798395238
aF-0.06824558218898781
asg11
(lp327
F-1.060921570643231
aF-0.045011090214534685
assS'CITo2Mu_Lam28TeVDesRR_dimuon_Moriond2017_BB'
p328
(dp329
g3
(lp330
F-4.199515588429051
aF-0.1781703570166078
asg5
(lp331
F-4.419821737894381
aF-0.1875171553500497
asg7
(lp332
F-1.2747676791432312
aF-0.05408381222157695
asg9
(lp333
F-2.571601839732267
aF-0.10910382596318924
asg11
(lp334
F0.24198171143543545
aF0.010266414544747365
assS'CITo2Mu_Lam34TeVConLR_dimuon_Moriond2017_BE'
p335
(dp336
g3
(lp337
F71.71034129361976
aF3.042412116595214
asg5
(lp338
F79.06478624314127
aF3.354434790335403
asg7
(lp339
F-0.8025987509615149
aF-0.034051381162604415
asg9
(lp340
F20.300883977087437
aF0.8612935634567913
asg11
(lp341
F0.36214437490140483
aF0.015364484595680803
assS'CITo2Mu_Lam16TeVDesLL_dimuon_Moriond2017_BE'
p342
(dp343
g3
(lp344
F-17.808858643701683
aF-0.7555658827292473
asg5
(lp345
F23.090493072926847
aF0.9796466539684546
asg7
(lp346
F-6.579357946673042
aF-0.27913851719676647
asg9
(lp347
F-33.078378495191316
aF-1.4033967446763027
asg11
(lp348
F4.3577825123087335
aF0.1848850539233793
assS'CITo2Mu_Lam34TeVDesLL_dimuon_Moriond2017_BB'
p349
(dp350
g3
(lp351
F50.95154538724614
aF2.1616909953153542
asg5
(lp352
F68.47220461094923
aF2.9050296121916994
asg7
(lp353
F-10.345143434776126
aF-0.4389072645046615
asg9
(lp354
F0.8189095118515013
aF0.03474338814050172
asg11
(lp355
F-1.3856848834672268
aF-0.05878963066124202
assS'CITo2Mu_Lam34TeVConRR_dimuon_Moriond2017_BE'
p356
(dp357
g3
(lp358
F30.384487086716604
aF1.2891046117135438
asg5
(lp359
F31.698232401440237
aF1.344842104961132
asg7
(lp360
F6.215998281882634
aF0.26372247221778833
asg9
(lp361
F19.585274524878514
aF0.8309328256765042
asg11
(lp362
F0.9263195155067554
aF0.039300408657615846
assS'CITo2Mu_Lam34TeVConRR_dimuon_Moriond2017_BB'
p363
(dp364
g3
(lp365
F6.261810364728717
aF0.2656661142842331
asg5
(lp366
F6.838644712407472
aF0.29013912301613104
asg7
(lp367
F3.618623711801675
aF0.15352520191064398
asg9
(lp368
F7.056681314382132
aF0.29938963260432033
asg11
(lp369
F1.020249019552565
aF0.04328550001347272
assS'CITo2Mu_Lam10TeVConRR_dimuon_Moriond2017_BB'
p370
(dp371
g3
(lp372
F85.96876030881106
aF3.647345603073673
asg5
(lp373
F29.180133559451065
aF1.2380082189490198
asg7
(lp374
F136.99614111377156
aF5.812254022676224
asg9
(lp375
F142.19284546288935
aF6.032731515781192
asg11
(lp376
F78.70756879595487
aF3.339279337579584
assS'CITo2Mu_Lam16TeVConLL_dimuon_Moriond2017_BE'
p377
(dp378
g3
(lp379
F52.45891352040667
aF2.2256432090374934
asg5
(lp380
F53.34166761053598
aF2.263095293232529
asg7
(lp381
F34.7462239729109
aF1.4741574355123128
asg9
(lp382
F54.81552192868571
aF2.325625636203214
asg11
(lp383
F11.204873475915779
aF0.47538252102943973
assS'CITo2Mu_Lam16TeVConLL_dimuon_Moriond2017_BB'
p384
(dp385
g3
(lp386
F29.856786774709747
aF1.2667161835702856
asg5
(lp387
F27.31339531200331
aF1.1588092225407838
asg7
(lp388
F27.03386964259728
aF1.1469499527596212
asg9
(lp389
F32.73150833764214
aF1.3886802902406468
asg11
(lp390
F13.852220777408954
aF0.5876999547719437
assS'CITo2Mu_Lam10TeVConRR_dimuon_Moriond2017_BE'
p391
(dp392
g3
(lp393
F202.3833493529853
aF8.58639832360452
asg5
(lp394
F121.65150764529972
aF5.161236359853514
asg7
(lp395
F163.23805426165796
aF6.925604106966957
asg9
(lp396
F241.96859372869244
aF10.26585800758387
asg11
(lp397
F61.25161064117449
aF2.5986857545783546
assS'CITo2Mu_Lam10TeVConLL_dimuon_Moriond2017_BB'
p398
(dp399
g3
(lp400
F69.84662554438438
aF2.963341353925904
asg5
(lp401
F22.357266009258524
aF0.9485384642362923
asg7
(lp402
F131.51823573846778
aF5.579846180421691
asg9
(lp403
F128.47604325587332
aF5.450776884374654
asg11
(lp404
F79.12982854595589
aF3.3571943015384553
assS'CITo2Mu_Lam16TeVDesLR_dimuon_Moriond2017_BE'
p405
(dp406
g3
(lp407
F-39.97605039987047
aF-1.6960401793682165
asg5
(lp408
F-66.87680176097683
aF-2.83734240175531
asg7
(lp409
F14.851568167574058
aF0.6300986737527531
asg9
(lp410
F-6.312423436838685
aF-0.2678134450745716
asg11
(lp411
F12.965546393923946
aF0.5500815466159447
assS'CITo2Mu_Lam22TeVDesLL_dimuon_Moriond2017_BE'
p412
(dp413
g3
(lp414
F21.741937705521195
aF0.9224322952625714
asg5
(lp415
F57.07225149051533
aF2.421370562791646
asg7
(lp416
F-12.797839711512026
aF-0.5429663546729185
asg9
(lp417
F-21.264733470540705
aF-0.9021862342286329
asg11
(lp418
F-0.29521866056707813
aF-0.012525067009187435
assS'CITo2Mu_Lam22TeVDesLL_dimuon_Moriond2017_BB'
p419
(dp420
g3
(lp421
F42.33617809688599
aF1.796171917309768
asg5
(lp422
F58.61506025522158
aF2.486826395167516
asg7
(lp423
F-9.515599150046313
aF-0.40371268116304176
asg9
(lp424
F-3.6095209362975424
aF-0.15313900385344853
asg11
(lp425
F0.30824682162550054
aF0.013077805071035495
ass.