(dp0
S'CITo2Mu_Lam16TeVConRR_dimuon_Moriond2017_BB'
p1
(dp2
S'1300'
p3
(lp4
F33.67204116248339
aF0.33641659019642994
asS'600'
p5
(lp6
F83.16244606937852
aF0.799866309342184
asS'700'
p7
(lp8
F75.7180285783503
aF0.828457213774746
asS'1200'
p9
(lp10
F38.65497540149818
aF0.8776361209736859
asS'1900'
p11
(lp12
F15.227692237717687
aF0.27936569456630067
asS'2200'
p13
(lp14
F10.332547031684028
aF0.27658655569581814
asS'2300'
p15
(lp16
F9.06906866570874
aF0.27592864364454983
asS'1500'
p17
(lp18
F25.694733258622165
aF0.30402837474226047
asS'2400'
p19
(lp20
F7.95050643464
aF0.27473726575537
asS'400'
p21
(lp22
F91.67049861576788
aF0.997217395108754
asS'1400'
p23
(lp24
F29.386547650364655
aF0.3178994722791263
asS'500'
p25
(lp26
F87.29040819078205
aF0.848924685714549
asS'2500'
p27
(lp28
F6.958938543950325
aF0.2727113069123865
asS'1700'
p29
(lp30
F19.738757270262965
aF0.28682829461437825
asS'900'
p31
(lp32
F58.74136263503834
aF0.7634159366759987
asS'800'
p33
(lp34
F67.12438280087545
aF0.9206748709024719
asS'1800'
p35
(lp36
F17.33109773123048
aF0.2821745432611371
asS'1600'
p37
(lp38
F22.504852210991686
aF0.29390696324594284
asS'2000'
p39
(lp40
F13.383757678141176
aF0.2778442311639264
asS'1100'
p41
(lp42
F44.44371226165584
aF0.846272675618109
asS'2100'
p43
(lp44
F11.762269798954453
aF0.27708057837061906
asS'1000'
p45
(lp46
F51.13048023585277
aF0.806107698727658
assS'CITo2Mu_Lam22TeVConLL_dimuon_Moriond2017_BE'
p47
(dp48
S'1300'
p49
(lp50
F12.001089264671016
aF0.16149419208553625
asS'600'
p51
(lp52
F69.59904184995446
aF0.49907891270122956
asS'700'
p53
(lp54
F49.57627226575829
aF0.3526046528566852
asS'1200'
p55
(lp56
F14.683737511196142
aF0.16752440325050236
asS'1900'
p57
(lp58
F4.036119103751938
aF0.0388263270303532
asS'2200'
p59
(lp60
F2.452369499117345
aF0.02939396355512217
asS'2300'
p61
(lp62
F2.0842550809490543
aF0.027388381701799972
asS'1500'
p63
(lp64
F8.184852810439272
aF0.0657355416765803
asS'2400'
p65
(lp66
F1.7730752213026852
aF0.02574643836711298
asS'400'
p67
(lp68
F182.00684130363743
aF1.5148809540114712
asS'1400'
p69
(lp70
F9.88045112999895
aF0.0768649617497271
asS'500'
p71
(lp72
F105.78926524938606
aF0.8031306104321012
asS'2500'
p73
(lp74
F1.5091028316009303
aF0.024367263911487223
asS'1700'
p75
(lp76
F5.7023528000208135
aF0.14079256690253025
asS'900'
p77
(lp78
F28.67521011362804
aF0.2458524970932282
asS'800'
p79
(lp80
F37.11244741714455
aF0.2674057666728641
asS'1800'
p81
(lp82
F4.789353026860246
aF0.04360085715866225
asS'1600'
p83
(lp84
F6.816184376488694
aF0.05676498391970563
asS'2000'
p85
(lp86
F3.411043977018827
aF0.034974708199992675
asS'1100'
p87
(lp88
F18.12635491945121
aF0.13139821506204097
asS'2100'
p89
(lp90
F2.8895527939708825
aF0.03187925325309751
asS'1000'
p91
(lp92
F22.628854598053692
aF0.2313935885564728
assS'CITo2Mu_Lam22TeVConLL_dimuon_Moriond2017_BB'
p93
(dp94
S'1300'
p95
(lp96
F11.64777179297969
aF0.15328601312549558
asS'600'
p97
(lp98
F31.0535014066063
aF0.26795579492544186
asS'700'
p99
(lp100
F27.13513486151564
aF0.22174550127170226
asS'1200'
p101
(lp102
F13.416569067977118
aF0.15932687627235775
asS'1900'
p103
(lp104
F5.144519144303653
aF0.045003592770955995
asS'2200'
p105
(lp106
F3.467073275300903
aF0.03654954174723026
asS'2300'
p107
(lp108
F3.041281042896114
aF0.03473740942343335
asS'1500'
p109
(lp110
F8.818748052090323
aF0.0671450788187115
asS'2400'
p111
(lp112
F2.667256592902728
aF0.03327756673140633
asS'400'
p113
(lp114
F48.970647531720715
aF0.5182000966206431
asS'1400'
p115
(lp116
F10.126979528412017
aF0.07565165668902016
asS'500'
p117
(lp118
F36.32147558939096
aF0.3432995767726375
asS'2500'
p119
(lp120
F2.338117064458843
aF0.032083162285060744
asS'1700'
p121
(lp122
F6.71832583570229
aF0.05410714101067278
asS'900'
p123
(lp124
F20.579197619546818
aF0.18316960657002493
asS'800'
p125
(lp126
F23.67456036888504
aF0.19457920285477112
asS'1800'
p127
(lp128
F5.87580309148264
aF0.049138494930317356
asS'1600'
p129
(lp130
F7.691596226952225
aF0.06004799184628195
asS'2000'
p131
(lp132
F4.508091584518539
aF0.04159118073476208
asS'1100'
p133
(lp134
F15.47134132459
aF0.1889813273526316
asS'2100'
p135
(lp136
F3.9527836707547115
aF0.0388038584397017
asS'1000'
p137
(lp138
F17.84908813033497
aF0.18300361120723818
assS'CITo2Mu_Lam16TeVConRR_dimuon_Moriond2017_BE'
p139
(dp140
S'1300'
p141
(lp142
F32.46764838748185
aF0.3104767650759054
asS'600'
p143
(lp144
F144.3429096149439
aF1.1490229087088508
asS'700'
p145
(lp146
F115.03069301648145
aF1.0737327654842057
asS'1200'
p147
(lp148
F39.44303180459957
aF0.34953030183532313
asS'1900'
p149
(lp150
F11.422149203892504
aF0.22367752586396009
asS'2200'
p151
(lp152
F7.136283744502718
aF0.2159216315503728
asS'2300'
p153
(lp154
F6.122598598804564
aF0.21361024659774086
asS'1500'
p155
(lp156
F22.438526575302273
aF0.2607326910310756
asS'2400'
p157
(lp158
F5.257200524794144
aF0.21081690614535256
asS'400'
p159
(lp160
F249.9376288171211
aF2.0922328256030993
asS'1400'
p161
(lp162
F26.906516071895233
aF0.2816801168426731
asS'500'
p163
(lp164
F183.0866522883564
aF1.421397337863339
asS'2500'
p165
(lp166
F4.515271974132201
aF0.20731708521601167
asS'1700'
p167
(lp168
F15.866190759189783
aF0.23541609953197187
asS'900'
p169
(lp170
F73.719466149396
aF0.5672544016380339
asS'800'
p171
(lp172
F91.91580720622346
aF1.0951586921436838
asS'1800'
p173
(lp174
F13.436132672666956
aF0.22837917000529595
asS'1600'
p175
(lp176
F18.820055942033505
aF0.24579859105631344
asS'2000'
p177
(lp178
F9.74131936764661
aF0.22046945349660405
asS'1100'
p179
(lp180
F48.25418786941921
aF0.8261412168833118
asS'2100'
p181
(lp182
F8.329401718314017
aF0.21806685040912632
asS'1000'
p183
(lp184
F59.448245241129854
aF0.8210423258022035
assS'CITo2Mu_Lam16TeVConLR_dimuon_Moriond2017_BB'
p185
(dp186
S'1300'
p187
(lp188
F52.74841592500171
aF0.4894173449231082
asS'600'
p189
(lp190
F151.02818161857812
aF1.456676659053963
asS'700'
p191
(lp192
F123.30212531245093
aF1.3869342479391926
asS'1200'
p193
(lp194
F59.43169497408904
aF0.5186631406386462
asS'1900'
p195
(lp196
F26.85906551544941
aF0.43602748056051566
asS'2200'
p197
(lp198
F19.119766951988353
aF0.4515640665041933
asS'2300'
p199
(lp200
F17.021223427247048
aF0.45811818583418373
asS'1500'
p201
(lp202
F41.9439653062099
aF0.4528243696569097
asS'2400'
p203
(lp204
F15.123200085396698
aF0.4640764964560458
asS'400'
p205
(lp206
F245.41886236378377
aF2.620109030203737
asS'1400'
p207
(lp208
F46.98187014934556
aF0.4680652275592446
asS'500'
p209
(lp210
F191.0453994337346
aF1.824128214603793
asS'2500'
p211
(lp212
F13.406679771401837
aF0.468762186425466
asS'1700'
p213
(lp214
F33.552018861295586
aF0.4368487641472877
asS'900'
p215
(lp216
F88.46582857446637
aF1.2508806033524968
asS'800'
p217
(lp218
F103.40833175705632
aF1.4651709019676755
asS'1800'
p219
(lp220
F30.024272758617016
aF0.4348427414246288
asS'1600'
p221
(lp222
F37.50031567127665
aF0.4426493638058391
asS'2000'
p223
(lp224
F24.010361995917513
aF0.43972114127456124
asS'1100'
p225
(lp226
F67.30357561192687
aF1.8664065894728987
asS'2100'
p227
(lp228
F21.44086131557323
aF0.445166332791952
asS'1000'
p229
(lp230
F76.77093880182066
aF1.2693042471896154
assS'CITo2Mu_Lam10TeVDesRR_dimuon_Moriond2017_BB'
p231
(dp232
S'1300'
p233
(lp234
F130.58355679482665
aF3.618899027577762
asS'600'
p235
(lp236
F175.08535269224188
aF1.9596057607089137
asS'700'
p237
(lp238
F191.0155512712733
aF2.5901084675504866
asS'1200'
p239
(lp240
F142.89809931532938
aF3.5608204205392116
asS'1900'
p241
(lp242
F72.52455142236494
aF1.2622731162037313
asS'2200'
p243
(lp244
F52.466574027741224
aF1.3388047428674348
asS'2300'
p245
(lp246
F46.85051140514157
aF1.3624542693937023
asS'1500'
p247
(lp248
F108.21027796593611
aF3.6375498627668796
asS'2400'
p249
(lp250
F41.71482806081349
aF1.3815797141060104
asS'400'
p251
(lp252
F15.646558452201361
aF0.16778790035333516
asS'1400'
p253
(lp254
F119.00215301895085
aF3.6421307475034106
asS'500'
p255
(lp256
F123.25077712599693
aF1.2528354875875487
asS'2500'
p257
(lp258
F37.03001201897871
aF1.3945263647362494
asS'1700'
p259
(lp260
F88.9482270515184
aF1.23077819411902
asS'900'
p261
(lp262
F180.7494474766952
aF3.0811834694364486
asS'800'
p263
(lp264
F189.70904625031898
aF3.1983502586223476
asS'1800'
p265
(lp266
F80.40357480982851
aF1.243008926022723
asS'1600'
p267
(lp268
F98.20300386766513
aF1.2274081836592268
asS'2000'
p269
(lp270
F65.26820132091562
aF1.286313690583329
asS'1100'
p271
(lp272
F155.75950981884202
aF3.4593862377245848
asS'2100'
p273
(lp274
F58.59449271217032
aF1.3126526812529677
asS'1000'
p275
(lp276
F168.7128880242267
aF3.303576998688588
assS'CITo2Mu_Lam16TeVConLR_dimuon_Moriond2017_BE'
p277
(dp278
S'1300'
p279
(lp280
F49.588157576988785
aF0.44792649782141547
asS'600'
p281
(lp282
F210.29558537707453
aF1.7457634641701152
asS'700'
p283
(lp284
F163.38318330816122
aF1.6481252044036736
asS'1200'
p285
(lp286
F58.75778725984837
aF0.49698034270699365
asS'1900'
p287
(lp288
F20.12687813776833
aF0.3521019762750059
asS'2200'
p289
(lp290
F13.19840476297941
aF0.3525118339277606
asS'2300'
p291
(lp292
F11.456191969597604
aF0.3520271149909193
asS'1500'
p293
(lp294
F36.08572661877015
aF0.3871133337176456
asS'2400'
p295
(lp296
F9.929061290325183
aF0.3501705837409201
asS'400'
p297
(lp298
F370.2427128860909
aF3.0961581613170788
asS'1400'
p299
(lp300
F42.16994494271924
aF0.4122481977317866
asS'500'
p301
(lp302
F275.97791987009487
aF2.1558221969574296
asS'2500'
p303
(lp304
F8.587642609079516
aF0.34654963655243226
asS'1700'
p305
(lp306
F26.793122988520217
aF0.3599771638392552
asS'900'
p307
(lp308
F104.0261780135308
aF0.7767910392190317
asS'800'
p309
(lp310
F129.28399990497329
aF1.4692036685077727
asS'1800'
p311
(lp312
F23.198846110426814
aF0.3544095577106277
asS'1600'
p313
(lp314
F31.03387202641127
aF0.37031686830508637
asS'2000'
p315
(lp316
F17.48237520040181
aF0.3517298910707234
asS'1100'
p317
(lp318
F70.26561341645453
aF0.5634317204686324
asS'2100'
p319
(lp320
F15.192005174303368
aF0.35217194179901523
asS'1000'
p321
(lp322
F84.9497556097929
aF1.2752756173168152
assS'CITo2Mu_Lam28TeVDesLR_dimuon_Moriond2017_BE'
p323
(dp324
S'1300'
p325
(lp326
F-4.27534205662748
aF-0.03930818912899413
asS'600'
p327
(lp328
F-4.655456144007644
aF-0.03823184219704615
asS'700'
p329
(lp330
F-12.742568611222225
aF-0.12304396353475784
asS'1200'
p331
(lp332
F-5.883932768385321
aF-0.050395186372721196
asS'1900'
p333
(lp334
F-0.06050118265400739
aF-0.0011802706578995228
asS'2200'
p335
(lp336
F0.34955246770626736
aF0.01069033690051713
asS'2300'
p337
(lp338
F0.3940914825080246
aF0.013929286693850027
asS'1500'
p339
(lp340
F-2.031082560328331
aF-0.022763583650609057
asS'2400'
p341
(lp342
F0.41183913316880816
aF0.016754890841098945
asS'400'
p343
(lp344
F66.18021056300677
aF0.5602721500550344
asS'1400'
p345
(lp346
F-3.007258614327524
aF-0.030249826780946825
asS'500'
p347
(lp348
F18.7529554984053
aF0.1480992624749284
asS'2500'
p349
(lp350
F0.4105456481567171
aF0.01913935456633592
asS'1700'
p351
(lp352
F-0.7453962016136977
aF-0.010837072150758393
asS'900'
p353
(lp354
F-12.392480469523633
aF-0.0948260481018801
asS'800'
p355
(lp356
F-13.901543177552526
aF-0.1705131228006185
asS'1800'
p357
(lp358
F-0.345670940666273
aF-0.00580773630206513
asS'1600'
p359
(lp360
F-1.293408202503123
aF-0.016409076136513254
asS'2000'
p361
(lp362
F0.1370389586173424
aF0.0031093325728791914
asS'1100'
p363
(lp364
F-7.852741788162994
aF-0.12585051230017646
asS'2100'
p365
(lp366
F0.2681831794453724
aF0.007072637991114449
asS'1000'
p367
(lp368
F-10.115784169246425
aF-0.07921331210650924
assS'CITo2Mu_Lam28TeVConRR_dimuon_Moriond2017_BB'
p369
(dp370
S'1300'
p371
(lp372
F5.725395433710602
aF0.058404212235715645
asS'600'
p373
(lp374
F23.924576419151776
aF0.23001652392842453
asS'700'
p375
(lp376
F18.377876591798127
aF0.19799178961077965
asS'1200'
p377
(lp378
F6.764010882198537
aF0.06416743879563208
asS'1900'
p379
(lp380
F2.294485476368033
aF0.0455531279734141
asS'2200'
p381
(lp382
F1.478397246336467
aF0.04371371744352002
asS'2300'
p383
(lp384
F1.2752161326161882
aF0.04304510600855085
asS'1500'
p385
(lp386
F4.170319654873138
aF0.05124309711945649
asS'2400'
p387
(lp388
F1.098391320323958
aF0.04225228613372624
asS'400'
p389
(lp390
F48.07013698077685
aF0.5284905115669803
asS'1400'
p391
(lp392
F4.875072626272543
aF0.05424892397722071
asS'500'
p393
(lp394
F32.611919411639406
aF0.320325854049894
asS'2500'
p395
(lp396
F0.9443420129336564
aF0.04130030731661197
asS'1700'
p397
(lp398
F3.081689811729513
aF0.04751244783701353
asS'900'
p399
(lp400
F11.771333115024134
aF0.14797969958242826
asS'800'
p401
(lp402
F14.551180166091001
aF0.17392449243053285
asS'1800'
p403
(lp404
F2.657558481410822
aF0.046386436624602255
asS'1600'
p405
(lp406
F3.5801714413977965
aF0.049073138414733
asS'2000'
p407
(lp408
F1.9821143514266368
aF0.04489360818563588
asS'1100'
p409
(lp410
F8.051397189422602
aF0.15407427502173426
asS'2100'
p411
(lp412
F1.7122655185416091
aF0.04430796078642891
asS'1000'
p413
(lp414
F9.675855328042559
aF0.08368106505905025
assS'CITo2Mu_Lam28TeVConRR_dimuon_Moriond2017_BE'
p415
(dp416
S'1300'
p417
(lp418
F6.2049174278021475
aF0.05996372879533621
asS'600'
p419
(lp420
F47.7027481383999
aF0.39170283290677044
asS'700'
p421
(lp422
F32.35781383791743
aF0.311185719662299
asS'1200'
p423
(lp424
F7.774630456293082
aF0.06965625247027973
asS'1900'
p425
(lp426
F1.8750045802251707
aF0.03930487682922639
asS'2200'
p427
(lp428
F1.0807787204273436
aF0.03595890354442563
asS'2300'
p429
(lp430
F0.9012739933979724
aF0.03478176252626335
asS'1500'
p431
(lp432
F4.0680715594548005
aF0.0482880116084291
asS'2400'
p433
(lp434
F0.7516175077201372
aF0.033494268870891686
asS'400'
p435
(lp436
F110.71700635523439
aF0.9430908800186786
asS'1400'
p437
(lp438
F5.003642564273006
aF0.05312039465286963
asS'500'
p439
(lp440
F73.10237579576642
aF0.5809024148588202
asS'2500'
p441
(lp442
F0.6265010925110461
aF0.032081521068890534
asS'1700'
p443
(lp444
F2.7386276581776423
aF0.04245092135533309
asS'900'
p445
(lp446
F16.84648181986961
aF0.13301891995206794
asS'800'
p447
(lp448
F22.918694431698242
aF0.281329913469243
asS'1800'
p449
(lp450
F2.262318243155583
aF0.040677735150789755
asS'1600'
p451
(lp452
F3.3290883851050035
aF0.044877013545527464
asS'2000'
p453
(lp454
F1.5579170010868428
aF0.038144079268908296
asS'1100'
p455
(lp456
F9.871480018251113
aF0.08346623035608516
asS'2100'
p457
(lp458
F1.2968223937505154
aF0.03705978046637573
asS'1000'
p459
(lp460
F12.751413600831057
aF0.10343198436141618
assS'CITo2Mu_Lam28TeVDesLR_dimuon_Moriond2017_BB'
p461
(dp462
S'1300'
p463
(lp464
F-3.770189481888284
aF-0.035866446909448915
asS'600'
p465
(lp466
F11.04342166908259
aF0.1031713329035652
asS'700'
p467
(lp468
F-4.054480546624973
aF-0.04098414297539576
asS'1200'
p469
(lp470
F-5.261807310780377
aF-0.046679040819962464
asS'1900'
p471
(lp472
F0.4169225360622386
aF0.007558724647183957
asS'2200'
p473
(lp474
F0.7652434041619822
aF0.020365104329610823
asS'2300'
p475
(lp476
F0.7817254262778002
aF0.023667824221943842
asS'1500'
p477
(lp478
F-1.563208882649814
aF-0.0178383619855077
asS'2400'
p479
(lp480
F0.7701348191697005
aF0.026504030576456176
asS'400'
p481
(lp482
F107.94994647374665
aF1.1753504743799574
asS'1400'
p483
(lp484
F-2.5382282931494515
aF-0.02628751742170112
asS'500'
p485
(lp486
F46.40530180924077
aF0.4487122993317663
asS'2500'
p487
(lp488
F0.7392786145243758
aF0.028876447241432335
asS'1700'
p489
(lp490
F-0.2608464372692154
aF-0.0037094875341539524
asS'900'
p491
(lp492
F-9.75762060098387
aF-0.15473178818992545
asS'800'
p493
(lp494
F-9.124279273637455
aF-0.11378797412717895
asS'1800'
p495
(lp496
F0.13940818520102205
aF0.0022337703202003818
asS'1600'
p497
(lp498
F-0.8163015572945476
aF-0.010360884860866726
asS'2000'
p499
(lp500
F0.5992998938798837
aF0.012329904001116452
asS'1100'
p501
(lp502
F-6.950598936674844
aF-0.14758561652434743
asS'2100'
p503
(lp504
F0.7092896112715525
aF0.016590177954404182
asS'1000'
p505
(lp506
F-8.626417082370985
aF-0.07048535816545862
assS'CITo2Mu_Lam10TeVConLR_dimuon_Moriond2017_BB'
p507
(dp508
S'1300'
p509
(lp510
F328.3589095207708
aF8.66169191061564
asS'600'
p511
(lp512
F753.0164927780345
aF8.696903939590198
asS'700'
p513
(lp514
F657.8159711542589
aF9.061032775782476
asS'1200'
p515
(lp516
F366.4008772130098
aF3.1969294669843697
asS'1900'
p517
(lp518
F167.51276554601094
aF7.678339249916982
asS'2200'
p519
(lp520
F116.71938746330704
aF2.688986808464312
asS'2300'
p521
(lp522
F102.9915859569096
aF2.7097276832625683
asS'1500'
p523
(lp524
F263.6424535657827
aF8.464063121384482
asS'2400'
p525
(lp526
F90.65932377684884
aF2.7251905793015507
asS'400'
p527
(lp528
F1012.1102030100478
aF10.797658592238115
asS'1400'
p529
(lp530
F294.30087124708376
aF8.582671085155482
asS'500'
p531
(lp532
F870.3917738276278
aF9.060321349111804
asS'2500'
p533
(lp534
F79.61134167144553
aF2.7319934482833084
asS'1700'
p535
(lp536
F210.85895742707086
aF2.6689876056595523
asS'900'
p537
(lp538
F513.9524180458268
aF10.446174492270988
asS'800'
p539
(lp540
F579.562850808548
aF9.716360727921783
asS'1800'
p541
(lp542
F188.12248982965158
aF2.645047133246635
asS'1600'
p543
(lp544
F235.94219370971058
aF2.7158225712780233
asS'2000'
p545
(lp546
F148.84539500651238
aF7.423582190458148
asS'1100'
p547
(lp548
F409.2162299596784
aF11.792420681906608
asS'2100'
p549
(lp550
F131.96129062389386
aF2.6671624028522176
asS'1000'
p551
(lp552
F457.8921720252742
aF8.627751921842982
assS'CITo2Mu_Lam34TeVConLL_dimuon_Moriond2017_BE'
p553
(dp554
S'1300'
p555
(lp556
F3.633680928632515
aF0.027804805100907087
asS'600'
p557
(lp558
F39.41027627131439
aF0.2829945951005493
asS'700'
p559
(lp560
F23.549781912879155
aF0.16820965867358953
asS'1200'
p561
(lp562
F4.566198466585504
aF0.05186465070474934
asS'1900'
p563
(lp564
F1.130206649836159
aF0.010940875282576657
asS'2200'
p565
(lp566
F0.6660869688954236
aF0.008090159938876325
asS'2300'
p567
(lp568
F0.5601937494502001
aF0.00749752662494609
asS'1500'
p569
(lp570
F2.3941414618708237
aF0.0194248490769838
asS'2400'
p571
(lp572
F0.4715290091305979
aF0.007015544238382847
asS'400'
p573
(lp574
F145.72477638563169
aF1.2115607094583394
asS'1400'
p575
(lp576
F2.933873604937382
aF0.023076633539272386
asS'500'
p577
(lp578
F72.28486359724593
aF0.5484551516664503
asS'2500'
p579
(lp580
F0.3970797806097677
aF0.006611666484687953
asS'1700'
p581
(lp582
F1.6294853870405737
aF0.014252455822661799
asS'900'
p583
(lp584
F10.576209325670575
aF0.09118247225466553
asS'800'
p585
(lp586
F15.262860639694281
aF0.11073769772092257
asS'1800'
p587
(lp588
F1.3546228192091205
aF0.012413656236518432
asS'1600'
p589
(lp590
F1.9692263628334317
aF0.01654715905763244
asS'2000'
p591
(lp592
F0.9456484459791481
aF0.009765642225923214
asS'1100'
p593
(lp594
F5.85444118687181
aF0.05705917248017533
asS'2100'
p595
(lp596
F0.7929809358634254
aF0.008831703837960104
asS'1000'
p597
(lp598
F7.7186924941345865
aF0.0710132338552184
assS'CITo2Mu_Lam10TeVDesLR_dimuon_Moriond2017_BB'
p599
(dp600
S'1300'
p601
(lp602
F281.9374788031192
aF7.4730686776798505
asS'600'
p603
(lp604
F621.3763673536082
aF7.117698832967593
asS'700'
p605
(lp606
F549.6059190250885
aF7.528026759640913
asS'1200'
p607
(lp608
F313.30061089989675
aF7.473712380161154
asS'1900'
p609
(lp610
F148.69360565898475
aF2.3249388602739325
asS'2200'
p611
(lp612
F105.78155015529799
aF2.420398217165249
asS'2300'
p613
(lp614
F94.0055411317527
aF2.4574644834582613
asS'1500'
p615
(lp616
F228.5236191466511
aF7.356367661486876
asS'2400'
p617
(lp618
F83.33386178437047
aF2.489925098857226
asS'400'
p619
(lp620
F752.5693941032341
aF7.985877576321431
asS'1400'
p621
(lp622
F253.84024528643482
aF7.432522715147341
asS'500'
p623
(lp624
F698.9313273650299
aF7.21964057901448
asS'2500'
p625
(lp626
F73.68348334514053
aF2.5142722564662616
asS'1700'
p627
(lp628
F184.81977241217447
aF2.320531599526436
asS'900'
p629
(lp630
F434.45392163961276
aF8.831516642670483
asS'800'
p631
(lp632
F487.59822560483656
aF8.15526966063142
asS'1800'
p633
(lp634
F165.90889189592366
aF2.3139338148214477
asS'1600'
p635
(lp636
F205.61405925372546
aF7.248782711733716
asS'2000'
p637
(lp638
F133.01857001851366
aF2.3494523852776172
asS'1100'
p639
(lp640
F348.56747955485366
aF10.068230035207977
asS'2100'
p641
(lp642
F118.75242154580293
aF2.382863635980939
asS'1000'
p643
(lp644
F388.58174508758617
aF7.341843865168729
assS'CITo2Mu_Lam10TeVConLR_dimuon_Moriond2017_BE'
p645
(dp646
S'1300'
p647
(lp648
F297.3667717513843
aF2.7055940969768217
asS'600'
p649
(lp650
F981.6228429258625
aF9.188946291713362
asS'700'
p651
(lp652
F809.8839711074897
aF9.47952517272482
asS'1200'
p653
(lp654
F346.3478917962646
aF2.967074734406255
asS'1900'
p655
(lp656
F124.77096425621409
aF2.128376412576904
asS'2200'
p657
(lp658
F81.14223556585036
aF2.112463954164478
asS'2300'
p659
(lp660
F70.15773817604264
aF2.103195596008782
asS'1500'
p661
(lp662
F221.29915975237867
aF7.490912021179978
asS'2400'
p663
(lp664
F60.57122086973849
aF2.0861738574829896
asS'400'
p665
(lp666
F1450.0635730437548
aF12.086065336674158
asS'1400'
p667
(lp668
F256.1950320378104
aF7.717658541285413
asS'500'
p669
(lp670
F1194.8048743811619
aF9.803636571583683
asS'2500'
p671
(lp672
F52.20584584669675
aF2.059618161521055
asS'1700'
p673
(lp674
F165.93960574242612
aF2.1865825004130617
asS'900'
p675
(lp676
F564.3207360128903
aF8.230705936970095
asS'800'
p677
(lp678
F673.2790977615186
aF10.081371391424723
asS'1800'
p679
(lp680
F143.87703486111064
aF2.1478193454185157
asS'1600'
p681
(lp682
F191.5133261481758
aF2.253299051371632
asS'2000'
p683
(lp684
F108.17663780051316
aF2.1203054830029417
asS'1100'
p685
(lp686
F405.1796176863692
aF8.171870804966
asS'2100'
p687
(lp688
F93.73277505349824
aF2.116811495041714
asS'1000'
p689
(lp690
F476.60433523965924
aF8.225309092025238
assS'CITo2Mu_Lam34TeVDesLR_dimuon_Moriond2017_BE'
p691
(dp692
S'1300'
p693
(lp694
F-5.573690425955082
aF-0.051267758522113974
asS'600'
p695
(lp696
F-0.5152527495047252
aF-0.0043066372768284025
asS'700'
p697
(lp698
F-11.372620737738828
aF-0.11428844332308306
asS'1200'
p699
(lp700
F-7.261948772346109
aF-0.06220118062348988
asS'1900'
p701
(lp702
F-0.7181763596130093
aF-0.01460450126970806
asS'2200'
p703
(lp704
F-0.09800548949116616
aF-0.003225113264515126
asS'2300'
p705
(lp706
F0.00031144073527067384
aF1.1951561208197267e-05
asS'1500'
p707
(lp708
F-3.102512721909811
aF-0.03495987900211593
asS'2400'
p709
(lp710
F0.06522425754506789
aF0.002904224287119068
asS'400'
p711
(lp712
F83.72248458129388
aF0.7062734073881102
asS'1400'
p713
(lp714
F-4.196687238354793
aF-0.04229294524671769
asS'500'
p715
(lp716
F27.757281743676003
aF0.21933909928260142
asS'2500'
p717
(lp718
F0.10531500725639897
aF0.005411904773580057
asS'1700'
p719
(lp720
F-1.5915890547719105
aF-0.02361059453377112
asS'900'
p721
(lp722
F-13.317125729763575
aF-0.15757833740869998
asS'800'
p723
(lp724
F-14.048089630733017
aF-0.16141903228634494
asS'1800'
p725
(lp726
F-1.092464858386648
aF-0.018922121105923284
asS'1600'
p727
(lp728
F-2.24860771247394
aF-0.028859091098289623
asS'2000'
p729
(lp730
F-0.44155448410964304
aF-0.01056057280956282
asS'1100'
p731
(lp732
F-9.245002331145763
aF-0.07508386948142798
asS'2100'
p733
(lp734
F-0.24066767208391404
aF-0.00676213908592751
asS'1000'
p735
(lp736
F-11.393436115446363
aF-0.08910707174276652
assS'CITo2Mu_Lam28TeVConLR_dimuon_Moriond2017_BE'
p737
(dp738
S'1300'
p739
(lp740
F2.9780894404951788
aF0.02728669026249054
asS'600'
p741
(lp742
F59.639345170489264
aF0.492037591200587
asS'700'
p743
(lp744
F30.602573226082427
aF0.29941191945947154
asS'1200'
p745
(lp746
F3.43220099656763
aF0.02934607861961352
asS'1900'
p747
(lp748
F1.9039117891353885
aF0.03615091664219901
asS'2200'
p749
(lp750
F1.4400740536434309
aF0.04249714514456235
asS'2300'
p751
(lp752
F1.2925747861985304
aF0.04399967812421345
asS'1500'
p753
(lp754
F2.520256570171263
aF0.027956572049119534
asS'2400'
p755
(lp756
F1.1518374532181244
aF0.04506607933159339
asS'400'
p757
(lp758
F221.51340237655313
aF1.8728778993234703
asS'1400'
p759
(lp760
F2.7092240003321173
aF0.02707762219815499
asS'500'
p761
(lp762
F117.70333826817023
aF0.9291583169141067
asS'2500'
p763
(lp764
F1.019205106852311
aF0.045653375521420674
asS'1700'
p765
(lp766
F2.210116787947678
aF0.03152533817685184
asS'900'
p767
(lp768
F9.406444427099302
aF0.07181149562717397
asS'800'
p769
(lp770
F16.373522356015712
aF0.20499941822875734
asS'1800'
p771
(lp772
F2.0582991975899025
aF0.033787594626590325
asS'1600'
p773
(lp774
F2.361278677989521
aF0.029520951859529396
asS'2000'
p775
(lp776
F1.7479669841722654
aF0.03847277920227495
asS'1100'
p777
(lp778
F4.287587331765742
aF0.03479149076224693
asS'2100'
p779
(lp780
F1.592579400720013
aF0.04062501067713648
asS'1000'
p781
(lp782
F5.982562701576825
aF0.08173176958532084
assS'CITo2Mu_Lam10TeVDesLR_dimuon_Moriond2017_BE'
p783
(dp784
S'1300'
p785
(lp786
F255.74889972902184
aF6.515468074327435
asS'600'
p787
(lp788
F769.6097843480594
aF7.057080764423596
asS'700'
p789
(lp790
F656.1644350862987
aF6.074172164710305
asS'1200'
p791
(lp792
F296.44554884336696
aF6.6056471998253405
asS'1900'
p793
(lp794
F109.77151228867451
aF1.8604789387603344
asS'2200'
p795
(lp796
F72.20248677577264
aF1.8687436493009282
asS'2300'
p797
(lp798
F62.6809825512788
aF1.8681866159772949
asS'1500'
p799
(lp800
F191.8887148093326
aF2.0287080377098183
asS'2400'
p801
(lp802
F54.34390300865402
aF1.860882117748952
asS'400'
p803
(lp804
F926.527025531801
aF7.675033348944129
asS'1400'
p805
(lp806
F221.27926793460927
aF2.148675073778279
asS'500'
p807
(lp808
F880.4356647806217
aF7.139573041470406
asS'2500'
p809
(lp810
F47.043857156948405
aF1.8451952807184149
asS'1700'
p811
(lp812
F144.9443627551095
aF1.8964696425273044
asS'900'
p813
(lp814
F472.47497296621
aF3.5672109265974044
asS'800'
p815
(lp816
F556.3817077914882
aF8.113736340466604
asS'1800'
p817
(lp818
F126.12454374613604
aF1.8701144566196417
asS'1600'
p819
(lp820
F166.67914242383523
aF1.9468960639576915
asS'2000'
p821
(lp822
F95.5226618250852
aF1.8607516296261923
asS'1100'
p823
(lp824
F344.835156916434
aF6.652139451614142
asS'2100'
p825
(lp826
F83.08140095935867
aF1.8650770728090267
asS'1000'
p827
(lp828
F402.7656309493907
aF6.648885229204158
assS'CITo2Mu_Lam28TeVConLR_dimuon_Moriond2017_BB'
p829
(dp830
S'1300'
p831
(lp832
F3.1770718742517516
aF0.030187726736290305
asS'600'
p833
(lp834
F42.88882851927508
aF0.4013270246541805
asS'700'
p835
(lp836
F21.85017767313974
aF0.22780416814013835
asS'1200'
p837
(lp838
F3.300022018819085
aF0.0292780734492814
asS'1900'
p839
(lp840
F2.6021780201077123
aF0.04617388690641168
asS'2200'
p841
(lp842
F2.033048469413939
aF0.052964468436061375
asS'2300'
p843
(lp844
F1.8395477820980888
aF0.054597459523132406
asS'1500'
p845
(lp846
F3.085153155699169
aF0.03491093880512128
asS'2400'
p847
(lp848
F1.6518910442702976
aF0.05582671899763542
asS'400'
p849
(lp850
F149.05541018368422
aF1.6153143283705615
asS'1400'
p851
(lp852
F3.130071110969137
aF0.032278464721619736
asS'500'
p853
(lp854
F84.04537916877166
aF0.8079577962906486
asS'2500'
p855
(lp856
F1.4730196269917681
aF0.05661149282499372
asS'1700'
p857
(lp858
F2.905884509058482
aF0.040642702437424204
asS'900'
p859
(lp860
F6.792004887754004
aF0.09667516526704709
asS'800'
p861
(lp862
F11.622139864241575
aF0.1495950401276819
asS'1800'
p863
(lp864
F2.766696749808343
aF0.04347060640197253
asS'1600'
p865
(lp866
F3.012927204427882
aF0.037756732834243203
asS'2000'
p867
(lp868
F2.420228474216319
aF0.048695429558870025
asS'1100'
p869
(lp870
F3.661148609358868
aF0.07772993706723898
asS'2100'
p871
(lp872
F2.2283583374856173
aF0.05097831429546031
asS'1000'
p873
(lp874
F4.597305040090319
aF0.03743878793628707
assS'CITo2Mu_Lam34TeVDesLR_dimuon_Moriond2017_BB'
p875
(dp876
S'1300'
p877
(lp878
F-5.370958182819759
aF-0.0516558954191354
asS'600'
p879
(lp880
F2.7518339193231327
aF0.02598714399674159
asS'700'
p881
(lp882
F-7.939984227194969
aF-0.08374380769937605
asS'1200'
p883
(lp884
F-6.859162039771327
aF-0.06146676206187244
asS'1900'
p885
(lp886
F-0.7256048666208383
aF-0.013743909934392604
asS'2200'
p887
(lp888
F-0.0875174195683246
aF-0.0025147543513832768
asS'2300'
p889
(lp890
F0.01563261479531053
aF0.0005163696891727941
asS'1500'
p891
(lp892
F-3.07661880187994
aF-0.03563476813889115
asS'2400'
p893
(lp894
F0.08462785803409345
aF0.0032077642799385603
asS'400'
p895
(lp896
F70.5103557229204
aF0.7684083802586094
asS'1400'
p897
(lp898
F-4.109518609259904
aF-0.04308679551392085
asS'500'
p899
(lp900
F27.850041372752685
aF0.26954185450173446
asS'2500'
p901
(lp902
F0.12813857435430676
aF0.0055590792358335
asS'1700'
p903
(lp904
F-1.6037258357768058
aF-0.023399293845979666
asS'900'
p905
(lp906
F-11.423058824935126
aF-0.16327719069724053
asS'800'
p907
(lp908
F-11.331009971376034
aF-0.13352751043881805
asS'1800'
p909
(lp910
F-1.1044859060375023
aF-0.018308871528329763
asS'1600'
p911
(lp912
F-2.251081862217232
aF-0.02912742699729153
asS'2000'
p913
(lp914
F-0.4428535722998235
aF-0.009622234543693882
asS'1100'
p915
(lp916
F-8.518776429904534
aF-0.22726838215357156
asS'2100'
p917
(lp918
F-0.23578230531826527
aF-0.005889553349739658
asS'1000'
p919
(lp920
F-10.178446531845978
aF-0.08382688666447359
assS'CITo2Mu_Lam10TeVConLL_dimuon_Moriond2017_BE'
p921
(dp922
S'1300'
p923
(lp924
F167.1024283997177
aF2.867710267883601
asS'600'
p925
(lp926
F570.5812911005721
aF4.160459203057158
asS'700'
p927
(lp928
F477.1600096680053
aF3.6773593088963725
asS'1200'
p929
(lp930
F196.9457729323618
aF1.4537708868243802
asS'1900'
p931
(lp932
F66.61578372943747
aF2.2119926554104996
asS'2200'
p933
(lp934
F42.91360915174314
aF0.5068564466075544
asS'2300'
p935
(lp936
F37.06766282056149
aF0.47694556440038904
asS'1500'
p937
(lp938
F121.7004162740964
aF0.985557622441749
asS'2400'
p939
(lp940
F32.001783554255745
aF0.45231688015783333
asS'400'
p941
(lp942
F788.8473746732589
aF6.448078896909894
asS'1400'
p943
(lp944
F142.3553631439471
aF2.776175811858539
asS'500'
p945
(lp946
F673.9731726089813
aF5.039382781130455
asS'2500'
p947
(lp948
F27.605431588229987
aF0.4316242726649963
asS'1700'
p949
(lp950
F89.6938792658062
aF0.7848909317907616
asS'900'
p951
(lp952
F331.4081359710396
aF3.4505779299989734
asS'800'
p953
(lp954
F397.4381387077867
aF2.762648828305157
asS'1800'
p955
(lp956
F77.24286789606647
aF0.7073503920070029
asS'1600'
p957
(lp958
F104.35173568220281
aF2.5668500089190767
asS'2000'
p959
(lp960
F57.50748255427932
aF0.5881286636273318
asS'1100'
p961
(lp962
F233.16158189330247
aF3.0249399867250903
asS'2100'
p963
(lp964
F49.67289616559286
aF0.543449647523265
asS'1000'
p965
(lp966
F277.3445147608933
aF3.483321753724817
assS'CITo2Mu_Lam34TeVConLL_dimuon_Moriond2017_BB'
p967
(dp968
S'1300'
p969
(lp970
F3.3008631981330616
aF0.04134435986421228
asS'600'
p971
(lp972
F14.23674037438542
aF0.1238325010816372
asS'700'
p973
(lp974
F10.801954920483468
aF0.08893372386936109
asS'1200'
p975
(lp976
F3.897636835290374
aF0.05575522086596689
asS'1900'
p977
(lp978
F1.3264867698053076
aF0.011693724587642548
asS'2200'
p979
(lp980
F0.8594637283720055
aF0.009241299922892708
asS'2300'
p981
(lp982
F0.7439765163940808
aF0.008721469151640732
asS'1500'
p983
(lp984
F2.4066166168482095
aF0.04055885313558781
asS'2400'
p985
(lp986
F0.643799494694884
aF0.008299341804982239
asS'400'
p987
(lp988
F26.315379482848357
aF0.279898957403254
asS'1400'
p989
(lp990
F2.812125034588222
aF0.021223637837526194
asS'500'
p991
(lp992
F19.38973934089097
aF0.1844632384891232
asS'2500'
p993
(lp994
F0.5567777549880457
aF0.007947735701049011
asS'1700'
p995
(lp996
F1.7795192548691219
aF0.014421996863374016
asS'900'
p997
(lp998
F6.806317299904677
aF0.06015291840429225
asS'800'
p999
(lp1000
F8.465024670099012
aF0.06973711640035352
asS'1800'
p1001
(lp1002
F1.5352768930853236
aF0.012921722080522896
asS'1600'
p1003
(lp1004
F2.0667208007001125
aF0.04014423233824114
asS'2000'
p1005
(lp1006
F1.1472476854363967
aF0.010694899227831022
asS'1100'
p1007
(lp1008
F4.638675532645706
aF0.0553330863536882
asS'2100'
p1009
(lp1010
F0.9928455916691605
aF0.009888577373998219
asS'1000'
p1011
(lp1012
F5.579082010251682
aF0.056257096294056105
assS'CITo2Mu_Lam16TeVDesLR_dimuon_Moriond2017_BB'
p1013
(dp1014
S'1300'
p1015
(lp1016
F31.24062224207594
aF0.28904968882556276
asS'600'
p1017
(lp1018
F23.413078315265523
aF0.22685806776710846
asS'700'
p1019
(lp1020
F31.614121492901887
aF0.3566787832510867
asS'1200'
p1021
(lp1022
F33.06604452653832
aF0.7882282268063355
asS'1900'
p1023
(lp1024
F19.72071002492178
aF0.3169190636977395
asS'2200'
p1025
(lp1026
F14.875391934371896
aF0.34761840289617174
asS'2300'
p1027
(lp1028
F13.445588932661884
aF0.3581574242941694
asS'1500'
p1029
(lp1030
F27.30297132646968
aF0.2931269139826639
asS'2400'
p1031
(lp1032
F12.107760445548724
aF0.3678513677680123
asS'400'
p1033
(lp1034
F-43.066370879505484
aF-0.4673637847283918
asS'1400'
p1035
(lp1036
F29.292849147519917
aF0.29063581274144773
asS'500'
p1037
(lp1038
F4.818198211866388
aF0.04655850901215627
asS'2500'
p1039
(lp1040
F10.86008236813412
aF0.37610405909811495
asS'1700'
p1041
(lp1042
F23.386001997042694
aF0.3019648962512241
asS'900'
p1043
(lp1044
F36.11369800209579
aF0.6593389151129001
asS'800'
p1045
(lp1046
F35.09068091660785
aF0.5007942794202674
asS'1800'
p1047
(lp1048
F21.51410582136011
aF0.3086812840557806
asS'1600'
p1049
(lp1050
F25.32282441644303
aF0.2968208771539943
asS'2000'
p1051
(lp1052
F18.013944469251566
aF0.32644185153352995
asS'1100'
p1053
(lp1054
F34.64329237416205
aF0.9747746241596241
asS'2100'
p1055
(lp1056
F16.398218158013293
aF0.3368489972668696
asS'1000'
p1057
(lp1058
F35.77063896417371
aF0.6069468404904267
assS'CITo2Mu_Lam22TeVConLR_dimuon_Moriond2017_BB'
p1059
(dp1060
S'1300'
p1061
(lp1062
F12.970505258035391
aF0.12223931919228884
asS'600'
p1063
(lp1064
F60.54657654357493
aF0.5664082117267802
asS'700'
p1065
(lp1066
F40.428481865074275
aF0.42438384762744963
asS'1200'
p1067
(lp1068
F14.459757235993692
aF0.12751351225900284
asS'1900'
p1069
(lp1070
F7.181178282913182
aF0.12274752851636671
asS'2200'
p1071
(lp1072
F5.210342754777556
aF0.12957021016190265
asS'2300'
p1073
(lp1074
F4.65311432145005
aF0.13163006363923085
asS'1500'
p1075
(lp1076
F10.642330159559448
aF0.11844573179872592
asS'2400'
p1077
(lp1078
F4.142144659525886
aF0.133305249321126
asS'400'
p1079
(lp1080
F154.63362688527832
aF1.6693523205687746
asS'1400'
p1081
(lp1082
F11.727837062780743
aF0.11952180719136077
asS'500'
p1083
(lp1084
F97.23001306077242
aF0.9310816405268523
asS'2500'
p1085
(lp1086
F3.675203328253047
aF0.1344504119569282
asS'1700'
p1087
(lp1088
F8.771685311836546
aF0.11935345363929034
asS'900'
p1089
(lp1090
F22.931404985663605
aF0.38272511613376065
asS'800'
p1091
(lp1092
F29.33360170252527
aF0.38216436101775453
asS'1800'
p1093
(lp1094
F7.946154287947552
aF0.12082682876130359
asS'1600'
p1095
(lp1096
F9.665666366670465
aF0.11849188402199243
asS'2000'
p1097
(lp1098
F6.472129788396412
aF0.12495667988800331
asS'1100'
p1099
(lp1100
F16.361813348846347
aF0.4332963841015259
asS'2100'
p1101
(lp1102
F5.815969354376247
aF0.12728839844850495
asS'1000'
p1103
(lp1104
F18.98834000924616
aF0.1536376195197347
assS'CITo2Mu_Lam22TeVConLR_dimuon_Moriond2017_BE'
p1105
(dp1106
S'1300'
p1107
(lp1108
F12.861607949303469
aF0.1168223858923678
asS'600'
p1109
(lp1110
F94.4663885240542
aF0.7721724593202436
asS'700'
p1111
(lp1112
F61.34842260869681
aF0.5943568060191102
asS'1200'
p1113
(lp1114
F15.363090679044184
aF0.1302923825789637
asS'1900'
p1115
(lp1116
F5.489141995137514
aF0.1002230958070882
asS'2200'
p1117
(lp1118
F3.7175593913343477
aF0.10410662612486042
asS'2300'
p1119
(lp1120
F3.257678822210151
aF0.10493354337310859
asS'1500'
p1121
(lp1122
F9.42215803543898
aF0.10293559390438864
asS'2400'
p1123
(lp1124
F2.8487899552767035
aF0.10524278406339366
asS'400'
p1125
(lp1126
F254.23007738710248
aF2.1400638836647086
asS'1400'
p1127
(lp1128
F10.944203265097833
aF0.10817625532187132
asS'500'
p1129
(lp1130
F153.61241899939023
aF1.2042119788065058
asS'2500'
p1131
(lp1132
F2.4849012122146767
aF0.10493246722568304
asS'1700'
p1133
(lp1134
F7.138821365591193
aF0.09911918146829611
asS'900'
p1135
(lp1136
F30.860502341281375
aF0.3309816462555123
asS'800'
p1137
(lp1138
F42.31262764781715
aF0.5250760210400621
asS'1800'
p1139
(lp1140
F6.253507553552635
aF0.09929446971023093
asS'1600'
p1141
(lp1142
F8.178606124240584
aF0.1001492912409567
asS'2000'
p1143
(lp1144
F4.8222462217825575
aF0.10153016449932308
asS'1100'
p1145
(lp1146
F18.76355202524541
aF0.3139131521166612
asS'2100'
p1147
(lp1148
F4.235898764123476
aF0.10290744853218053
asS'1000'
p1149
(lp1150
F23.606270524284866
aF0.1825997840365731
assS'CITo2Mu_Lam22TeVDesRR_dimuon_Moriond2017_BE'
p1151
(dp1152
S'1300'
p1153
(lp1154
F0.7371421730003078
aF0.007176147928226651
asS'600'
p1155
(lp1156
F-21.524717298676478
aF-0.1734535935958414
asS'700'
p1157
(lp1158
F-13.666770653075389
aF-0.12452808843362435
asS'1200'
p1159
(lp1160
F0.23360367347581956
aF0.0021049761720870817
asS'1900'
p1161
(lp1162
F0.9862126852760174
aF0.020547237164939912
asS'2200'
p1163
(lp1164
F0.7438121353887168
aF0.02418969580027661
asS'2300'
p1165
(lp1166
F0.6684514131195799
aF0.025094359416374022
asS'1500'
p1167
(lp1168
F1.1202080923013362
aF0.013416159806482099
asS'2400'
p1169
(lp1170
F0.5982675067110628
aF0.02582263065035446
asS'400'
p1171
(lp1172
F-43.37795148156192
aF-0.36986145526933284
asS'1400'
p1173
(lp1174
F1.0029087323253858
aF0.010740409558122749
asS'500'
p1175
(lp1176
F-31.634812694726406
aF-0.25079693967948397
asS'2500'
p1177
(lp1178
F0.5336406507117053
aF0.026364692905472907
asS'1700'
p1179
(lp1180
F1.1188515359986049
aF0.01741417307666924
asS'900'
p1181
(lp1182
F-4.461051614055975
aF-0.03538602835250473
asS'800'
p1183
(lp1184
F-8.13616939605862
aF-0.09361211163567026
asS'1800'
p1185
(lp1186
F1.0604672938197015
aF0.01905605498622706
asS'1600'
p1187
(lp1188
F1.1465769470898843
aF0.015571040691552887
asS'2000'
p1189
(lp1190
F0.9053074512140804
aF0.02190337509049156
asS'1100'
p1191
(lp1192
F-0.6451279718412835
aF-0.0054802646949554815
asS'2100'
p1193
(lp1194
F0.8233918713348061
aF0.023121392798160667
asS'1000'
p1195
(lp1196
F-2.10746456378331
aF-0.017170078595786432
assS'CITo2Mu_Lam22TeVDesLR_dimuon_Moriond2017_BB'
p1197
(dp1198
S'1300'
p1199
(lp1200
F2.121988866276208
aF0.01998927189783367
asS'600'
p1201
(lp1202
F17.649057029376536
aF0.164895938750858
asS'700'
p1203
(lp1204
F3.629425506881063
aF0.0374773166870736
asS'1200'
p1205
(lp1206
F1.1601953972390788
aF0.010221914530755532
asS'1900'
p1207
(lp1208
F3.7385803684316574
aF0.064044508146974
asS'2200'
p1209
(lp1210
F3.2149456866971233
aF0.07984431861443883
asS'2300'
p1211
(lp1212
F2.9876797894831784
aF0.08430056875373927
asS'1500'
p1213
(lp1214
F3.3383980612306186
aF0.037221516075817584
asS'2400'
p1215
(lp1216
F2.752255745409169
aF0.08824539866644783
asS'400'
p1217
(lp1218
F103.8794292119785
aF1.1294716285903965
asS'1400'
p1219
(lp1220
F2.8436567031640188
aF0.028998182716589604
asS'500'
p1221
(lp1222
F50.25963421430242
aF0.4850513861727787
asS'2500'
p1223
(lp1224
F2.515709359548077
aF0.09159635156613653
asS'1700'
p1225
(lp1226
F3.783687999106882
aF0.05164011039724529
asS'900'
p1227
(lp1228
F-1.9428166909411857
aF-0.031648990336314145
asS'800'
p1229
(lp1230
F-1.1601154492409762
aF-0.014741357757931044
asS'1800'
p1231
(lp1232
F3.8066742244062883
aF0.058049192857515884
asS'1600'
p1233
(lp1234
F3.6392841851059483
aF0.04473306614272018
asS'2000'
p1235
(lp1236
F3.6045121174169155
aF0.06967512560198258
asS'1100'
p1237
(lp1238
F-0.0004413528792142074
aF-9.361840311309804e-06
asS'2100'
p1239
(lp1240
F3.424663713204235
aF0.07495067847981605
asS'1000'
p1241
(lp1242
F-1.1889853011031448
aF-0.016647569268595553
assS'CITo2Mu_Lam22TeVDesLR_dimuon_Moriond2017_BE'
p1243
(dp1244
S'1300'
p1245
(lp1246
F0.6078800271269991
aF0.003747639323565937
asS'600'
p1247
(lp1248
F-1.0384843249219102
aF-0.00646675415405383
asS'700'
p1249
(lp1250
F-8.28235219940558
aF-0.06420552267758452
asS'1200'
p1251
(lp1252
F-0.5612132756169643
aF-0.00325544471558151
asS'1900'
p1253
(lp1254
F2.3932750910820206
aF0.033480129733294374
asS'2200'
p1255
(lp1256
F2.0236425454966946
aF0.0467838767784366
asS'2300'
p1257
(lp1258
F1.8626354603932591
aF0.05043901949407849
asS'1500'
p1259
(lp1260
F1.9329635281981794
aF0.014487238815076658
asS'2400'
p1261
(lp1262
F1.697294567720462
aF0.05352664129311603
asS'400'
p1263
(lp1264
F71.25601081431887
aF0.4258882996468264
asS'1400'
p1265
(lp1266
F1.412334275772647
aF0.00947573878767504
asS'500'
p1267
(lp1268
F22.840428803483974
aF0.12959887101537818
asS'2500'
p1269
(lp1270
F1.5328904427516163
aF0.055974237210291815
asS'1700'
p1271
(lp1272
F2.392291934251533
aF0.023927328477891727
asS'900'
p1273
(lp1274
F-6.589125756588885
aF-0.03491252388408142
asS'800'
p1275
(lp1276
F-8.57094646768681
aF-0.086879431486606
asS'1800'
p1277
(lp1278
F2.4320769669950995
aF0.028693933880192635
asS'1600'
p1279
(lp1280
F2.2406074630958326
aF0.019219466288554962
asS'2000'
p1281
(lp1282
F2.3007710983689122
aF0.038179051370285384
asS'1100'
p1283
(lp1284
F-2.169023678220377
aF-0.012059308508919389
asS'2100'
p1285
(lp1286
F2.1730208418633015
aF0.04265785158136664
asS'1000'
p1287
(lp1288
F-4.233664144220413
aF-0.022862700577147285
assS'CITo2Mu_Lam22TeVDesRR_dimuon_Moriond2017_BB'
p1289
(dp1290
S'1300'
p1291
(lp1292
F1.933973329355922
aF0.01952602993074628
asS'600'
p1293
(lp1294
F-5.480911151398971
aF-0.05232390054039095
asS'700'
p1295
(lp1296
F-3.6504378669215782
aF-0.0379775774923168
asS'1200'
p1297
(lp1298
F1.6486430004826857
aF0.01548813248563651
asS'1900'
p1299
(lp1300
F1.8410058855326028
aF0.03574094118439988
asS'2200'
p1301
(lp1302
F1.4607176443612047
aF0.04157689010168086
asS'2300'
p1303
(lp1304
F1.334666271003746
aF0.04314709675204482
asS'1500'
p1305
(lp1306
F2.1316440126499163
aF0.025912438963267028
asS'2400'
p1307
(lp1308
F1.2130291421605812
aF0.04447659409015955
asS'400'
p1309
(lp1310
F-14.421076794160626
aF-0.15998497882637328
asS'1400'
p1311
(lp1312
F2.081785711269257
aF0.022926339806566443
asS'500'
p1313
(lp1314
F-7.511684796333952
aF-0.07439556874821522
asS'2500'
p1315
(lp1316
F1.0970851413964213
aF0.04553444834016039
asS'1700'
p1317
(lp1318
F2.04889185736857
aF0.031137634616956067
asS'900'
p1319
(lp1320
F-0.5790499030535159
aF-0.00492407944722672
asS'800'
p1321
(lp1322
F-1.9597726244010403
aF-0.02485246004622934
asS'1800'
p1323
(lp1324
F1.9542633667958986
aF0.03350455275093094
asS'1600'
p1325
(lp1326
F2.1133521390059133
aF0.02862201489401316
asS'2000'
p1327
(lp1328
F1.7173774030888005
aF0.037844669740505835
asS'1100'
p1329
(lp1330
F1.1751740525673213
aF0.01949290708872864
asS'2100'
p1331
(lp1332
F1.5892407818636718
aF0.039798849012178006
asS'1000'
p1333
(lp1334
F0.4531814485267347
aF0.006065584443527419
assS'CITo2Mu_Lam10TeVDesRR_dimuon_Moriond2017_BE'
p1335
(dp1336
S'1300'
p1337
(lp1338
F108.08777463353198
aF1.0493565833426608
asS'600'
p1339
(lp1340
F153.44928778763278
aF1.3850474464274702
asS'700'
p1341
(lp1342
F183.48263795539827
aF2.081292822836882
asS'1200'
p1343
(lp1344
F122.3579593582688
aF3.1628409774686665
asS'1900'
p1345
(lp1346
F50.94168107670492
aF0.958357551179748
asS'2200'
p1347
(lp1348
F34.64784335633404
aF1.0054190822570197
asS'2300'
p1349
(lp1350
F30.351366182040678
aF1.016937968915564
asS'1500'
p1351
(lp1352
F84.14925969896598
aF0.9697169096210392
asS'2400'
p1353
(lp1354
F26.516309777364555
aF1.0228810533367094
asS'400'
p1355
(lp1356
F-157.39767767137937
aF-1.325395710760241
asS'1400'
p1357
(lp1358
F95.38071379416742
aF3.1975849158483465
asS'500'
p1359
(lp1360
F56.24057384582147
aF0.4542568592938875
asS'2500'
p1361
(lp1362
F23.09355450335481
aF1.0218658089502402
asS'1700'
p1363
(lp1364
F65.50591644080525
aF0.9440132172901043
asS'900'
p1365
(lp1366
F171.09203712412236
aF2.661760912091089
asS'800'
p1367
(lp1368
F183.35358858529378
aF2.7070658794907576
asS'1800'
p1369
(lp1370
F57.78282510145067
aF0.9474874497910817
asS'1600'
p1371
(lp1372
F74.24446754998178
aF3.101727453275709
asS'2000'
p1373
(lp1374
F44.86771087301061
aF0.9735920742737724
asS'1100'
p1375
(lp1376
F138.10606358072403
aF3.069419049437595
asS'2100'
p1377
(lp1378
F39.463701600127614
aF0.9901918280454328
asS'1000'
p1379
(lp1380
F154.8316021065406
aF2.906945136712308
assS'CITo2Mu_Lam16TeVDesRR_dimuon_Moriond2017_BE'
p1381
(dp1382
S'1300'
p1383
(lp1384
F9.791548468156563
aF0.09532003091848208
asS'600'
p1385
(lp1386
F-26.948380879597607
aF-0.2158051901780347
asS'700'
p1387
(lp1388
F-10.693668498424074
aF-0.0993749427312818
asS'1200'
p1389
(lp1390
F10.059476646550806
aF0.2261396423622317
asS'1900'
p1391
(lp1392
F5.726854754959264
aF0.11319950658585418
asS'2200'
p1393
(lp1394
F4.068812223588161
aF0.12338337939367361
asS'2300'
p1395
(lp1396
F3.6103616585788685
aF0.12601649948300964
asS'1500'
p1397
(lp1398
F8.541689117401024
aF0.10103462812245442
asS'2400'
p1399
(lp1400
F3.1937540328385134
aF0.12793907536676194
asS'400'
p1401
(lp1402
F-61.32161704222972
aF-0.5182376007124788
asS'1400'
p1403
(lp1404
F9.233477566155846
aF0.09844018039299886
asS'500'
p1405
(lp1406
F-48.19436932531994
aF-0.3778055394943589
asS'2500'
p1407
(lp1408
F2.8155536849785117
aF0.12898813366174466
asS'1700'
p1409
(lp1410
F7.076264086819309
aF0.10652688084234281
asS'900'
p1411
(lp1412
F5.461336166462161
aF0.061281463787417695
asS'800'
p1413
(lp1414
F-0.4076920930044139
aF-0.0048384903411650085
asS'1800'
p1415
(lp1416
F6.3790082215561945
aF0.109735598336949
asS'1600'
p1417
(lp1418
F7.805963181128086
aF0.10364596580284814
asS'2000'
p1419
(lp1420
F5.124571928749276
aF0.11676376415817061
asS'1100'
p1421
(lp1422
F9.77060255392611
aF0.08274653193523358
asS'2100'
p1423
(lp1424
F4.572537108624299
aF0.12022963693612378
asS'1000'
p1425
(lp1426
F8.479440963744366
aF0.06847926554480299
assS'CITo2Mu_Lam22TeVConRR_dimuon_Moriond2017_BE'
p1427
(dp1428
S'1300'
p1429
(lp1430
F12.58062937852688
aF0.0866950960142064
asS'600'
p1431
(lp1432
F66.4054025919977
aF0.39982939804162887
asS'700'
p1433
(lp1434
F51.724233430191646
aF0.37494399109422094
asS'1200'
p1435
(lp1436
F15.666261739290931
aF0.09999322628688675
asS'1900'
p1437
(lp1438
F3.8410171469803593
aF0.06174082092755227
asS'2200'
p1439
(lp1440
F2.254251767530921
aF0.05971469912758379
asS'2300'
p1441
(lp1442
F1.897455548109265
aF0.058840159078361196
asS'1500'
p1443
(lp1444
F8.27970197849184
aF0.07100080909779925
asS'2400'
p1445
(lp1446
F1.6000166984588677
aF0.057742749152919506
asS'400'
p1447
(lp1448
F113.70252601231459
aF0.6841655003367154
asS'1400'
p1449
(lp1450
F10.172744133326566
aF0.07734627972552312
asS'500'
p1451
(lp1452
F85.4332780087791
aF0.4846569022323906
asS'2500'
p1453
(lp1454
F1.3509630048982264
aF0.05639654963668266
asS'1700'
p1455
(lp1456
F5.583001969028995
aF0.06428843258136067
asS'900'
p1457
(lp1458
F31.548464297154823
aF0.17751261935163923
asS'800'
p1459
(lp1460
F40.3264689521626
aF0.3779924323980808
asS'1800'
p1461
(lp1462
F4.620464919185956
aF0.06271857303229236
asS'1600'
p1463
(lp1464
F6.780041748101859
aF0.06686918718031373
asS'2000'
p1465
(lp1466
F3.2056031189077085
aF0.06104668796895648
asS'1100'
p1467
(lp1468
F19.64783351258012
aF0.11842450512283237
asS'2100'
p1469
(lp1470
F2.684351054608795
aF0.06041963247160243
asS'1000'
p1471
(lp1472
F24.81547874075079
aF0.1435517244255529
assS'CITo2Mu_Lam34TeVDesRR_dimuon_Moriond2017_BE'
p1473
(dp1474
S'1300'
p1475
(lp1476
F-0.7585523375988679
aF-0.007358323196966048
asS'600'
p1477
(lp1478
F-2.291423501417512
aF-0.019460293134573297
asS'700'
p1479
(lp1480
F-2.141531369783877
aF-0.0219745863580122
asS'1200'
p1481
(lp1482
F-0.9274215776043278
aF-0.008334077650236334
asS'1900'
p1483
(lp1484
F-0.21571056666212707
aF-0.004885408545472451
asS'2200'
p1485
(lp1486
F-0.11324738040358351
aF-0.0042486690926622625
asS'2300'
p1487
(lp1488
F-0.09113761369149953
aF-0.004009755184763779
asS'1500'
p1489
(lp1490
F-0.502168984719523
aF-0.006054486837395071
asS'2400'
p1491
(lp1492
F-0.0732292564632504
aF-0.003755927429577348
asS'400'
p1493
(lp1494
F-0.40778751170046235
aF-0.003454228858936333
asS'1400'
p1495
(lp1496
F-0.6180162334377055
aF-0.006610750912377297
asS'500'
p1497
(lp1498
F-2.0922684456252227
aF-0.01670261432615763
asS'2500'
p1499
(lp1500
F-0.058731132622146354
aF-0.0034900955163733147
asS'1700'
p1501
(lp1502
F-0.3298577106987066
aF-0.005340255442317938
asS'900'
p1503
(lp1504
F-1.617985406813517
aF-0.01278774642641158
asS'800'
p1505
(lp1506
F-1.8900494698044952
aF-0.020495737997247437
asS'1800'
p1507
(lp1508
F-0.2668716087828309
aF-0.005097414431336137
asS'1600'
p1509
(lp1510
F-0.4072725153466763
aF-0.005645890484463377
asS'2000'
p1511
(lp1512
F-0.17419730198668337
aF-0.00468158859856255
asS'1100'
p1513
(lp1514
F-1.1274223379648305
aF-0.009563421296935909
asS'2100'
p1515
(lp1516
F-0.14053383900824645
aF-0.0044717995665057445
asS'1000'
p1517
(lp1518
F-1.3590724287421807
aF-0.011054720082660193
assS'CITo2Mu_Lam34TeVDesRR_dimuon_Moriond2017_BB'
p1519
(dp1520
S'1300'
p1521
(lp1522
F-0.9236065415010444
aF-0.009471645031589263
asS'600'
p1523
(lp1524
F-1.749471599684398
aF-0.016893656902532313
asS'700'
p1525
(lp1526
F-1.7920046877352434
aF-0.01832330684734475
asS'1200'
p1527
(lp1528
F-1.1335609499521766
aF-0.010784141284580542
asS'1900'
p1529
(lp1530
F-0.10517278483575909
aF-0.0022169977956852274
asS'2200'
p1531
(lp1532
F0.044695501487926226
aF0.001462528247825364
asS'2300'
p1533
(lp1534
F0.07099432914560666
aF0.0026853898406242797
asS'1500'
p1535
(lp1536
F-0.5587287578084901
aF-0.006971971885950285
asS'2400'
p1537
(lp1538
F0.08885040386517651
aF0.003873622234691914
asS'400'
p1539
(lp1540
F-2.047977137242924
aF-0.02248124990886416
asS'1400'
p1541
(lp1542
F-0.7301042951000412
aF-0.008200662939514677
asS'500'
p1543
(lp1544
F-1.8784310454796014
aF-0.018428324112371088
asS'2500'
p1545
(lp1546
F0.09992962105503655
aF0.005002955042863655
asS'1700'
p1547
(lp1548
F-0.28794584610570695
aF-0.004593913267224427
asS'900'
p1549
(lp1550
F-1.7101344303367512
aF-0.014561876583606581
asS'800'
p1551
(lp1552
F-1.7966050026069524
aF-0.024580592715709743
asS'1800'
p1553
(lp1554
F-0.186609393174884
aF-0.00341210171988564
asS'1600'
p1555
(lp1556
F-0.41144772336806046
aF-0.005775047146021217
asS'2000'
p1557
(lp1558
F-0.04112582115187413
aF-0.0010029713426082175
asS'1100'
p1559
(lp1560
F-1.3486979683745233
aF-0.012117122389468089
asS'2100'
p1561
(lp1562
F0.008040742702052128
aF0.000227191396717647
asS'1000'
p1563
(lp1564
F-1.550085266368896
aF-0.013413881190659683
assS'CITo2Mu_Lam22TeVConRR_dimuon_Moriond2017_BB'
p1565
(dp1566
S'1300'
p1567
(lp1568
F12.174272789530544
aF0.12291128014251632
asS'600'
p1569
(lp1570
F36.47555769090695
aF0.34709723377125906
asS'700'
p1571
(lp1572
F31.110480740806736
aF0.32963635601036695
asS'1200'
p1573
(lp1574
F14.159702886209676
aF0.30973312501862776
asS'1900'
p1575
(lp1576
F5.171867298922116
aF0.09898671571319587
asS'2200'
p1577
(lp1578
F3.4257614071388667
aF0.09623323085521003
asS'2300'
p1579
(lp1580
F2.9857199908415897
aF0.09537291452650631
asS'1500'
p1581
(lp1582
F9.075603791854993
aF0.10971179070104664
asS'2400'
p1583
(lp1584
F2.600382647849855
aF0.09433846319885772
asS'400'
p1585
(lp1586
F60.14740479279203
aF0.6580769711957309
asS'1400'
p1587
(lp1588
F10.497371082907039
aF0.11532659502722102
asS'500'
p1589
(lp1590
F43.67751338538312
aF0.4263948035611768
asS'2500'
p1591
(lp1592
F2.26239483559795
aF0.09304453492344832
asS'1700'
p1593
(lp1594
F6.829272704019807
aF0.10261266143971247
asS'900'
p1595
(lp1596
F22.638217749860317
aF0.271013415982194
asS'800'
p1597
(lp1598
F26.548373891402008
aF0.348614406863668
asS'1800'
p1599
(lp1600
F5.939505857291013
aF0.10049032740719482
asS'1600'
p1601
(lp1602
F7.864896229195374
aF0.10559220424378876
asS'2000'
p1603
(lp1604
F4.5070578865577176
aF0.09789381259180477
asS'1100'
p1605
(lp1606
F16.516922059081423
aF0.14691532992742642
asS'2100'
p1607
(lp1608
F3.9293268573994053
aF0.09702884099297483
asS'1000'
p1609
(lp1610
F19.317835369690698
aF0.28244318080936986
assS'CITo2Mu_Lam10TeVDesLL_dimuon_Moriond2017_BB'
p1611
(dp1612
S'1300'
p1613
(lp1614
F123.75466171613662
aF3.388465783885252
asS'600'
p1615
(lp1616
F208.7004723879469
aF2.225834940427022
asS'700'
p1617
(lp1618
F198.8670228595482
aF2.545048863593498
asS'1200'
p1619
(lp1620
F135.06620007407508
aF3.3113781225724996
asS'1900'
p1621
(lp1622
F70.0357610842288
aF1.073517838894641
asS'2200'
p1623
(lp1624
F51.00724345559803
aF1.1469503279903164
asS'2300'
p1625
(lp1626
F45.63749461739441
aF1.1776142487945178
asS'1500'
p1627
(lp1628
F103.25374459710368
aF3.4467270133323464
asS'2400'
p1629
(lp1630
F40.71151507955056
aF1.2076867381159349
asS'400'
p1631
(lp1632
F197.71446993865493
aF2.3691179388928774
asS'1400'
p1633
(lp1634
F113.15633611941814
aF3.4321646486407325
asS'500'
p1635
(lp1636
F211.204626271591
aF2.0802734398700267
asS'2500'
p1637
(lp1638
F36.20471301298474
aF1.2348654844839078
asS'1700'
p1639
(lp1640
F85.42652732264304
aF1.056749113788351
asS'900'
p1641
(lp1642
F172.95753058930057
aF3.353404787279026
asS'800'
p1643
(lp1644
F186.28129983736622
aF2.9446293623785946
asS'1800'
p1645
(lp1646
F77.4416360904759
aF1.0611902469041565
asS'1600'
p1647
(lp1648
F94.02040721818595
aF1.060493466889914
asS'2000'
p1649
(lp1650
F63.17987841066254
aF1.0929101141674553
asS'1100'
p1651
(lp1652
F147.08741489744162
aF4.083701111994526
asS'2100'
p1653
(lp1654
F56.84602300869328
aF3.124305389263637
asS'1000'
p1655
(lp1656
F159.76829632971337
aF3.7375621676616
assS'CITo2Mu_Lam28TeVDesRR_dimuon_Moriond2017_BE'
p1657
(dp1658
S'1300'
p1659
(lp1660
F-1.0219935332658423
aF-0.009974292907878641
asS'600'
p1661
(lp1662
F-14.613189930556814
aF-0.11983315016728076
asS'700'
p1663
(lp1664
F-9.691667127546225
aF-0.09263327472205368
asS'1200'
p1665
(lp1666
F-1.477691106207896
aF-0.013335879656584075
asS'1900'
p1667
(lp1668
F-0.02269171238930534
aF-0.0004990087872690996
asS'2200'
p1669
(lp1670
F0.07090732084570295
aF0.0025347033804240617
asS'2300'
p1671
(lp1672
F0.08332818985912183
aF0.0034799475042692593
asS'1500'
p1673
(lp1674
F-0.46282386981225443
aF-0.0055996682007701856
asS'2400'
p1675
(lp1676
F0.09026671565329525
aF0.004381185735589467
asS'400'
p1677
(lp1678
F-24.226295837494945
aF-0.2064397688791649
asS'1400'
p1679
(lp1680
F-0.6967150339309605
aF-0.007499840272030524
asS'500'
p1681
(lp1682
F-21.397578724784125
aF-0.1701680903125297
asS'2500'
p1683
(lp1684
F0.09320611739410506
aF0.0052274561759248165
asS'1700'
p1685
(lp1686
F-0.17236477609585155
aF-0.0027595980391354777
asS'900'
p1687
(lp1688
F-4.4257004487963485
aF-0.035183006136381256
asS'800'
p1689
(lp1690
F-6.496071476252553
aF-0.07078098130525151
asS'1800'
p1691
(lp1692
F-0.08494574412592026
aF-0.0015895806472290483
asS'1600'
p1693
(lp1694
F-0.2940747895774365
aF-0.0040659045393076675
asS'2000'
p1695
(lp1696
F0.021015096788925547
aF0.0005441735019090746
asS'1100'
p1697
(lp1698
F-2.123630850118211
aF-0.018066200536033084
asS'2100'
p1699
(lp1700
F0.051022025335794474
aF0.0015545113393526063
asS'1000'
p1701
(lp1702
F-3.0546020850643316
aF-0.02492995004365218
assS'CITo2Mu_Lam28TeVConLL_dimuon_Moriond2017_BB'
p1703
(dp1704
S'1300'
p1705
(lp1706
F5.525293826518755
aF0.06996376598276986
asS'600'
p1707
(lp1708
F21.163612853035147
aF0.18412543706914117
asS'700'
p1709
(lp1710
F15.97383320892581
aF0.13145152448664446
asS'1200'
p1711
(lp1712
F6.42521464262062
aF0.09237397846675856
asS'1900'
p1713
(lp1714
F2.3551881095125173
aF0.020700591008749204
asS'2200'
p1715
(lp1716
F1.5588919105691714
aF0.01662137214238843
asS'2300'
p1717
(lp1718
F1.3586688655710806
aF0.01574906598509345
asS'1500'
p1719
(lp1720
F4.127243284131964
aF0.03161818438825928
asS'2400'
p1721
(lp1722
F1.1837187639517743
aF0.015041864248891855
asS'400'
p1723
(lp1724
F54.32770672183506
aF0.5777499919629282
asS'1400'
p1725
(lp1726
F4.7688018647932875
aF0.07022555943964029
asS'500'
p1727
(lp1728
F31.061140449001186
aF0.29561187755530444
asS'2500'
p1729
(lp1730
F1.0306566786062603
aF0.014456122846824414
asS'1700'
p1731
(lp1732
F3.1097641005867764
aF0.025149809003520762
asS'900'
p1733
(lp1734
F10.52508649385274
aF0.0892652798819031
asS'800'
p1735
(lp1736
F12.762401134977608
aF0.10503278309827366
asS'1800'
p1737
(lp1738
F2.7050280188240636
aF0.022714183508182034
asS'1600'
p1739
(lp1740
F3.579602346781769
aF0.02808351281240667
asS'2000'
p1741
(lp1742
F2.0519264055040227
aF0.019048489780357176
asS'1100'
p1743
(lp1744
F7.509365214353949
aF0.07774815665757638
asS'2100'
p1745
(lp1746
F1.7883913215342806
aF0.017705201624689977
asS'1000'
p1747
(lp1748
F8.840600404212687
aF0.08923323874672164
assS'CITo2Mu_Lam28TeVConLL_dimuon_Moriond2017_BE'
p1749
(dp1750
S'1300'
p1751
(lp1752
F5.845952482484648
aF0.07729543285047866
asS'600'
p1753
(lp1754
F43.423459062940196
aF0.3105298521654508
asS'700'
p1755
(lp1756
F28.23107800158732
aF0.20287289523075608
asS'1200'
p1757
(lp1758
F7.197618749232909
aF0.08092595098817222
asS'1900'
p1759
(lp1760
F1.9047863077711669
aF0.01837909860252761
asS'2200'
p1761
(lp1762
F1.1322329893828054
aF0.013687865840831013
asS'2300'
p1763
(lp1764
F0.9545328315152191
aF0.012694195063952498
asS'1500'
p1765
(lp1766
F3.94886318296286
aF0.031857495092055446
asS'2400'
p1767
(lp1768
F0.8052881149347264
aF0.011879192331599734
asS'400'
p1769
(lp1770
F144.2295672778746
aF1.1956840339997796
asS'1400'
p1771
(lp1772
F4.789029059475542
aF0.037442151070040945
asS'500'
p1773
(lp1774
F74.22762914209511
aF0.5612988515996862
asS'2500'
p1775
(lp1776
F0.6796082376129294
aF0.011191533675539723
asS'1700'
p1777
(lp1778
F2.723801100468318
aF0.023718149803295615
asS'900'
p1779
(lp1780
F14.743681627128566
aF0.12623224610189165
asS'800'
p1781
(lp1782
F19.852942460414482
aF0.14302779367439636
asS'1800'
p1783
(lp1784
F2.2745827681044157
aF0.02076573512726706
asS'1600'
p1785
(lp1786
F3.2728383973601787
aF0.0273603738114774
asS'2000'
p1787
(lp1788
F1.5987922566742165
aF0.016458821599827863
asS'1100'
p1789
(lp1790
F8.96639873593044
aF0.06526025760016356
asS'2100'
p1791
(lp1792
F1.3444581512770255
aF0.01492017195549663
asS'1000'
p1793
(lp1794
F11.357758209789225
aF0.11572146139310559
assS'CITo2Mu_Lam34TeVDesLL_dimuon_Moriond2017_BE'
p1795
(dp1796
S'1300'
p1797
(lp1798
F-7.90587833043007
aF-0.07234618009055985
asS'600'
p1799
(lp1800
F-21.637787151655402
aF-0.1848572371433811
asS'700'
p1801
(lp1802
F-24.123716321908148
aF-0.2505374688948096
asS'1200'
p1803
(lp1804
F-10.134033635612695
aF-0.08650676485153924
asS'1900'
p1805
(lp1806
F-1.4287909652375137
aF-0.030759111159531803
asS'2200'
p1807
(lp1808
F-0.49655564147234676
aF-0.018215610576662534
asS'2300'
p1809
(lp1810
F-0.328756185121561
aF-0.014282218419690556
asS'1500'
p1811
(lp1812
F-4.6620201328094275
aF-0.05256230610065379
asS'2400'
p1813
(lp1814
F-0.2064198812453083
aF-0.01055315316679519
asS'400'
p1815
(lp1816
F23.0604210379106
aF0.1950495074274508
asS'1400'
p1817
(lp1818
F-6.1010973076018615
aF-0.06122061472887113
asS'500'
p1819
(lp1820
F-9.322510163638526
aF-0.07430663130188968
asS'2500'
p1821
(lp1822
F-0.11873014996576187
aF-0.00709509817845374
asS'1700'
p1823
(lp1824
F-2.641952687596076
aF-0.04011999907054347
asS'900'
p1825
(lp1826
F-19.31938399497993
aF-0.2534949722235064
asS'800'
p1827
(lp1828
F-22.45078617900242
aF-0.25286662982737246
asS'1800'
p1829
(lp1830
F-1.9559261039454228
aF-0.03524303113923773
asS'1600'
p1831
(lp1832
F-3.5277245844736793
aF-0.04573012703339302
asS'2000'
p1833
(lp1834
F-1.0270364435186512
aF-0.026470274656555964
asS'1100'
p1835
(lp1836
F-12.821420040215258
aF-0.10405402061032723
asS'2100'
p1837
(lp1838
F-0.7235411552136617
aF-0.022291478335312424
asS'1000'
p1839
(lp1840
F-15.941522206154985
aF-0.12488549467504251
assS'CITo2Mu_Lam28TeVDesLL_dimuon_Moriond2017_BE'
p1841
(dp1842
S'1300'
p1843
(lp1844
F-8.039771833083375
aF-0.07302922153245767
asS'600'
p1845
(lp1846
F-21.93261614702351
aF-0.18062005486706198
asS'700'
p1847
(lp1848
F-27.11801036698097
aF-0.2642198472726418
asS'1200'
p1849
(lp1850
F-10.61832527072066
aF-0.08961554223857461
asS'1900'
p1851
(lp1852
F-1.1177335585746642
aF-0.02298464719422476
asS'2200'
p1853
(lp1854
F-0.25867239485010773
aF-0.008685534957016145
asS'2300'
p1855
(lp1856
F-0.11681724461264975
aF-0.004584930444338089
asS'1500'
p1857
(lp1858
F-4.439396628628909
aF-0.049796228961926974
asS'2400'
p1859
(lp1860
F-0.0189106281205772
aF-0.000862816514775057
asS'400'
p1861
(lp1862
F38.85734467792054
aF0.3285700790762314
asS'1400'
p1863
(lp1864
F-6.011052621478759
aF-0.06004089807777787
asS'500'
p1865
(lp1866
F-1.8212618873717474
aF-0.014360183043419931
asS'2500'
p1867
(lp1868
F0.04634637231735017
aF0.002443598045412207
asS'1700'
p1869
(lp1870
F-2.3207691917356
aF-0.03456304512850742
asS'900'
p1871
(lp1872
F-21.816552842759634
aF-0.16480211184088936
asS'800'
p1873
(lp1874
F-25.62544645075053
aF-0.3187080509640873
asS'1800'
p1875
(lp1876
F-1.6320529175443212
aF-0.02848609780390479
asS'1600'
p1877
(lp1878
F-3.2352062314829393
aF-0.0415137440631657
asS'2000'
p1879
(lp1880
F-0.7373190229476796
aF-0.017890038937931448
asS'1100'
p1881
(lp1882
F-13.817936602237346
aF-0.11054267687104191
asS'2100'
p1883
(lp1884
F-0.45916211782206995
aF-0.013127922718273016
asS'1000'
p1885
(lp1886
F-17.627828089624785
aF-0.1360256311489141
assS'CITo2Mu_Lam16TeVDesRR_dimuon_Moriond2017_BB'
p1887
(dp1888
S'1300'
p1889
(lp1890
F13.812494257453928
aF0.13768557822788613
asS'600'
p1891
(lp1892
F-4.532484907453693
aF-0.04310124629095525
asS'700'
p1893
(lp1894
F5.8513027298931775
aF0.06218338333395881
asS'1200'
p1895
(lp1896
F14.566263581890848
aF0.13553941845049017
asS'1900'
p1897
(lp1898
F8.49101973792309
aF0.15529511614085983
asS'2200'
p1899
(lp1900
F6.3553641730928785
aF0.16908402921137874
asS'2300'
p1901
(lp1902
F5.74022403191616
aF0.1734396841446764
asS'1500'
p1903
(lp1904
F11.997911648986088
aF0.14183685454804726
asS'2400'
p1905
(lp1906
F5.1696606455790715
aF0.17728635883877053
asS'400'
p1907
(lp1908
F-44.92683289394586
aF-0.4915932092761263
asS'1400'
p1909
(lp1910
F12.928697700273448
aF0.13966320907551552
asS'500'
p1911
(lp1912
F-22.150636898386438
aF-0.21621672236917086
asS'2500'
p1913
(lp1914
F4.641156759645293
aF0.18040026362831987
asS'1700'
p1915
(lp1916
F10.165054646445576
aF0.1475193478946641
asS'900'
p1917
(lp1918
F14.03026273361614
aF0.17323607628388432
asS'800'
p1919
(lp1920
F11.386536523310951
aF0.151019217481614
asS'1800'
p1921
(lp1922
F9.303865584048264
aF0.1511638114003696
asS'1600'
p1923
(lp1924
F11.067802716506817
aF0.1444184467870308
asS'2000'
p1925
(lp1926
F7.728941468074291
aF0.15978599415489356
asS'1100'
p1927
(lp1928
F15.04696198467758
aF0.2815032168721337
asS'2100'
p1929
(lp1930
F7.017546028309354
aF0.16445471477853432
asS'1000'
p1931
(lp1932
F15.008963829416217
aF0.12735589783132542
assS'CITo2Mu_Lam10TeVDesLL_dimuon_Moriond2017_BE'
p1933
(dp1934
S'1300'
p1935
(lp1936
F102.01175271043905
aF3.0042958689168047
asS'600'
p1937
(lp1938
F144.94961228388377
aF1.3182348675028852
asS'700'
p1939
(lp1940
F165.8232295856339
aF1.9158534245038068
asS'1200'
p1941
(lp1942
F114.2594739028483
aF2.937216750289762
asS'1900'
p1943
(lp1944
F50.258418297110275
aF0.8454411170002183
asS'2200'
p1945
(lp1946
F34.606966246610305
aF0.8865267284709638
asS'2300'
p1947
(lp1948
F30.415266474405254
aF0.8971489299932243
asS'1500'
p1949
(lp1950
F80.9002102274128
aF0.8567256833320214
asS'2400'
p1951
(lp1952
F26.652664492457866
aF0.9033426656448637
asS'400'
p1953
(lp1954
F-73.82370883371323
aF-0.616946512940976
asS'1400'
p1955
(lp1956
F90.89934954228109
aF3.0291823626262886
asS'500'
p1957
(lp1958
F76.0083723752366
aF0.6103130890204919
asS'2500'
p1959
(lp1960
F23.27866745943708
aF0.9039688686926629
asS'1700'
p1961
(lp1962
F63.90358023737762
aF0.8335722655962785
asS'900'
p1963
(lp1964
F154.66001182359224
aF2.3884216789351247
asS'800'
p1965
(lp1966
F164.7745340224138
aF2.4835355151881244
asS'1800'
p1967
(lp1968
F56.708792178529215
aF0.8362435616566237
asS'1600'
p1969
(lp1970
F71.93442661653917
aF0.8398007627597514
asS'2000'
p1971
(lp1972
F44.47073309010294
aF0.8585511051878737
asS'1100'
p1973
(lp1974
F127.52326784811565
aF2.81839597285479
asS'2100'
p1975
(lp1976
F39.27424607307038
aF0.8730141283060229
asS'1000'
p1977
(lp1978
F141.36643561686822
aF2.638020742840901
assS'CITo2Mu_Lam16TeVDesLL_dimuon_Moriond2017_BB'
p1979
(dp1980
S'1300'
p1981
(lp1982
F8.162720997498813
aF0.07464341856538509
asS'600'
p1983
(lp1984
F0.8071801606062081
aF0.007376619689020283
asS'700'
p1985
(lp1986
F-2.5086574389930263
aF-0.025244404879224757
asS'1200'
p1987
(lp1988
F7.239038943370524
aF0.062053542869198654
asS'1900'
p1989
(lp1990
F7.657400962067612
aF0.12379047272656088
asS'2200'
p1991
(lp1992
F6.079422407647128
aF0.14326344122042822
asS'2300'
p1993
(lp1994
F5.548718215353534
aF0.1494726797574263
asS'1500'
p1995
(lp1996
F8.8318338252253
aF0.09470411775993945
asS'2400'
p1997
(lp1998
F5.034007473524934
aF0.1552801266771265
asS'400'
p1999
(lp2000
F52.42651022734549
aF0.565798121000093
asS'1400'
p2001
(lp2002
F8.662495195242997
aF0.08540910833062455
asS'500'
p2003
(lp2004
F16.19981043403675
aF0.15413977779028537
asS'2500'
p2005
(lp2006
F4.541353794047541
aF0.16045322901222586
asS'1700'
p2007
(lp2008
F8.49744812206647
aF0.11025483187381417
asS'900'
p2009
(lp2010
F1.3129583566626195
aF0.020851718587088654
asS'800'
p2011
(lp2012
F-1.2239797461576813
aF-0.015164323385732379
asS'1800'
p2013
(lp2014
F8.117710206307432
aF0.11714708653577512
asS'1600'
p2015
(lp2016
F8.753833086798142
aF0.10287439890509889
asS'2000'
p2017
(lp2018
F7.149099365152014
aF0.13033772732421162
asS'1100'
p2019
(lp2020
F5.801161789528493
aF0.11081127762554738
asS'2100'
p2021
(lp2022
F6.617154875589449
aF0.13684295792986123
asS'1000'
p2023
(lp2024
F3.798779731114081
aF0.07696580274738848
assS'CITo2Mu_Lam34TeVConLR_dimuon_Moriond2017_BB'
p2025
(dp2026
S'1300'
p2027
(lp2028
F-0.7978180185015233
aF-0.007630592261526897
asS'600'
p2029
(lp2030
F26.080071519521482
aF0.24498733141704554
asS'700'
p2031
(lp2032
F9.762356692692208
aF0.10185924689326323
asS'1200'
p2033
(lp2034
F-1.2840827528664107
aF-0.027546071342105474
asS'1900'
p2035
(lp2036
F0.8363217945175929
aF0.015315043673936598
asS'2200'
p2037
(lp2038
F0.8651349319843622
aF0.023526944899511976
asS'2300'
p2039
(lp2040
F0.8262010163203615
aF0.02566621100899824
asS'1500'
p2041
(lp2042
F0.06244903881861141
aF0.0007157416427854496
asS'2400'
p2043
(lp2044
F0.7750478918146538
aF0.027474249619575782
asS'400'
p2045
(lp2046
F108.7979341053051
aF1.1845224493056705
asS'1400'
p2047
(lp2048
F-0.33181882449385114
aF-0.0034532139242857
asS'500'
p2049
(lp2050
F58.71447319422407
aF0.5672324899847436
asS'2500'
p2051
(lp2052
F0.7166685030779524
aF0.02893585563219564
asS'1700'
p2053
(lp2054
F0.5946471258018562
aF0.00850154750309493
asS'900'
p2055
(lp2056
F-0.7220488487680967
aF-0.011839118845987241
asS'800'
p2057
(lp2058
F2.3189804428450884
aF0.02977510103687203
asS'1800'
p2059
(lp2060
F0.7457284571834695
aF0.012035496797217349
asS'1600'
p2061
(lp2062
F0.3703301033835622
aF0.004721156872529154
asS'2000'
p2063
(lp2064
F0.8790846027499337
aF0.01833258461493857
asS'1100'
p2065
(lp2066
F-1.6648163594584986
aF-0.04353062448346647
asS'2100'
p2067
(lp2068
F0.8854376732562845
aF0.021075708824660137
asS'1000'
p2069
(lp2070
F-1.6664337446863229
aF-0.013656934821806422
assS'CITo2Mu_Lam28TeVDesLL_dimuon_Moriond2017_BB'
p2071
(dp2072
S'1300'
p2073
(lp2074
F-6.8946216241694
aF-0.06514687962526679
asS'600'
p2075
(lp2076
F0.7878177010416039
aF0.007226614479659761
asS'700'
p2077
(lp2078
F-12.646345423552333
aF-0.12619782717783604
asS'1200'
p2079
(lp2080
F-8.888267552496412
aF-0.07822064115043689
asS'1900'
p2081
(lp2082
F-1.029646934180278
aF-0.019176704118875978
asS'2200'
p2083
(lp2084
F-0.27146024952978265
aF-0.007717588759060928
asS'2300'
p2085
(lp2086
F-0.14682338630820935
aF-0.004816916537849256
asS'1500'
p2087
(lp2088
F-3.925649399600216
aF-0.1460030048888601
asS'2400'
p2089
(lp2090
F-0.06058995725174765
aF-0.0022912592593284818
asS'400'
p2091
(lp2092
F113.72947421343247
aF1.2312746237253802
asS'1400'
p2093
(lp2094
F-5.246640560861628
aF-0.054073206034614525
asS'500'
p2095
(lp2096
F36.358847079070074
aF0.3477251023506662
asS'2500'
p2097
(lp2098
F-0.002516273532524038
aF-0.00010943599479895518
asS'1700'
p2099
(lp2100
F-2.091063070395154
aF-0.029992476154710852
asS'900'
p2101
(lp2102
F-15.663231695416528
aF-0.20410569051097927
asS'800'
p2103
(lp2104
F-16.208981747117292
aF-0.17697017911684565
asS'1800'
p2105
(lp2106
F-1.4843717799947838
aF-0.024186052875418976
asS'1600'
p2107
(lp2108
F-2.8896811376187834
aF-0.03676485921999558
asS'2000'
p2109
(lp2110
F-0.6932897275569192
aF-0.014828488439675092
asS'1100'
p2111
(lp2112
F-11.185660976404805
aF-0.21464191041907876
asS'2100'
p2113
(lp2114
F-0.44786943628414866
aF-0.011035369758651306
asS'1000'
p2115
(lp2116
F-13.605924426004819
aF-0.2655554398723167
assS'CITo2Mu_Lam28TeVDesRR_dimuon_Moriond2017_BB'
p2117
(dp2118
S'1300'
p2119
(lp2120
F-0.3283082057008784
aF-0.0033418661009814938
asS'600'
p2121
(lp2122
F-4.761371030519342
aF-0.04537660532916756
asS'700'
p2123
(lp2124
F-3.616082278732449
aF-0.03791877435323437
asS'1200'
p2125
(lp2126
F-0.6069262502789634
aF-0.00573160414524478
asS'1900'
p2127
(lp2128
F0.3411655170671546
aF0.006949212241493344
asS'2200'
p2129
(lp2130
F0.3657054478301487
aF0.011168610576734935
asS'2300'
p2131
(lp2132
F0.35621734030200736
aF0.01243332801532482
asS'1500'
p2133
(lp2134
F0.04553400723843026
aF0.0005635034223083498
asS'2400'
p2135
(lp2136
F0.34161310841436
aF0.013597549392099863
asS'400'
p2137
(lp2138
F-8.083332966184116
aF-0.08906386150935135
asS'1400'
p2139
(lp2140
F-0.11496572849607034
aF-0.0012818562753522792
asS'500'
p2141
(lp2142
F-6.259087886479392
aF-0.06154015504726653
asS'2500'
p2143
(lp2144
F0.32346806601254807
aF0.014642349635431913
asS'1700'
p2145
(lp2146
F0.2476930675891218
aF0.003886671644752793
asS'900'
p2147
(lp2148
F-1.9963267322349907
aF-0.022752834879590542
asS'800'
p2149
(lp2150
F-2.715373963587524
aF-0.034939882355698615
asS'1800'
p2151
(lp2152
F0.3049759009068751
aF0.0054417111570371005
asS'1600'
p2153
(lp2154
F0.1635610792207629
aF0.0022701828391555666
asS'2000'
p2155
(lp2156
F0.36094325557228757
aF0.008411580038008048
asS'1100'
p2157
(lp2158
F-0.9655953298128068
aF-0.008621159673644753
asS'2100'
p2159
(lp2160
F0.36810226431845994
aF0.009822350763754158
asS'1000'
p2161
(lp2162
F-1.4217816053897536
aF-0.012255841325445252
assS'CITo2Mu_Lam34TeVConLR_dimuon_Moriond2017_BE'
p2163
(dp2164
S'1300'
p2165
(lp2166
F-0.4260550173046944
aF-0.003904750389883607
asS'600'
p2167
(lp2168
F41.44287184707821
aF0.3455203956647023
asS'700'
p2169
(lp2170
F19.60253189695544
aF0.195486594577388
asS'1200'
p2171
(lp2172
F-0.4464625830511011
aF-0.0038169228421594667
asS'1900'
p2173
(lp2174
F0.41042543410224797
aF0.008064119511744853
asS'2200'
p2175
(lp2176
F0.47850325484721923
aF0.014981039880103913
asS'2300'
p2177
(lp2178
F0.4656463578833798
aF0.01693694549083888
asS'1500'
p2179
(lp2180
F-0.0908294526399196
aF-0.0010129223907281875
asS'2400'
p2181
(lp2182
F0.4423498121517969
aF0.01861105671665754
asS'400'
p2183
(lp2184
F151.18179433011028
aF1.2790938832184284
asS'1400'
p2185
(lp2186
F-0.2754936777350423
aF-0.0027587401789584973
asS'500'
p2187
(lp2188
F83.008073358317
aF0.6572247427661463
asS'2500'
p2189
(lp2190
F0.41205220091791306
aF0.019957862827950312
asS'1700'
p2191
(lp2192
F0.22661772229324217
aF0.003289619795212993
asS'900'
p2193
(lp2194
F3.3115401095373613
aF0.025315300043026092
asS'800'
p2195
(lp2196
F8.634898590165221
aF0.1106951109211619
asS'1800'
p2197
(lp2198
F0.33540637509513527
aF0.005648393243865383
asS'1600'
p2199
(lp2200
F0.08278214647482507
aF0.0010459800603133062
asS'2000'
p2201
(lp2202
F0.4558437005158824
aF0.010472818553634501
asS'1100'
p2203
(lp2204
F-0.14332809231927968
aF-0.0011632762837528406
asS'2100'
p2205
(lp2206
F0.47681295307290616
aF0.012803083006614781
asS'1000'
p2207
(lp2208
F0.8631264182339891
aF0.0067534335791416275
assS'CITo2Mu_Lam16TeVDesLL_dimuon_Moriond2017_BE'
p2209
(dp2210
S'1300'
p2211
(lp2212
F3.1752074445168716
aF0.0190156975374781
asS'600'
p2213
(lp2214
F-39.89245868502326
aF-0.2438905135967222
asS'700'
p2215
(lp2216
F-30.788812475457746
aF-0.23208499165330063
asS'1200'
p2217
(lp2218
F1.3274174092335684
aF0.007475025975485752
asS'1900'
p2219
(lp2220
F4.804450720142253
aF0.06596519558790905
asS'2200'
p2221
(lp2222
F3.8287505152255
aF0.08708956699809853
asS'2300'
p2223
(lp2224
F3.477931790795405
aF0.09271445122243978
asS'1500'
p2225
(lp2226
F4.893946922367006
aF0.03576027064786013
asS'2400'
p2227
(lp2228
F3.1330331103659317
aF0.09731052214884678
asS'400'
p2229
(lp2230
F-6.5244282778576235
aF-0.03881954778888657
asS'1400'
p2231
(lp2232
F4.288899552920235
aF0.02799669316095729
asS'500'
p2233
(lp2234
F-38.362890592066606
aF-0.21562008621999476
asS'2500'
p2235
(lp2236
F2.800238857252788
aF0.1007404888641517
asS'1700'
p2237
(lp2238
F5.172906882556182
aF0.05064136782284993
asS'900'
p2239
(lp2240
F-12.122068683721054
aF-0.06270960018062488
asS'800'
p2241
(lp2242
F-20.56220506886143
aF-0.20150237414590838
asS'1800'
p2243
(lp2244
F5.038977164100882
aF0.05827789038129264
asS'1600'
p2245
(lp2246
F5.150941004051649
aF0.043166893120998084
asS'2000'
p2247
(lp2248
F4.50795209081226
aF0.0734910917306103
asS'1100'
p2249
(lp2250
F-1.5629708301996743
aF-0.008440983589418255
asS'2100'
p2251
(lp2252
F4.176449614219757
aF0.08061155528069358
asS'1000'
p2253
(lp2254
F-5.895359980844148
aF-0.030984601649283693
assS'CITo2Mu_Lam34TeVDesLL_dimuon_Moriond2017_BB'
p2255
(dp2256
S'1300'
p2257
(lp2258
F-7.562423632075916
aF-0.07208646827579607
asS'600'
p2259
(lp2260
F4.504949353290385
aF0.042138016469532844
asS'700'
p2261
(lp2262
F-10.633715762502476
aF-0.109594499468018
asS'1200'
p2263
(lp2264
F-9.55046624807548
aF-0.08478732779491283
asS'1900'
p2265
(lp2266
F-1.382421914981431
aF-0.026933284441491716
asS'2200'
p2267
(lp2268
F-0.4992141467906668
aF-0.015261336556450237
asS'2300'
p2269
(lp2270
F-0.3430487823469117
aF-0.012192053148836526
asS'1500'
p2271
(lp2272
F-4.507986993677463
aF-0.052049933103382746
asS'2400'
p2273
(lp2274
F-0.22959440358873573
aF-0.00946442634424171
asS'400'
p2275
(lp2276
F111.23915108920573
aF1.2151823148754617
asS'1400'
p2277
(lp2278
F-5.881207571591876
aF-0.06123963021284083
asS'500'
p2279
(lp2280
F41.127066972638545
aF0.3978681897736271
asS'2500'
p2281
(lp2282
F-0.1480945249524691
aF-0.007056924105723408
asS'1700'
p2283
(lp2284
F-2.5536321795009096
aF-0.037614494133227545
asS'900'
p2285
(lp2286
F-15.630860157885664
aF-0.25152900174327836
asS'800'
p2287
(lp2288
F-15.427108071636468
aF-0.1696714919183642
asS'1800'
p2289
(lp2290
F-1.8896766795057665
aF-0.031900261721338766
asS'1600'
p2291
(lp2292
F-3.412465974346582
aF-0.04425806390197962
asS'2000'
p2293
(lp2294
F-0.9989686574250896
aF-0.022570103423661492
asS'1100'
p2295
(lp2296
F-11.770388715658171
aF-0.2262791752942196
asS'2100'
p2297
(lp2298
F-0.7119628552290804
aF-0.018704243703677327
asS'1000'
p2299
(lp2300
F-13.987466993929516
aF-0.22198928684864114
assS'CITo2Mu_Lam34TeVConRR_dimuon_Moriond2017_BE'
p2301
(dp2302
S'1300'
p2303
(lp2304
F4.09096265781298
aF0.039619593982038855
asS'600'
p2305
(lp2306
F37.686181980507286
aF0.3098300981018155
asS'700'
p2307
(lp2308
F26.56583956085541
aF0.24135098668798197
asS'1200'
p2309
(lp2310
F5.420532479339933
aF0.04862484688715649
asS'1900'
p2311
(lp2312
F0.9690889764796116
aF0.020892423409180207
asS'2200'
p2313
(lp2314
F0.5381134285275766
aF0.018715041671396804
asS'2300'
p2315
(lp2316
F0.4487177072853211
aF0.01818584776266326
asS'1500'
p2317
(lp2318
F2.4188427034736684
aF0.028921814519192398
asS'2400'
p2319
(lp2320
F0.3763783908124747
aF0.017687367641895158
asS'400'
p2321
(lp2322
F82.70569986439432
aF0.7022166305321654
asS'1400'
p2323
(lp2324
F3.1265003338266784
aF0.033329029797839645
asS'500'
p2325
(lp2326
F54.291453254303406
aF0.43066122340497587
asS'2500'
p2327
(lp2328
F0.3173153809463409
aF0.017197026408644515
asS'1700'
p2329
(lp2330
F1.4990629349861102
aF0.02362729909285471
asS'900'
p2331
(lp2332
F13.593783994159367
aF0.1599739099996223
asS'800'
p2333
(lp2334
F18.907803711627196
aF0.23233769765556817
asS'1800'
p2335
(lp2336
F1.199369903912594
aF0.02205096979565465
asS'1600'
p2337
(lp2338
F1.8935495053398865
aF0.025822515094952658
asS'2000'
p2339
(lp2340
F0.79016611698402
aF0.020010696326703194
asS'1100'
p2341
(lp2342
F7.273772815852851
aF0.06156581553258005
asS'2100'
p2343
(lp2344
F0.6496389650017833
aF0.019307603461942935
asS'1000'
p2345
(lp2346
F9.883805641642937
aF0.14472609387183016
assS'CITo2Mu_Lam34TeVConRR_dimuon_Moriond2017_BB'
p2347
(dp2348
S'1300'
p2349
(lp2350
F3.1825315726966927
aF0.03263033262812554
asS'600'
p2351
(lp2352
F13.520361042493676
aF0.13013695616254886
asS'700'
p2353
(lp2354
F11.509386244579815
aF0.12318108260662375
asS'1200'
p2355
(lp2356
F3.9129384071672284
aF0.037277103500686595
asS'1900'
p2357
(lp2358
F1.1426078803644097
aF0.023369617506938976
asS'2200'
p2359
(lp2360
F0.7615505834509255
aF0.023510305749248187
asS'2300'
p2361
(lp2362
F0.670789516392878
aF0.023727348005461845
asS'1500'
p2363
(lp2364
F2.172443620945863
aF0.026982406414442387
asS'2400'
p2365
(lp2366
F0.59228806484509
aF0.023950854829992135
asS'400'
p2367
(lp2368
F18.640289446294446
aF0.2057568284086077
asS'1400'
p2369
(lp2370
F2.615257961107096
aF0.029316127661327435
asS'500'
p2371
(lp2372
F15.032849954715061
aF0.14827900922597348
asS'2500'
p2373
(lp2374
F0.5237912013104338
aF0.0241440851668862
asS'1700'
p2375
(lp2376
F1.5469562622360868
aF0.024327324107451545
asS'900'
p2377
(lp2378
F7.579226334077717
aF0.06499298013877199
asS'800'
p2379
(lp2380
F9.425935904424335
aF0.11312059776817814
asS'1800'
p2381
(lp2382
F1.324125631845729
aF0.023691986857120286
asS'1600'
p2383
(lp2384
F1.82398282523957
aF0.02537946622488048
asS'2000'
p2385
(lp2386
F0.9928026908411227
aF0.023276535723155644
asS'1100'
p2387
(lp2388
F4.854113938894393
aF0.043749574318225945
asS'2100'
p2389
(lp2390
F0.8675603656519675
aF0.023343137678725596
asS'1000'
p2391
(lp2392
F6.059883619110643
aF0.08970634661728916
assS'CITo2Mu_Lam10TeVConRR_dimuon_Moriond2017_BB'
p2393
(dp2394
S'1300'
p2395
(lp2396
F178.03950355731652
aF1.7617099907899367
asS'600'
p2397
(lp2398
F408.2583024150097
aF4.445809721663834
asS'700'
p2399
(lp2400
F366.1928148186198
aF4.750786468769536
asS'1200'
p2401
(lp2402
F200.454523901273
aF4.817857483090564
asS'1900'
p2403
(lp2404
F87.71012885507787
aF1.5490506558775337
asS'2200'
p2405
(lp2406
F60.7780823322724
aF1.5704750085188908
asS'2300'
p2407
(lp2408
F53.58758115438466
aF1.5766794060472922
asS'1500'
p2409
(lp2410
F140.72854331962407
aF4.704823442929279
asS'2400'
p2411
(lp2412
F47.146894017086765
aF1.5784918971614132
asS'400'
p2413
(lp2414
F466.8114097255086
aF5.039232164834208
asS'1400'
p2415
(lp2416
F158.2556189457662
aF4.77053517103522
asS'500'
p2417
(lp2418
F444.69152066129084
aF4.507080907061832
asS'2500'
p2419
(lp2420
F41.385074655223505
aF1.5742606764233207
asS'1700'
p2421
(lp2422
F111.25142012440668
aF1.5618875772879783
asS'900'
p2423
(lp2424
F288.0096042793059
aF4.613049214932146
asS'800'
p2425
(lp2426
F325.2648398477914
aF5.234360037964101
asS'1800'
p2427
(lp2428
F98.8313827675583
aF1.550651615150113
asS'1600'
p2429
(lp2430
F125.14632073551421
aF4.616776611764442
asS'2000'
p2431
(lp2432
F77.74056232075675
aF1.5538929473981309
asS'1100'
p2433
(lp2434
F225.93841456400096
aF2.000169050662017
asS'2100'
p2435
(lp2436
F68.7985423337945
aF1.5620169187917161
asS'1000'
p2437
(lp2438
F254.97275463452792
aF4.7210337655735275
assS'CITo2Mu_Lam16TeVConLL_dimuon_Moriond2017_BE'
p2439
(dp2440
S'1300'
p2441
(lp2442
F32.905094063581345
aF0.4975497510024905
asS'600'
p2443
(lp2444
F122.53202969097777
aF0.8677885524834115
asS'700'
p2445
(lp2446
F102.49147395822143
aF0.7284249857080262
asS'1200'
p2447
(lp2448
F39.507323066760044
aF0.5071259301689411
asS'1900'
p2449
(lp2450
F12.039460456121024
aF0.11537548965470568
asS'2200'
p2451
(lp2452
F7.590565120768205
aF0.08984338182037502
asS'2300'
p2453
(lp2454
F6.52739422348151
aF0.0844083671645816
asS'1500'
p2455
(lp2456
F23.150883258581878
aF0.18532874590198886
asS'2400'
p2457
(lp2458
F5.616445691607662
aF0.07999290069763106
asS'400'
p2459
(lp2460
F186.9320157998086
aF1.5415184570594063
asS'1400'
p2461
(lp2462
F27.53614938238066
aF0.2130861647551817
asS'500'
p2463
(lp2464
F145.70085378894623
aF1.0914771924080857
asS'2500'
p2465
(lp2466
F4.83306206867737
aF0.07632147819089033
asS'1700'
p2467
(lp2468
F16.575772491182974
aF0.14363899368688973
asS'900'
p2469
(lp2470
F69.99380782765213
aF0.6285412190269207
asS'800'
p2471
(lp2472
F84.89683899221902
aF0.626668058073661
asS'1800'
p2473
(lp2474
F14.10469728238362
aF0.1281127385917186
asS'1600'
p2475
(lp2476
F19.549910962230665
aF0.16248337741396138
asS'2000'
p2477
(lp2478
F10.303551020119532
aF0.10499559396357491
asS'1100'
p2479
(lp2480
F47.64811185203883
aF0.5178128423775288
asS'2100'
p2481
(lp2482
F8.836555924212009
aF0.09659882694265694
asS'1000'
p2483
(lp2484
F57.68403659895762
aF0.6281730014931622
assS'CITo2Mu_Lam16TeVConLL_dimuon_Moriond2017_BB'
p2485
(dp2486
S'1300'
p2487
(lp2488
F33.41913347464819
aF0.5046352528028829
asS'600'
p2489
(lp2490
F77.82542151355102
aF0.6683418016383456
asS'700'
p2491
(lp2492
F71.85919295259689
aF0.5935177252744533
asS'1200'
p2493
(lp2494
F38.18322347134291
aF0.4523147834421809
asS'1900'
p2495
(lp2496
F15.484686062746128
aF0.13503222161349565
asS'2200'
p2497
(lp2498
F10.657337154885058
aF0.11105277359530953
asS'2300'
p2499
(lp2500
F9.405539509599755
aF0.10585422218016093
asS'1500'
p2501
(lp2502
F25.714846484113096
aF0.5039164622744133
asS'2400'
p2503
(lp2504
F8.29441488562826
aF0.1016643262168135
asS'400'
p2505
(lp2506
F84.3993803549497
aF0.8906620126056207
asS'1400'
p2507
(lp2508
F29.291377294674973
aF0.2183425821243794
asS'500'
p2509
(lp2510
F80.4537312214868
aF0.7553543822656735
asS'2500'
p2511
(lp2512
F7.306476691927412
aF0.0982413009621086
asS'1700'
p2513
(lp2514
F19.908835467664886
aF0.16027577575349453
asS'900'
p2515
(lp2516
F56.914588693522504
aF0.5446911267382939
asS'800'
p2517
(lp2518
F64.43699557224508
aF0.5516138293111497
asS'1800'
p2519
(lp2520
F17.55030949494026
aF0.14656636884835317
asS'1600'
p2521
(lp2522
F22.610507833528494
aF0.49837935477369005
asS'2000'
p2523
(lp2524
F13.669839968305398
aF0.12541780402471442
asS'1100'
p2525
(lp2526
F43.66489454416657
aF0.4471818435489628
asS'2100'
p2527
(lp2528
F12.070543805152413
aF0.11749798263915788
asS'1000'
p2529
(lp2530
F49.917687344359415
aF0.5610415533832486
assS'CITo2Mu_Lam10TeVConRR_dimuon_Moriond2017_BE'
p2531
(dp2532
S'1300'
p2533
(lp2534
F165.35622801284
aF4.388051128276219
asS'600'
p2535
(lp2536
F560.20732114826
aF4.838883559067774
asS'700'
p2537
(lp2538
F470.59192537889516
aF4.9811228207703975
asS'1200'
p2539
(lp2540
F194.90858939543656
aF4.469037821157592
asS'1900'
p2541
(lp2542
F65.70527621166984
aF1.2429120378851788
asS'2200'
p2543
(lp2544
F42.11848018869704
aF1.2310557734625487
asS'2300'
p2545
(lp2546
F36.294402281763354
aF1.2247284410318793
asS'1500'
p2547
(lp2548
F120.37321123034036
aF1.378414537173522
asS'2400'
p2549
(lp2550
F31.246632005762887
aF1.2136287929483949
asS'400'
p2551
(lp2552
F758.4086762533179
aF6.305823139736769
asS'1400'
p2553
(lp2554
F140.8421245742441
aF1.4648651250473448
asS'500'
p2555
(lp2556
F655.9289701281409
aF5.193788830327719
asS'2500'
p2557
(lp2558
F26.866627232812885
aF1.196575444546179
asS'1700'
p2559
(lp2560
F88.62847183649707
aF1.2786112267267264
asS'900'
p2561
(lp2562
F327.8405451349852
aF4.4876989546243005
asS'800'
p2563
(lp2564
F392.79588598656915
aF5.347058599882891
asS'1800'
p2565
(lp2566
F76.26560283134181
aF1.2551910684814067
asS'1600'
p2567
(lp2568
F103.17161314967576
aF3.996572506660399
asS'2000'
p2569
(lp2570
F56.646969078064856
aF1.2372904127528292
asS'1100'
p2571
(lp2572
F230.75666976167804
aF1.9396248177017175
asS'2100'
p2573
(lp2574
F48.849673383541734
aF1.2344118730406242
asS'1000'
p2575
(lp2576
F274.45747841733976
aF4.518863290324831
assS'CITo2Mu_Lam10TeVConLL_dimuon_Moriond2017_BB'
p2577
(dp2578
S'1300'
p2579
(lp2580
F176.82446747917385
aF3.061539856415745
asS'600'
p2581
(lp2582
F384.6872733611529
aF3.4272501004585396
asS'700'
p2583
(lp2584
F349.1112832006387
aF3.2288091490785793
asS'1200'
p2585
(lp2586
F198.06129738594433
aF3.598227939048563
asS'1900'
p2587
(lp2588
F89.56641955504271
aF2.6503546173593597
asS'2200'
p2589
(lp2590
F62.9052981935578
aF0.6473647900565691
asS'2300'
p2591
(lp2592
F55.71411801073233
aF2.21776202430058
asS'1500'
p2593
(lp2594
F141.12239671605684
aF2.970274891020321
asS'2400'
p2595
(lp2596
F49.24064984440481
aF0.5940048866174429
asS'400'
p2597
(lp2598
F429.13524305763303
aF4.413543949250316
asS'1400'
p2599
(lp2600
F157.9489675821348
aF1.1780343975803913
asS'500'
p2601
(lp2602
F413.09915811908854
aF3.8244041646520937
asS'2500'
p2603
(lp2604
F43.42030376602461
aF0.5739486206920054
asS'1700'
p2605
(lp2606
F112.58981311272785
aF2.829647788839635
asS'900'
p2607
(lp2608
F279.3844416460133
aF3.258413571097899
asS'800'
p2609
(lp2610
F313.0426678516171
aF3.1946042742182708
asS'1800'
p2611
(lp2612
F100.47171626999128
aF0.8362099508170331
asS'1600'
p2613
(lp2614
F126.07752388717024
aF0.9840079989049517
asS'2000'
p2615
(lp2616
F79.74209111968639
aF0.7258257525935561
asS'1100'
p2617
(lp2618
F222.00985626665027
aF3.4857573740458
asS'2100'
p2619
(lp2620
F70.88696514640357
aF0.6829707540535478
asS'1000'
p2621
(lp2622
F249.02680886741993
aF3.3664615923254266
assS'CITo2Mu_Lam16TeVDesLR_dimuon_Moriond2017_BE'
p2623
(dp2624
S'1300'
p2625
(lp2626
F25.640129432825375
aF0.23359090896943727
asS'600'
p2627
(lp2628
F-2.0731832803480756
aF-0.01723279176437391
asS'700'
p2629
(lp2630
F20.075884354207744
aF0.20317110831413535
asS'1200'
p2631
(lp2632
F27.947680879468507
aF0.23832064721406793
asS'1900'
p2633
(lp2634
F13.878289694778667
aF0.24189808935152576
asS'2200'
p2635
(lp2636
F9.88627336490407
aF0.26215095893130763
asS'2300'
p2637
(lp2638
F8.781910063221687
aF0.2677791547740641
asS'1500'
p2639
(lp2640
F21.1514381034248
aF0.22825220149505046
asS'2400'
p2641
(lp2642
F7.775386465998098
aF0.2720343567306404
asS'400'
p2643
(lp2644
F-162.6759182197552
aF-1.3748451361972125
asS'1400'
p2645
(lp2646
F23.344020812900954
aF0.22998004669629296
asS'500'
p2647
(lp2648
F-52.4198556290271
aF-0.41190264385345404
asS'2500'
p2649
(lp2650
F6.858910107458692
aF0.2745501895399454
asS'1700'
p2651
(lp2652
F17.208373747080167
aF0.2313988299139153
asS'900'
p2653
(lp2654
F31.815880648777267
aF0.3981097548535629
asS'800'
p2655
(lp2656
F29.058697849782362
aF0.38452157850290597
asS'1800'
p2657
(lp2658
F15.469594665156936
aF0.23595006630512372
asS'1600'
p2659
(lp2660
F19.102009689995846
aF0.22873312464481244
asS'2000'
p2661
(lp2662
F12.424409842264385
aF0.24865316828635803
asS'1100'
p2663
(lp2664
F30.07305207331914
aF0.5877995153665435
asS'2100'
p2665
(lp2666
F11.097216030875058
aF0.2555999325692778
asS'1000'
p2667
(lp2668
F31.624388876628373
aF0.49815142987806627
assS'CITo2Mu_Lam22TeVDesLL_dimuon_Moriond2017_BE'
p2669
(dp2670
S'1300'
p2671
(lp2672
F-6.575365338947201
aF-0.05980681505322783
asS'600'
p2673
(lp2674
F-33.40472991074455
aF-0.26903401120985215
asS'700'
p2675
(lp2676
F-34.606335812565646
aF-0.32635071325820353
asS'1200'
p2677
(lp2678
F-9.318603383942044
aF-0.07875796244958505
asS'1900'
p2679
(lp2680
F-0.2106693508707269
aF-0.004038527507217601
asS'2200'
p2681
(lp2682
F0.3349570024438102
aF0.00998730263781135
asS'2300'
p2683
(lp2684
F0.3946675549608847
aF0.013571587514941436
asS'1500'
p2685
(lp2686
F-3.0339353715353763
aF-0.03369786893969338
asS'2400'
p2687
(lp2688
F0.42055712946157287
aF0.016616191901115122
asS'400'
p2689
(lp2690
F42.406604444251116
aF0.35529551250439617
asS'1400'
p2691
(lp2692
F-4.534344406676436
aF-0.045190854041701665
asS'500'
p2693
(lp2694
F-14.076268561882216
aF-0.10954269537069974
asS'2500'
p2695
(lp2696
F0.42294360865613156
aF0.019120750547167536
asS'1700'
p2697
(lp2698
F-1.1571161851333178
aF-0.016621231879230806
asS'900'
p2699
(lp2700
F-23.31246837153654
aF-0.2395845374252682
asS'800'
p2701
(lp2702
F-29.574802540115314
aF-0.3299300025062137
asS'1800'
p2703
(lp2704
F-0.5995754312688453
aF-0.009927112810078536
asS'1600'
p2705
(lp2706
F-1.9424381468417096
aF-0.024396568658562243
asS'2000'
p2707
(lp2708
F0.053978176307411196
aF0.0012001026471345835
asS'1100'
p2709
(lp2710
F-12.944464813439929
aF-0.10347135011059962
asS'2100'
p2711
(lp2712
F0.22757751312477215
aF0.005865462464506101
asS'1000'
p2713
(lp2714
F-17.608202412919695
aF-0.22543834235124616
assS'CITo2Mu_Lam22TeVDesLL_dimuon_Moriond2017_BB'
p2715
(dp2716
S'1300'
p2717
(lp2718
F-4.725401058449975
aF-0.044179987636128654
asS'600'
p2719
(lp2720
F2.620372275082673
aF0.023878765313676272
asS'700'
p2721
(lp2722
F-11.890125168636729
aF-0.1161823461588749
asS'1200'
p2723
(lp2724
F-6.794729957037706
aF-0.05927630988565035
asS'1900'
p2725
(lp2726
F0.5248261313272575
aF0.009186091510201642
asS'2200'
p2727
(lp2728
F0.8650760709514482
aF0.022256758768772915
asS'2300'
p2729
(lp2730
F0.8663923814317489
aF0.02545422333912063
asS'1500'
p2731
(lp2732
F-1.8368370011812178
aF-0.020510616955403536
asS'2400'
p2733
(lp2734
F0.838764025836416
aF0.02815293521188291
asS'400'
p2735
(lp2736
F114.08323932509165
aF1.2380015597406209
asS'1400'
p2737
(lp2738
F-3.0874920321814976
aF-0.03137467774924019
asS'500'
p2739
(lp2740
F40.78858729208105
aF0.3907852128043976
asS'2500'
p2741
(lp2742
F0.792502677611863
aF0.0303736136190983
asS'1700'
p2743
(lp2744
F-0.2445726473146923
aF-0.0033783345693255314
asS'900'
p2745
(lp2746
F-14.492432945047241
aF-0.2146707673905716
asS'800'
p2747
(lp2748
F-15.434669122172096
aF-0.18076167135174104
asS'1800'
p2749
(lp2750
F0.21781533060637326
aF0.0033781784046944
asS'1600'
p2751
(lp2752
F-0.9104345986180604
aF-0.011267469204879834
asS'2000'
p2753
(lp2754
F0.7155414213010021
aF0.014195448452483663
asS'1100'
p2755
(lp2756
F-9.279828240885927
aF-0.1778050316115001
asS'2100'
p2757
(lp2758
F0.8209321240484
aF0.018523540210967162
asS'1000'
p2759
(lp2760
F-12.01551736673543
aF-0.1897740622096358
ass.