(dp0
S'CITo2Mu_Lam10TeVConLL_dimuon_BE'
p1
(dp2
S'1'
p3
(lp4
F198.98218173441444
aF1.6645722475919231
asS'0'
p5
(lp6
F114.88688263837298
aF1.072147879671921
asS'3'
p7
(lp8
F172.3902755729301
aF1.2941875333849275
asS'2'
p9
(lp10
F250.0705625220811
aF1.8788990058420707
asS'4'
p11
(lp12
F63.99776182643352
aF0.6186881362627575
assS'CITo2Mu_Lam10TeVConLR_dimuon_BE'
p13
(dp14
g3
(lp15
F389.59298663946765
aF3.363824927180077
asg5
(lp16
F254.46673626632673
aF2.458529264476345
asg7
(lp17
F290.48390695339253
aF2.4205277107045973
asg9
(lp18
F415.144771651527
aF3.273938693515447
asg11
(lp19
F119.8353311327547
aF1.9954545237416417
assS'CITo2Mu_Lam10TeVConLR_dimuon_BB'
p20
(dp21
g3
(lp22
F212.2547633314038
aF2.35714433977971
asg5
(lp23
F143.0166671174602
aF1.8100875666257752
asg7
(lp24
F242.80277879632283
aF2.0826744489908093
asg9
(lp25
F248.20793600722374
aF2.312109694038583
asg11
(lp26
F149.86772416626826
aF2.260261133942164
assS'CITo2Mu_Lam10TeVConLL_dimuon_BB'
p27
(dp28
g3
(lp29
F65.67218389623025
aF0.7035808759734251
asg5
(lp30
F16.996320242674074
aF0.20474065218927348
asg7
(lp31
F133.40449354801703
aF1.0391935278938553
asg9
(lp32
F128.33339874843386
aF1.1627652015479908
asg11
(lp33
F79.77263916493536
aF0.698017856753934
assS'CITo2Mu_Lam28TeVConRR_dimuon_BB'
p34
(dp35
g3
(lp36
F14.60535266653369
aF0.1621953927883838
asg5
(lp37
F15.739004910798258
aF0.199400744936732
asg7
(lp38
F5.801885439894541
aF0.053307052943295394
asg9
(lp39
F10.41521419413823
aF0.09886534926438045
asg11
(lp40
F2.176505385464144
aF0.04100434222054152
assS'CITo2Mu_Lam28TeVConRR_dimuon_BE'
p41
(dp42
g3
(lp43
F35.25410221979803
aF0.3053255769243942
asg5
(lp44
F31.28587448079452
aF0.29995298358345557
asg7
(lp45
F8.205231611696718
aF0.07129544238129415
asg9
(lp46
F21.15044452046891
aF0.17117121289137494
asg11
(lp47
F1.86503604921832
aF0.03679233411903504
assS'CITo2Mu_Lam22TeVConRR_dimuon_BB'
p48
(dp49
g3
(lp50
F12.984056904162856
aF0.14338524063904398
asg5
(lp51
F16.625382230062655
aF0.2095092347529846
asg7
(lp52
F11.403645443669745
aF0.10393944527207878
asg9
(lp53
F14.672955482267781
aF0.1383086323802439
asg11
(lp54
F4.723318338396649
aF0.08617701722823258
assS'CITo2Mu_Lam22TeVConRR_dimuon_BE'
p55
(dp56
g3
(lp57
F40.30133694494248
aF0.34593271764871986
asg5
(lp58
F34.750964669466384
aF0.331182324958727
asg7
(lp59
F16.14576650193723
aF0.13898940549272493
asg9
(lp60
F33.471655179818185
aF0.26762281824861267
asg11
(lp61
F3.8343145466065547
aF0.07367885420660149
assS'CITo2Mu_Lam28TeVConLR_dimuon_BB'
p62
(dp63
g3
(lp64
F64.26892774031666
aF0.7066209580080978
asg5
(lp65
F68.61686160870397
aF0.8629287740786237
asg7
(lp66
F1.0253636732414009
aF0.008862855381248043
asg9
(lp67
F18.265037603594266
aF0.1685839851951002
asg11
(lp68
F2.2700486532657074
aF0.03817186038563161
assS'CITo2Mu_Lam28TeVConLR_dimuon_BE'
p69
(dp70
g3
(lp71
F86.12453784732622
aF0.7417104461413041
asg5
(lp72
F102.61530050335091
aF0.9820282720640533
asg7
(lp73
F2.409473648804571
aF0.02021189660666502
asg9
(lp74
F26.08468063966683
aF0.20791348105879653
asg11
(lp75
F1.8083682936595737
aF0.03294582140014398
assS'CITo2Mu_Lam34TeVConLL_dimuon_BB'
p76
(dp77
g3
(lp78
F11.291805139418443
aF0.11876668781076063
asg5
(lp79
F8.892066255378268
aF0.10556914852364899
asg7
(lp80
F3.446871179013584
aF0.026712208866007347
asg9
(lp81
F7.4011663076012155
aF0.06587789112655816
asg11
(lp82
F1.214658117958562
aF0.010787671751166244
assS'CITo2Mu_Lam16TeVConRR_dimuon_BE'
p83
(dp84
g3
(lp85
F73.75843917601196
aF0.628081896911685
asg5
(lp86
F72.26571746868171
aF0.6841221322960255
asg7
(lp87
F38.04692344592496
aF0.32488745780018213
asg9
(lp88
F69.31522966607366
aF0.5487123872852131
asg11
(lp89
F11.150443530229435
aF0.2064200488140173
assS'CITo2Mu_Lam34TeVConLL_dimuon_BE'
p90
(dp91
g3
(lp92
F49.20592472750343
aF0.40707249137589896
asg5
(lp93
F73.17971812504561
aF0.6753240423027068
asg7
(lp94
F4.997384577951493
aF0.03759895397063034
asg9
(lp95
F18.299068709343373
aF0.13671525158526235
asg11
(lp96
F1.1315163916378759
aF0.011046821127903545
assS'CITo2Mu_Lam10TeVConRR_dimuon_BB'
p97
(dp98
g3
(lp99
F76.93365162669733
aF0.8642697077412129
asg5
(lp100
F20.908681781531072
aF0.26724285945367476
asg7
(lp101
F138.8460280085617
aF1.2629605670230528
asg9
(lp102
F139.56136224911853
aF1.3340101193217972
asg11
(lp103
F78.89211596624894
aF1.3426754384462198
assS'CITo2Mu_Lam10TeVConRR_dimuon_BE'
p104
(dp105
g3
(lp106
F188.00447900636743
aF1.6130416150863103
asg5
(lp107
F104.30380531892843
aF0.9964904010952768
asg7
(lp108
F170.81147563511365
aF1.4635180853987824
asg9
(lp109
F245.2509200492949
aF1.949303217688008
asg11
(lp110
F63.48110515034469
aF1.1407516423107253
assS'CITo2Mu_Lam28TeVConLL_dimuon_BB'
p111
(dp112
g3
(lp113
F15.28136743198337
aF0.16022794645867813
asg5
(lp114
F23.463778341278044
aF0.2773578573902888
asg7
(lp115
F5.214750694160401
aF0.040356007521190174
asg9
(lp116
F8.67709027149877
aF0.07712152858138381
asg11
(lp117
F2.132212837686633
aF0.018894203664805362
assS'CITo2Mu_Lam16TeVConRR_dimuon_BB'
p118
(dp119
g3
(lp120
F12.566258053319416
aF0.1389706621284362
asg5
(lp121
F5.933904402718781
aF0.07480719693840486
asg7
(lp122
F29.301178703530553
aF0.2658398349969637
asg9
(lp123
F31.35412490119512
aF0.2955012649497742
asg11
(lp124
F13.861593326494805
aF0.24384761006993758
assS'CITo2Mu_Lam28TeVConLL_dimuon_BE'
p125
(dp126
g3
(lp127
F42.15894813658838
aF0.34808121945550513
asg5
(lp128
F65.64815366611492
aF0.6045584213875743
asg7
(lp129
F7.380967674571025
aF0.05530563923182263
asg9
(lp130
F18.767774113938913
aF0.13995555131116397
asg11
(lp131
F1.879957979396595
aF0.018249992223887342
assS'CITo2Mu_Lam22TeVConLL_dimuon_BB'
p132
(dp133
g3
(lp134
F11.548113635439393
aF0.12110306195731574
asg5
(lp135
F14.264356555293261
aF0.16858817313626928
asg7
(lp136
F10.348270695693166
aF0.0797613496097834
asg9
(lp137
F12.547472393903178
aF0.11140827051372242
asg11
(lp138
F4.6177948129190645
aF0.04075642554878536
assS'CITo2Mu_Lam34TeVConLR_dimuon_BB'
p139
(dp140
g3
(lp141
F47.80255008833535
aF0.5276145996576985
asg5
(lp142
F49.95346608847683
aF0.6302932055195662
asg7
(lp143
F-2.4791732693585757
aF-0.021511647794135655
asg9
(lp144
F10.71177854054227
aF0.09936433972057634
asg11
(lp145
F0.6110531432625503
aF0.010550694335360978
assS'CITo2Mu_Lam34TeVConLR_dimuon_BE'
p146
(dp147
g3
(lp148
F64.33276440506427
aF0.554523033347125
asg5
(lp149
F67.27049451112703
aF0.6448233583025355
asg7
(lp150
F-0.47135553570742417
aF-0.003945678625400711
asg9
(lp151
F20.796900004211523
aF0.1653628937203173
asg11
(lp152
F0.3175546514693268
aF0.005946532029260117
assS'CITo2Mu_Lam22TeVConLL_dimuon_BE'
p153
(dp154
g3
(lp155
F57.6040677885361
aF0.47783084906630124
asg5
(lp156
F76.87828092961354
aF0.7105023094586934
asg7
(lp157
F14.831420818709546
aF0.1109415426273644
asg9
(lp158
F33.185460751329856
aF0.24838837153068014
asg11
(lp159
F3.9356707960645334
aF0.03809924926001521
assS'CITo2Mu_Lam22TeVConLR_dimuon_BB'
p160
(dp161
g3
(lp162
F58.120746479937736
aF0.6385927690494613
asg5
(lp163
F59.57925308505253
aF0.7480587331036694
asg7
(lp164
F9.2393778139756
aF0.079545416460346
asg9
(lp165
F24.01897989050528
aF0.22140285404656318
asg11
(lp166
F6.304036317512511
aF0.1025150238227725
assS'CITo2Mu_Lam22TeVConLR_dimuon_BE'
p167
(dp168
g3
(lp169
F92.72362949569833
aF0.7951827080285031
asg5
(lp170
F102.04965960927598
aF0.9743291407405903
asg7
(lp171
F13.736719927851517
aF0.11422864489803966
asg9
(lp172
F43.17284945397148
aF0.3408219520314599
asg11
(lp173
F5.207961714709829
aF0.0918898350959972
assS'CITo2Mu_Lam16TeVConLL_dimuon_BB'
p174
(dp175
g3
(lp176
F10.673601765692354
aF0.112936210565209
asg5
(lp177
F5.093555570152489
aF0.06064115599429434
asg7
(lp178
F28.484841076965466
aF0.22051422316454536
asg9
(lp179
F29.366900730820788
aF0.2630243567494726
asg11
(lp180
F13.822987949514157
aF0.12182920387749567
assS'CITo2Mu_Lam34TeVConRR_dimuon_BE'
p181
(dp182
g3
(lp183
F32.68870914602405
aF0.28385517480203915
asg5
(lp184
F33.271486712509386
aF0.31906207875716436
asg7
(lp185
F6.537257619212625
aF0.05722692533334511
asg9
(lp186
F20.371141004062338
aF0.16621669171566186
asg11
(lp187
F0.9633862683749799
aF0.019528978847579027
assS'CITo2Mu_Lam34TeVConRR_dimuon_BB'
p188
(dp189
g3
(lp190
F3.5598045188041283
aF0.03988865722783681
asg5
(lp191
F4.81909046117471
aF0.061482118794225556
asg7
(lp192
F3.599855032991343
aF0.033359899952903733
asg9
(lp193
F5.993290512481082
aF0.05753049009429558
asg11
(lp194
F1.0199654849814594
aF0.019707671334118198
assS'CITo2Mu_Lam16TeVConLL_dimuon_BE'
p195
(dp196
g3
(lp197
F42.959803886753775
aF0.3554524082538164
asg5
(lp198
F40.447606680373156
aF0.373392810037082
asg7
(lp199
F37.01492656212887
aF0.27467643548320325
asg9
(lp200
F56.48104773235815
aF0.4195980325462914
asg11
(lp201
F11.606431662569307
aF0.11184331356198714
assS'CITo2Mu_Lam16TeVConLR_dimuon_BB'
p202
(dp203
g3
(lp204
F68.28500020303107
aF0.7511439702551272
asg5
(lp205
F56.29106795607004
aF0.7066260510431791
asg7
(lp206
F40.75196223042058
aF0.34855095951899345
asg9
(lp207
F55.875308050116274
aF0.5145734101730608
asg11
(lp208
F23.782584925903986
aF0.3686989156102541
assS'CITo2Mu_Lam16TeVConLR_dimuon_BE'
p209
(dp210
g3
(lp211
F109.85268087059717
aF0.9413513975411498
asg5
(lp212
F90.84106025437154
aF0.8684364612564446
asg7
(lp213
F51.98089527762634
aF0.4303243101010222
asg9
(lp214
F94.32354401219857
aF0.7403195913962476
asg11
(lp215
F19.40771875934101
aF0.32996795287187125
ass.