(dp0
S'CITo2Mu_Lam10TeVConLL_dimuon_BE'
p1
(dp2
S'2900'
p3
(lp4
F15.070649789144188
aF0.3662889949332707
asS'1300'
p5
(lp6
F167.10240104612953
aF1.268308192347072
asS'600'
p7
(lp8
F570.580415953837
aF4.109637522807763
asS'700'
p9
(lp10
F477.159531181656
aF3.345571460984543
asS'1200'
p11
(lp12
F196.9457347519424
aF1.4535641984045167
asS'3000'
p13
(lp14
F12.890239984639063
aF0.35050955927937644
asS'2800'
p15
(lp16
F17.579928130264477
aF0.3817162262695699
asS'1900'
p17
(lp18
F66.61577649407005
aF0.6422022547246046
asS'2200'
p19
(lp20
F42.91360504704333
aF0.506733367886075
asS'2300'
p21
(lp22
F37.06765944140464
aF0.47682957569866885
asS'3100'
p23
(lp24
F10.997029065810981
aF0.33408086827096867
asS'1500'
p25
(lp26
F121.70040013393731
aF0.9855610793976105
asS'3300'
p27
(lp28
F7.932353010454869
aF0.298774315827774
asS'2400'
p29
(lp30
F32.0017807846964
aF0.4522158028901272
asS'400'
p31
(lp32
F788.845323860709
aF6.51259086216267
asS'1400'
p33
(lp34
F142.35534252909136
aF1.1145020055847292
asS'500'
p35
(lp36
F673.9716438981816
aF5.111397545402177
asS'2500'
p37
(lp38
F27.60542933016103
aF0.4315433311211928
asS'2600'
p39
(lp40
F23.786217698830974
aF0.41357936819952856
asS'2700'
p41
(lp42
F20.466363760234522
aF0.3972591797056208
asS'3400'
p43
(lp44
F6.701939259262598
aF0.27990527928881254
asS'1700'
p45
(lp46
F89.69386866944392
aF0.7848654618266022
asS'900'
p47
(lp48
F331.40798607486136
aF2.3113577680167974
asS'800'
p49
(lp50
F397.4378751226195
aF2.761558963764051
asS'1800'
p51
(lp52
F77.24285915915927
aF0.7072949953001753
asS'3500'
p53
(lp54
F5.639553761743039
aF0.2603541772331794
asS'1600'
p55
(lp56
F104.35172271109404
aF0.8768012636098965
asS'3200'
p57
(lp58
F9.354886455896773
aF0.316848942575436
asS'2000'
p59
(lp60
F57.50747655559783
aF0.5880215157569713
asS'1100'
p61
(lp62
F233.16152528820803
aF1.679544397145878
asS'2100'
p63
(lp64
F49.67289119728309
aF0.5433292728836172
asS'1000'
p65
(lp66
F277.3444253287866
aF1.959325678387816
assS'CITo2Mu_Lam10TeVConLR_dimuon_BE'
p67
(dp68
S'2900'
p69
(lp70
F28.209900379216723
aF1.8490208790833773
asS'1300'
p71
(lp72
F297.36669920253854
aF2.7055870277147562
asS'600'
p73
(lp74
F981.6208564128203
aF7.205627393504271
asS'700'
p75
(lp76
F809.8825803720903
aF5.890947872258146
asS'1200'
p77
(lp78
F346.3477669149153
aF2.967060846140009
asS'3000'
p79
(lp80
F24.037154233546588
aF1.7724482226519118
asS'2800'
p81
(lp82
F33.01900832093289
aF1.9168417706062926
asS'1900'
p83
(lp84
F124.77094965531403
aF2.128372979150262
asS'2200'
p85
(lp86
F81.14222031430674
aF2.1124826140481368
asS'2300'
p87
(lp88
F70.15772342309337
aF2.103220719616963
asS'3100'
p89
(lp90
F20.423197358808075
aF1.688278890260023
asS'1500'
p91
(lp92
F221.29913331356778
aF2.356640338538631
asS'3300'
p93
(lp94
F14.604953632421932
aF1.5022592863617088
asS'2400'
p95
(lp96
F60.57120699316013
aF2.086204122824817
asS'400'
p97
(lp98
F1450.0614216262138
aF12.042408278653173
asS'1400'
p99
(lp100
F256.1949894469538
aF2.5048314232146978
asS'500'
p101
(lp102
F1194.8023909104202
aF9.126343501598443
asS'2500'
p103
(lp104
F52.20583314401259
aF2.059652064567014
asS'2600'
p105
(lp106
F44.909931411562965
aF2.022644511837984
asS'2700'
p107
(lp108
F38.55237294799555
aF1.9749443967140112
asS'3400'
p109
(lp110
F12.285945195844787
aF1.4030266087294418
asS'1700'
p111
(lp112
F165.93959049272746
aF2.186570791446522
asS'900'
p113
(lp114
F564.3201589358665
aF4.255895594527425
asS'800'
p115
(lp116
F673.2781844816382
aF4.952952838358079
asS'1800'
p117
(lp118
F143.87702046064868
aF2.1478105063859854
asS'3500'
p119
(lp120
F10.294581137127595
aF1.3013378960034812
asS'1600'
p121
(lp122
F191.51330763277588
aF2.2532873678309144
asS'3200'
p123
(lp124
F17.299400016860208
aF1.5977785964924847
asS'2000'
p125
(lp126
F108.17662274537541
aF2.1203090940589187
asS'1100'
p127
(lp128
F405.17940517140755
aF3.2998553606516623
asS'2100'
p129
(lp130
F93.73275971727703
aF2.116822767369106
asS'1000'
p131
(lp132
F476.6039808137815
aF3.7203579003021567
assS'CITo2Mu_Lam10TeVConLR_dimuon_BB'
p133
(dp134
S'2900'
p135
(lp136
F46.2317103695306
aF2.6344418258555558
asS'1300'
p137
(lp138
F328.3589095207706
aF3.025017434891759
asS'600'
p139
(lp140
F753.0164927780331
aF6.343651980776758
asS'700'
p141
(lp142
F657.8159711542603
aF5.290099764020384
asS'1200'
p143
(lp144
F366.40087721300995
aF3.196929466992505
asS'3000'
p145
(lp146
F40.12537008565626
aF2.57570926515789
asS'2800'
p147
(lp148
F53.14540531830489
aF2.67943014615214
asS'1900'
p149
(lp150
F167.5127655460116
aF2.639998540817598
asS'2200'
p151
(lp152
F116.71938746330716
aF2.6889868084573734
asS'2300'
p153
(lp154
F102.99158595690979
aF2.7097276832654233
asS'3100'
p155
(lp156
F34.74575991585612
aF2.5039047008751174
asS'1500'
p157
(lp158
F263.64245356578283
aF2.788785122161728
asS'3300'
p159
(lp160
F25.870269675519822
aF2.325079818304549
asS'2400'
p161
(lp162
F90.65932377684885
aF2.7251905792927795
asS'400'
p163
(lp164
F1012.1102030100496
aF10.473118244032351
asS'1400'
p165
(lp166
F294.300871247084
aF2.8907294939130153
asS'500'
p167
(lp168
F870.3917738276294
aF7.954455425913147
asS'2500'
p169
(lp170
F79.61134167144537
aF2.7319934482699693
asS'2600'
p171
(lp172
F69.74231538553742
aF2.727622086803724
asS'2700'
p173
(lp174
F60.952101952927435
aF2.710404267953467
asS'3400'
p175
(lp176
F22.23949232006789
aF2.2204115760455445
asS'1700'
p177
(lp178
F210.85895742707055
aF2.6689876056589967
asS'900'
p179
(lp180
F513.9524180458264
aF4.068433571690163
asS'800'
p181
(lp182
F579.5628508085481
aF4.5743432402960025
asS'1800'
p183
(lp184
F188.1224898296514
aF2.6450471332591734
asS'3500'
p185
(lp186
F19.065706955730093
aF2.1072111287684576
asS'1600'
p187
(lp188
F235.94219370971044
aF2.7158225712878985
asS'3200'
p189
(lp190
F30.017437955527654
aF2.419983919070982
asS'2000'
p191
(lp192
F148.84539500651272
aF2.6490975941945236
asS'1100'
p193
(lp194
F409.2162299596786
aF3.4156672201971343
asS'2100'
p195
(lp196
F131.96129062389346
aF2.6671624028441676
asS'1000'
p197
(lp198
F457.89217202527465
aF3.6971831465896914
assS'CITo2Mu_Lam10TeVConLL_dimuon_BB'
p199
(dp200
S'2900'
p201
(lp202
F25.587258613519168
aF0.5108081043757151
asS'1300'
p203
(lp204
F176.8244674791736
aF1.297961535158821
asS'600'
p205
(lp206
F384.68727336115165
aF3.2550440070756372
asS'700'
p207
(lp208
F349.1112832006384
aF2.769854890710453
asS'1200'
p209
(lp210
F198.06129738594464
aF1.4385259674462771
asS'3000'
p211
(lp212
F22.259593806420323
aF0.4947308256184924
asS'2800'
p213
(lp214
F29.32465753273532
aF0.5260365658765741
asS'1900'
p215
(lp216
F89.5664195550428
aF0.7766901836446999
asS'2200'
p217
(lp218
F62.9052981935576
aF0.6473647900568438
asS'2300'
p219
(lp220
F55.71411801073233
aF0.6180754292840652
asS'3100'
p221
(lp222
F19.303876567061522
aF0.4773652094507515
asS'1500'
p223
(lp224
F141.12239671605724
aF1.0743648918977242
asS'3300'
p225
(lp226
F14.370534600219978
aF0.4378650955860189
asS'2400'
p227
(lp228
F49.24064984440487
aF0.5940048866174261
asS'400'
p229
(lp230
F429.1352430576326
aF4.4470090571126075
asS'1400'
p231
(lp232
F157.94896758213505
aF1.1780343975838026
asS'500'
p233
(lp234
F413.09915811908786
aF3.816106438092171
asS'2500'
p235
(lp236
F43.42030376602458
aF0.5739486206930076
asS'2600'
p237
(lp238
F38.19511777645016
aF0.5566822302239445
asS'2700'
p239
(lp240
F33.51256621127683
aF0.5410502109281663
asS'3400'
p241
(lp242
F12.33018418750497
aF0.41562588634813186
asS'1700'
p243
(lp244
F112.58981311272775
aF0.9050374564739041
asS'900'
p245
(lp246
F279.38444164601344
aF2.060739146533164
asS'800'
p247
(lp248
F313.042667851617
aF2.3752705678534216
asS'1800'
p249
(lp250
F100.47171626999139
aF0.8362099508141274
asS'3500'
p251
(lp252
F10.536061878649718
aF0.39183285621243336
asS'1600'
p253
(lp254
F126.0775238871704
aF0.9840079988989383
asS'3200'
p255
(lp256
F16.68503939283953
aF0.4584477347104225
asS'2000'
p257
(lp258
F79.74209111968632
aF0.7258257525959854
asS'1100'
p259
(lp260
F222.00985626665042
aF1.6060575118431406
asS'2100'
p261
(lp262
F70.88696514640365
aF0.6829707540528805
asS'1000'
p263
(lp264
F249.02680886741976
aF1.8094462872125296
assS'CITo2Mu_Lam28TeVConRR_dimuon_BB'
p265
(dp266
S'2900'
p267
(lp268
F0.5025810463973599
aF0.035644096774013485
asS'1300'
p269
(lp270
F5.725395433710606
aF0.05840421223584559
asS'600'
p271
(lp272
F23.924576419151947
aF0.22261782918623457
asS'700'
p273
(lp274
F18.37787659179787
aF0.16220316041875846
asS'1200'
p275
(lp276
F6.764010882198548
aF0.06416743879565269
asS'3000'
p277
(lp278
F0.4256493012306485
aF0.033792106655775415
asS'2800'
p279
(lp280
F0.5911916683302632
aF0.037334197906087455
asS'1900'
p281
(lp282
F2.2944854763680342
aF0.04555312797345773
asS'2200'
p283
(lp284
F1.478397246336468
aF0.04371371744357047
asS'2300'
p285
(lp286
F1.2752161326161868
aF0.04304510600858899
asS'3100'
p287
(lp288
F0.3590052200817415
aF0.031800829455668936
asS'1500'
p289
(lp290
F4.170319654873156
aF0.05124309711936459
asS'3300'
p291
(lp292
F0.25183616340829873
aF0.027509775358714
asS'2400'
p293
(lp294
F1.0983913203239588
aF0.04225228613374723
asS'400'
p295
(lp296
F48.070136980776624
aF0.5388077664802189
asS'1400'
p297
(lp298
F4.875072626272539
aF0.0542489239772924
asS'500'
p299
(lp300
F32.61191941164009
aF0.32816527453487965
asS'2500'
p301
(lp302
F0.9443420129336568
aF0.04130030731654474
asS'2600'
p303
(lp304
F0.8100776236461067
aF0.04016778558157629
asS'2700'
p305
(lp306
F0.6930762812526791
aF0.03884538499766877
asS'3400'
p307
(lp308
F0.2092743716991232
aF0.025270016063073667
asS'1700'
p309
(lp310
F3.0816898117294995
aF0.04751244783697604
asS'900'
p311
(lp312
F11.771333115024092
aF0.10022532471994174
asS'800'
p313
(lp314
F14.55118016609083
aF0.12471288614764986
asS'1800'
p315
(lp316
F2.657558481410829
aF0.04638643662458926
asS'3500'
p317
(lp318
F0.17288837067696639
aF0.023008501174647696
asS'1600'
p319
(lp320
F3.580171441397791
aF0.04907313841462347
asS'3200'
p321
(lp322
F0.301427185272908
aF0.029696940768853645
asS'2000'
p323
(lp324
F1.982114351426639
aF0.044893608185582065
asS'1100'
p325
(lp326
F8.051397189422651
aF0.07223360820768528
asS'2100'
p327
(lp328
F1.7122655185416134
aF0.04430796078639278
asS'1000'
p329
(lp330
F9.67585532804253
aF0.08368106505885303
assS'CITo2Mu_Lam28TeVConRR_dimuon_BE'
p331
(dp332
S'2900'
p333
(lp334
F0.29778921890025556
aF0.025314446054617027
asS'1300'
p335
(lp336
F6.204878833768994
aF0.059970650951760955
asS'600'
p337
(lp338
F47.70411644137744
aF0.37593543809322777
asS'700'
p339
(lp340
F32.35829085432607
aF0.2517628308945823
asS'1200'
p341
(lp342
F7.7745796050884515
aF0.06965967994043075
asS'3000'
p343
(lp344
F0.24566901328603089
aF0.023423790832945594
asS'2800'
p345
(lp346
F0.35984661085585706
aF0.02714847331514176
asS'1900'
p347
(lp348
F1.874993622584003
aF0.03930531917767159
asS'2200'
p349
(lp350
F1.0807690212969585
aF0.035959773355827555
asS'2300'
p351
(lp352
F0.9012645881577379
aF0.034785005187214064
asS'3100'
p353
(lp354
F0.20193344645767655
aF0.021501459973310207
asS'1500'
p355
(lp356
F4.068050072674309
aF0.0482992535206023
asS'3300'
p357
(lp358
F0.1346483367207486
aF0.01766177843065735
asS'2400'
p359
(lp360
F0.7516084385285435
aF0.03350044126754516
asS'400'
p361
(lp362
F110.72260894000465
aF0.9646716386927442
asS'1400'
p363
(lp364
F5.003613928231525
aF0.053130702310807756
asS'500'
p365
(lp366
F73.10559544063949
aF0.5957188561513873
asS'2500'
p367
(lp368
F0.6264924186310981
aF0.03209084439314813
asS'2600'
p369
(lp370
F0.5216694693436448
aF0.030555110739807094
asS'2700'
p371
(lp372
F0.4337148494283322
aF0.028902285708129326
asS'3400'
p373
(lp374
F0.10909900359551299
aF0.01579197761102052
asS'1700'
p375
(lp376
F2.7386139009113215
aF0.042457324850198735
asS'900'
p377
(lp378
F16.84645473295957
aF0.13307319392607492
asS'800'
p379
(lp380
F22.918801155895324
aF0.17857212330414984
asS'1800'
p381
(lp382
F2.262306262344299
aF0.040680750759041345
asS'3500'
p383
(lp384
F0.08786548927559823
aF0.013984287131576532
asS'1600'
p385
(lp386
F3.3290716501808735
aF0.04488660066883917
asS'3200'
p387
(lp388
F0.1652882624004061
aF0.01957262760043495
asS'2000'
p389
(lp390
F1.5579066341770906
aF0.03814329041645538
asS'1100'
p391
(lp392
F9.871417777644176
aF0.08347118405550194
asS'2100'
p393
(lp394
F1.296812400830509
aF0.03705919710219978
asS'1000'
p395
(lp396
F12.751350709827037
aF0.10345107197765331
assS'CITo2Mu_Lam22TeVConRR_dimuon_BB'
p397
(dp398
S'2900'
p399
(lp400
F1.273870037789361
aF0.08432687037118361
asS'1300'
p401
(lp402
F12.174272789530558
aF0.12291128014262573
asS'600'
p403
(lp404
F36.475557690906896
aF0.33600623058817647
asS'700'
p405
(lp406
F31.110480740806565
aF0.27168764343271
asS'1200'
p407
(lp408
F14.159702886209686
aF0.13312849190232476
asS'3000'
p409
(lp410
F1.096784136395448
aF0.08118678714626808
asS'2800'
p411
(lp412
F1.475433999268189
aF0.08708392320721335
asS'1900'
p413
(lp414
F5.171867298922111
aF0.09898671571306393
asS'2200'
p415
(lp416
F3.4257614071388662
aF0.09623323085525802
asS'2300'
p417
(lp418
F2.9857199908415932
aF0.09537291452670968
asS'3100'
p419
(lp420
F0.9413450802871173
aF0.0776846251483915
asS'1500'
p421
(lp422
F9.075603791855004
aF0.10971179070087829
asS'3300'
p423
(lp424
F0.6858312867320702
aF0.06972636504437064
asS'2400'
p425
(lp426
F2.600382647849858
aF0.09433846319893527
asS'400'
p427
(lp428
F60.14740479279362
aF0.669365000955313
asS'1400'
p429
(lp430
F10.497371082907053
aF0.11532659502708846
asS'500'
p431
(lp432
F43.67751338538437
aF0.43565784182444456
asS'2500'
p433
(lp434
F2.2623948355979504
aF0.093044534923232
asS'2600'
p435
(lp436
F1.965585246042178
aF0.09142861725450836
asS'2700'
p437
(lp438
F1.7047418879786669
aF0.08944924762067014
asS'3400'
p439
(lp440
F0.5816774249331428
aF0.06535460412271225
asS'1700'
p441
(lp442
F6.829272704019789
aF0.10261266143978914
asS'900'
p443
(lp444
F22.638217749860203
aF0.19088615690496735
asS'800'
p445
(lp446
F26.548373891402008
aF0.2251833872180622
asS'1800'
p447
(lp448
F5.939505857291003
aF0.10049032740725203
asS'3500'
p449
(lp450
F0.4909262064907292
aF0.060785641738168666
asS'1600'
p451
(lp452
F7.86489622919539
aF0.10559220424347739
asS'3200'
p453
(lp454
F0.8050831637799233
aF0.07385144541622744
asS'2000'
p455
(lp456
F4.507057886557722
aF0.09789381259177388
asS'1100'
p457
(lp458
F16.516922059081452
aF0.14691532992758935
asS'2100'
p459
(lp460
F3.929326857399402
aF0.0970288409929911
asS'1000'
p461
(lp462
F19.317835369690684
aF0.16557812684015064
assS'CITo2Mu_Lam22TeVConRR_dimuon_BE'
p463
(dp464
S'2900'
p465
(lp466
F0.685604190234687
aF0.04835218796738482
asS'1300'
p467
(lp468
F12.572964086818232
aF0.08664475734837832
asS'600'
p469
(lp470
F65.43863117964315
aF0.3645712763054466
asS'700'
p471
(lp472
F51.28448504307835
aF0.28279981941407534
asS'1200'
p473
(lp474
F15.653837910991651
aF0.0999162288503168
asS'3000'
p475
(lp476
F0.5782251616493814
aF0.0458726916974995
asS'2800'
p477
(lp478
F0.81200971669744
aF0.05065086412574064
asS'1900'
p479
(lp480
F3.8355001437848255
aF0.06165305936058468
asS'2200'
p481
(lp482
F2.248991011906121
aF0.059577684217017014
asS'2300'
p483
(lp484
F1.8924086969047604
aF0.05868742883551529
asS'3100'
p485
(lp486
F0.4868742365420743
aF0.043242040660604227
asS'1500'
p487
(lp488
F8.274493402478727
aF0.07096002525479231
asS'3300'
p489
(lp490
F0.3428041885141465
aF0.03765269998008153
asS'2400'
p491
(lp492
F1.5952249565441496
aF0.05757528914286429
asS'400'
p493
(lp494
F108.32379467568353
aF0.6668846899560483
asS'1400'
p495
(lp496
F10.166959511144649
aF0.07730573855290786
asS'500'
p497
(lp498
F83.22115366774847
aF0.47884996192495993
asS'2500'
p499
(lp500
F1.3464550580197843
aF0.056215654630329584
asS'2600'
p501
(lp502
F1.1373958729377125
aF0.05460213026540767
asS'2700'
p503
(lp504
F0.9611054074787995
aF0.052741751068451685
asS'3400'
p505
(lp506
F0.28633516163056194
aF0.03475760335255264
asS'1700'
p507
(lp508
F5.577697962943596
aF0.06422991387361593
asS'900'
p509
(lp510
F31.451118323060214
aF0.17699505493103096
asS'800'
p511
(lp512
F40.12127329658128
aF0.2222028183299836
asS'1800'
p513
(lp514
F4.615022775745296
aF0.06264626968041388
asS'3500'
p515
(lp516
F0.23824670452297853
aF0.03183724654831057
asS'1600'
p517
(lp518
F6.774871226815167
aF0.06682168088700687
asS'3200'
p519
(lp520
F0.4090823821845524
aF0.040491432220555436
asS'2000'
p521
(lp522
F3.2000944414466144
aF0.06094260221635283
asS'1100'
p523
(lp524
F19.624551737666422
aF0.11828935641523657
asS'2100'
p525
(lp526
F2.6789316117528044
aF0.06029896736956745
asS'1000'
p527
(lp528
F24.768576704298937
aF0.14329425998692494
assS'CITo2Mu_Lam28TeVConLR_dimuon_BB'
p529
(dp530
S'2900'
p531
(lp532
F0.8749816902208012
aF0.05495513877598323
asS'1300'
p533
(lp534
F3.177071874251755
aF0.030187726736359534
asS'600'
p535
(lp536
F42.88882851927548
aF0.3859035390390249
asS'700'
p537
(lp538
F21.850177673139882
aF0.18479150599150715
asS'1200'
p539
(lp540
F3.3000220188190355
aF0.029278073449292164
asS'3000'
p541
(lp542
F0.7570729594317298
aF0.05337510840206783
asS'2800'
p543
(lp544
F1.0055264524583818
aF0.056088455860392766
asS'1900'
p545
(lp546
F2.6021780201077114
aF0.04617388690635162
asS'2200'
p547
(lp548
F2.0330484694139352
aF0.05296446843597026
asS'2300'
p549
(lp550
F1.839547782098094
aF0.054597459523128576
asS'3100'
p551
(lp552
F0.6513515070260448
aF0.0513843727859191
asS'1500'
p553
(lp554
F3.0851531556991567
aF0.03491093880506041
asS'3300'
p555
(lp556
F0.4738542338878339
aF0.046353433642723436
asS'2400'
p557
(lp558
F1.6518910442703008
aF0.055826718997549284
asS'400'
p559
(lp560
F149.05541018368513
aF1.6465983718511854
asS'1400'
p561
(lp562
F3.130071110969098
aF0.03227846472163801
asS'500'
p563
(lp564
F84.04537916877246
aF0.8259188449411099
asS'2500'
p565
(lp566
F1.4730196269917677
aF0.05661149282476194
asS'2600'
p567
(lp568
F1.3049419260564559
aF0.056923667805969684
asS'2700'
p569
(lp570
F1.1489001109323709
aF0.05674922853811135
asS'3400'
p571
(lp572
F0.4005338470661293
aF0.04341777859328556
asS'1700'
p573
(lp574
F2.905884509058504
aF0.04064270243744649
asS'900'
p575
(lp576
F6.79200488775372
aF0.05468573125773138
asS'800'
p577
(lp578
F11.62213986424166
aF0.09473346536601648
asS'1800'
p579
(lp580
F2.7666967498083377
aF0.04347060640218328
asS'3500'
p581
(lp582
F0.33639734734511134
aF0.0402767357826769
asS'1600'
p583
(lp584
F3.012927204427884
aF0.037756732834306445
asS'3200'
p585
(lp586
F0.5571917993154968
aF0.04902707471659551
asS'2000'
p587
(lp588
F2.4202284742163163
aF0.04869542955896985
asS'1100'
p589
(lp590
F3.6611486093589747
aF0.03082296249688495
asS'2100'
p591
(lp592
F2.2283583374856217
aF0.05097831429539882
asS'1000'
p593
(lp594
F4.597305040090362
aF0.037438787936296854
assS'CITo2Mu_Lam28TeVConLR_dimuon_BE'
p595
(dp596
S'2900'
p597
(lp598
F0.5834871828032927
aF0.04311151217925716
asS'1300'
p599
(lp600
F2.9780168916490766
aF0.027285961797618788
asS'600'
p601
(lp602
F59.63735865744877
aF0.45872186846379964
asS'700'
p603
(lp604
F30.601182490683755
aF0.23127348097933162
asS'1200'
p605
(lp606
F3.4320761152180737
aF0.02934488358869188
asS'3000'
p607
(lp608
F0.4990731289010088
aF0.041384716545686956
asS'2800'
p609
(lp610
F0.677615810673168
aF0.044443015803155184
asS'1900'
p611
(lp612
F1.9038971882355336
aF0.036150595751439085
asS'2200'
p613
(lp614
F1.4400588020997007
aF0.04249699343509381
asS'2300'
p615
(lp616
F1.2925600332493767
aF0.04399959073655793
asS'3100'
p617
(lp618
F0.42400413036572415
aF0.03931926516855584
asS'1500'
p619
(lp620
F2.5202301313600053
aF0.027956179019924712
asS'3300'
p621
(lp622
F0.2998235034850109
aF0.03442339908109656
asS'2400'
p623
(lp624
F1.151823576639615
aF0.04506605103642503
asS'400'
p625
(lp626
F221.5112509590108
aF1.9139145958032941
asS'1400'
p627
(lp628
F2.7091814094753133
aF0.02707713028900437
asS'500'
p629
(lp630
F117.70085479743057
aF0.9430601548291747
asS'2500'
p631
(lp632
F1.019192404168265
aF0.04565339809781703
asS'2600'
p633
(lp634
F0.8956101853861604
aF0.04574152577237002
asS'2700'
p635
(lp636
F0.7816605556200956
aF0.045331487269421766
asS'3400'
p637
(lp638
F0.2494781583459687
aF0.0317216345194612
asS'1700'
p639
(lp640
F2.210101538248444
aF0.03152497906307347
asS'900'
p641
(lp642
F9.405867350075766
aF0.07180563155747205
asS'800'
p643
(lp644
F16.372609076136087
aF0.12356231803999332
asS'1800'
p645
(lp646
F2.0582847971283114
aF0.03378724604120392
asS'3500'
p647
(lp648
F0.20607024031932974
aF0.028933389566006967
asS'1600'
p649
(lp650
F2.3612601625902485
aF0.029520587338254953
asS'3200'
p651
(lp652
F0.35778343085306014
aF0.03697731539543261
asS'2000'
p653
(lp654
F1.747951929034664
aF0.0384725040452893
asS'1100'
p655
(lp656
F4.287374816802796
aF0.0347894610388301
asS'2100'
p657
(lp658
F1.5925640644986863
aF0.04062479423383421
asS'1000'
p659
(lp660
F5.982208275699264
aF0.0467701437028882
assS'CITo2Mu_Lam34TeVConLL_dimuon_BB'
p661
(dp662
S'2900'
p663
(lp664
F0.30795490242396123
aF0.0068312233150365055
asS'1300'
p665
(lp666
F3.3008631981330723
aF0.02464137898585199
asS'600'
p667
(lp668
F14.236740374385363
aF0.1275488871989531
asS'700'
p669
(lp670
F10.801954920483894
aF0.0908479329203565
asS'1200'
p671
(lp672
F3.8976368352903776
aF0.02898017012421646
asS'3000'
p673
(lp674
F0.2644650449767134
aF0.006555667458402532
asS'2800'
p675
(lp676
F0.35789568821410395
aF0.007098270967352161
asS'1900'
p677
(lp678
F1.326486769805311
aF0.011693724587629644
asS'2200'
p679
(lp680
F0.859463728372007
aF0.00924129992287158
asS'2300'
p681
(lp682
F0.7439765163940821
aF0.00872146915165276
asS'3100'
p683
(lp684
F0.22660439897135098
aF0.00626650427476818
asS'1500'
p685
(lp686
F2.406616616848215
aF0.018480486616906877
asS'3300'
p687
(lp688
F0.16502144764226
aF0.005638739158712504
asS'2400'
p689
(lp690
F0.6437994946948848
aF0.008299341804989202
asS'400'
p691
(lp692
F26.31537948284904
aF0.2824259316628314
asS'1400'
p693
(lp694
F2.8121250345882096
aF0.021223637837557204
asS'500'
p695
(lp696
F19.38973934089131
aF0.188229112632013
asS'2500'
p697
(lp698
F0.5567777549880458
aF0.007947735701053272
asS'2600'
p699
(lp700
F0.48110146711781443
aF0.007642866558017771
asS'2700'
p701
(lp702
F0.41524089144152304
aF0.0073649279162003025
asS'3400'
p703
(lp704
F0.1401451871224177
aF0.0053002115934903974
asS'1700'
p705
(lp706
F1.7795192548691183
aF0.014421996863429907
asS'900'
p707
(lp708
F6.806317299904535
aF0.052669578804539985
asS'800'
p709
(lp710
F8.465024670098899
aF0.06783858407188931
asS'1800'
p711
(lp712
F1.5352768930853218
aF0.012921722080518757
asS'3500'
p713
(lp714
F0.11856461560611208
aF0.0049473724794406905
asS'1600'
p715
(lp716
F2.066720800700093
aF0.016249673053497712
asS'3200'
p717
(lp718
F0.19366217024843121
aF0.005961095171633276
asS'2000'
p719
(lp720
F1.147247685436394
aF0.010694899227826009
asS'1100'
p721
(lp722
F4.638675532645685
aF0.03462292030774037
asS'2100'
p723
(lp724
F0.9928455916691616
aF0.009888577374001853
asS'1000'
p725
(lp726
F5.579082010251739
aF0.042181533968845955
assS'CITo2Mu_Lam16TeVConRR_dimuon_BE'
p727
(dp728
S'2900'
p729
(lp730
F2.4364747647353404
aF0.18422096062746202
asS'1300'
p731
(lp732
F32.467704282592024
aF0.3104803195091986
asS'600'
p733
(lp734
F144.340509175114
aF1.1006963928742763
asS'700'
p735
(lp736
F115.0293598856785
aF0.8654471000865822
asS'1200'
p737
(lp738
F39.44305231395147
aF0.3495324218292622
asS'3000'
p739
(lp740
F2.0782330402060274
aF0.1760831090411692
asS'2800'
p741
(lp742
F2.8494421778988728
aF0.19144349867885177
asS'1900'
p743
(lp744
F11.42221155436221
aF0.22367840894755708
asS'2200'
p745
(lp746
F7.136332672366162
aF0.2159278321644872
asS'2300'
p747
(lp748
F6.122644261613182
aF0.21362114140946517
asS'3100'
p749
(lp750
F1.76732644607719
aF0.1671062839368028
asS'1500'
p751
(lp752
F22.43860397456328
aF0.26073922553288553
asS'3300'
p753
(lp754
F1.2636732459769164
aF0.14705662030629485
asS'2400'
p755
(lp756
F5.257243467160465
aF0.21083348840094804
asS'400'
p757
(lp758
F249.92763073196465
aF2.1305516220169083
asS'1400'
p759
(lp760
F26.906588226556003
aF0.2816857625710606
asS'500'
p761
(lp762
F183.0821218811932
aF1.4496804362918698
asS'2500'
p763
(lp764
F4.51531265014906
aF0.20733996394211784
asS'2600'
p765
(lp766
F3.8769352597440783
aF0.20299192066543417
asS'2700'
p767
(lp768
F3.3260134672233606
aF0.1977040419266672
asS'3400'
p769
(lp770
F1.0612110115198807
aF0.13623731330748226
asS'1700'
p771
(lp772
F15.866263532971002
aF0.23542009828145166
asS'900'
p773
(lp774
F73.71908921010031
aF0.5672909440268556
asS'800'
p775
(lp776
F91.91507628783171
aF0.6942795247250148
asS'1800'
p777
(lp778
F13.436200358727636
aF0.2283812325969787
asS'3500'
p779
(lp780
F0.8863229405615282
aF0.1250769427831743
asS'1600'
p781
(lp782
F18.82013254544976
aF0.24580439410488622
asS'3200'
p783
(lp784
F1.497554510649545
aF0.15739093678096233
asS'2000'
p785
(lp786
F9.74137667329804
aF0.22047051227735462
asS'1100'
p787
(lp788
F48.254140751941364
aF0.40210506244654776
asS'2100'
p789
(lp790
F8.329454522268527
aF0.21806969400457393
asS'1000'
p791
(lp792
F59.448077099594755
aF0.4726634843625689
assS'CITo2Mu_Lam34TeVConLL_dimuon_BE'
p793
(dp794
S'2900'
p795
(lp796
F0.19919158308423343
aF0.0053362432766163774
asS'1300'
p797
(lp798
F3.6337432169735777
aF0.027805431653288675
asS'600'
p799
(lp800
F39.40775426938285
aF0.2919531865661892
asS'700'
p801
(lp802
F23.548840693071043
aF0.1699489360734935
asS'1200'
p803
(lp804
F4.566280371403515
aF0.03411280339814269
asS'3000'
p805
(lp806
F0.167236813298136
aF0.0050382578075707325
asS'2800'
p807
(lp808
F0.2369407476484824
aF0.00563417372738205
asS'1900'
p809
(lp810
F1.1302091286983216
aF0.010943362264564103
asS'2200'
p811
(lp812
F0.6660864243980258
aF0.008091112370910715
asS'2300'
p813
(lp814
F0.5601932736736914
aF0.0074979285639263475
asS'3100'
p815
(lp816
F0.14017104391369517
aF0.004736759871950327
asS'1500'
p817
(lp818
F2.3941706766442294
aF0.01942556851663132
asS'3300'
p819
(lp820
F0.09781328974417323
aF0.004119630741090028
asS'2400'
p821
(lp822
F0.4715288149469291
aF0.00701554902738874
asS'400'
p823
(lp824
F145.71318811539413
aF1.2245971906574604
asS'1400'
p825
(lp826
F2.9339175515455373
aF0.023076860676537535
asS'500'
p827
(lp828
F72.27896424680466
aF0.5618718966176003
asS'2500'
p829
(lp830
F0.3970799719161997
aF0.006611464893333109
asS'2600'
p831
(lp832
F0.3344191247160465
aF0.006259234843823474
asS'2700'
p833
(lp834
F0.2815758841251728
aF0.005938439503659755
asS'3400'
p835
(lp836
F0.08136120600177316
aF0.00380557044634637
asS'1700'
p837
(lp838
F1.6294960773945801
aF0.014254626437674046
asS'900'
p839
(lp840
F10.576207321510793
aF0.07559155831066029
asS'800'
p841
(lp842
F15.262595343129675
aF0.10900015063148515
asS'1800'
p843
(lp844
F1.3546284566983493
aF0.01241617502203845
asS'3500'
p845
(lp846
F0.06743794483216656
aF0.0034902613914219068
asS'1600'
p847
(lp848
F1.9692446724282
aF0.01654865927855933
asS'3200'
p849
(lp850
F0.11724010289123024
aF0.004430464048655052
asS'2000'
p851
(lp852
F0.9456491074331774
aF0.009767772468429534
asS'1100'
p853
(lp854
F5.854536452016589
aF0.04286963921632513
asS'2100'
p855
(lp856
F0.7929806947670663
aF0.008833274626353098
asS'1000'
p857
(lp858
F7.7187753103477235
aF0.05566805953047212
assS'CITo2Mu_Lam10TeVConRR_dimuon_BB'
p859
(dp860
S'2900'
p861
(lp862
F23.943654036913422
aF1.4799482383805924
asS'1300'
p863
(lp864
F178.0395035573166
aF1.7617099907951086
asS'600'
p865
(lp866
F408.25830241500955
aF3.607660359872029
asS'700'
p867
(lp868
F366.1928148186203
aF3.092713487722968
asS'1200'
p869
(lp870
F200.45452390127323
aF1.8655681234681487
asS'3000'
p871
(lp872
F20.733791401190295
aF1.4361662075411155
asS'2800'
p873
(lp874
F27.567872477981545
aF1.5158074784699382
asS'1900'
p875
(lp876
F87.71012885507774
aF1.5490506558777402
asS'2200'
p877
(lp878
F60.778082332272376
aF1.5704750085194135
asS'2300'
p879
(lp880
F53.58758115438466
aF1.5766794060522484
asS'3100'
p881
(lp882
F17.8978934764477
aF1.3849891986663634
asS'1500'
p883
(lp884
F140.72854331962384
aF1.6252384107532378
asS'3300'
p885
(lp886
F13.201928604554343
aF1.263332553195687
asS'2400'
p887
(lp888
F47.14689401708668
aF1.5784918971623805
asS'400'
p889
(lp890
F466.81140972551157
aF5.0239319121433725
asS'1400'
p891
(lp892
F158.2556189457664
aF1.6828872867393363
asS'500'
p893
(lp894
F444.69152066128936
aF4.25190682390624
asS'2500'
p895
(lp896
F41.38507465522353
aF1.574260676420509
asS'2600'
p897
(lp898
F36.23864771800556
aF1.5628160145615622
asS'2700'
p899
(lp900
F31.650296406052515
aF1.5434380049589254
asS'3400'
p901
(lp902
F11.275918201854557
aF1.1945276808257814
asS'1700'
p903
(lp904
F111.25142012440666
aF1.561887577289407
asS'900'
p905
(lp906
F288.00960427930573
aF2.400918867900058
asS'800'
p907
(lp908
F325.2648398477919
aF2.698920909792378
asS'1800'
p909
(lp910
F98.83138276755825
aF1.5506516151515244
asS'3500'
p911
(lp912
F9.591643946673743
aF1.1215899341707813
asS'1600'
p913
(lp914
F125.14632073551418
aF1.5858078142314491
asS'3200'
p915
(lp916
F15.398716933097456
aF1.3271097411975288
asS'2000'
p917
(lp918
F77.74056232075681
aF1.5538929473946292
asS'1100'
p919
(lp920
F225.93841456400128
aF2.000169050671647
asS'2100'
p921
(lp922
F68.79854233379459
aF1.5620169187926816
asS'1000'
p923
(lp924
F254.97275463452803
aF2.1742484431954043
assS'CITo2Mu_Lam10TeVConRR_dimuon_BE'
p925
(dp926
S'2900'
p927
(lp928
F14.405564283782931
aF1.0621822188971473
asS'1300'
p929
(lp930
F165.3561502828364
aF1.5827460617484124
asS'600'
p931
(lp932
F560.2083229241327
aF4.198754107447598
asS'700'
p933
(lp934
F470.5920695870552
aF3.499043532509737
asS'1200'
p935
(lp936
F194.90847635029434
aF1.73828233285593
asS'3000'
p937
(lp938
F12.249269475726274
aF1.0131869888921903
asS'2800'
p939
(lp940
F16.89343589877908
aF1.105547469888733
asS'1900'
p941
(lp942
F65.70527126511004
aF1.2429377952966023
asS'2200'
p943
(lp944
F42.11847803678728
aF1.2311024719667294
asS'2300'
p945
(lp946
F36.29440017413305
aF1.224799875929006
asS'3100'
p947
(lp948
F10.3829739681821
aF0.9593345498223257
asS'1500'
p949
(lp950
F120.37317797524997
aF1.3784602854983892
asS'3300'
p951
(lp952
F7.380066253205041
aF0.8405789407747362
asS'2400'
p953
(lp954
F31.246629805987745
aF1.2137314745445014
asS'400'
p955
(lp956
F758.4140538006632
aF6.366363919567543
asS'1400'
p957
(lp958
F140.84207298959194
aF1.4648967878048125
asS'500'
p959
(lp960
F655.9318857489664
aF5.0962052502245205
asS'2500'
p961
(lp962
F26.866624892922523
aF1.1967134887929647
asS'2600'
p963
(lp964
F23.063569208872146
aF1.173092963921254
asS'2700'
p965
(lp966
F19.76086919890777
aF1.1426570967129965
asS'3400'
p967
(lp968
F6.183961608064878
aF0.7775241530429512
asS'1700'
p969
(lp970
F88.62845892354335
aF1.2786552756764686
asS'900'
p971
(lp972
F327.84032242530697
aF2.5290501396438723
asS'800'
p973
(lp974
F392.7957283020999
aF2.953619617972749
asS'1800'
p975
(lp976
F76.26559491379376
aF1.2552252078831194
asS'3500'
p977
(lp978
F5.1576609358362635
aF0.7132401137873162
asS'1600'
p979
(lp980
F103.17159223171122
aF1.3180694331085354
asS'3200'
p981
(lp982
F8.770465740800281
aF0.9014925670650492
asS'2000'
p983
(lp984
F56.646965782674535
aF1.2373140549750568
asS'1100'
p985
(lp986
F230.7565130870246
aF1.939651666223801
asS'2100'
p987
(lp988
F48.84967090903062
aF1.2344423065934778
asS'1000'
p989
(lp990
F274.4572771784002
aF2.198063899549639
assS'CITo2Mu_Lam28TeVConLL_dimuon_BB'
p991
(dp992
S'2900'
p993
(lp994
F0.5857070359562127
aF0.012628272976713501
asS'1300'
p995
(lp996
F5.525293826518759
aF0.04114149270312131
asS'600'
p997
(lp998
F21.163612853034692
aF0.18976324652684604
asS'700'
p999
(lp1000
F15.973833208926095
aF0.13443295999604066
asS'1200'
p1001
(lp1002
F6.425214642620567
aF0.047660377735735136
asS'3000'
p1003
(lp1004
F0.5064203456254841
aF0.01217743420708756
asS'2800'
p1005
(lp1006
F0.6760863815935658
aF0.013063054567446376
asS'1900'
p1007
(lp1008
F2.355188109512521
aF0.020700591008622433
asS'2200'
p1009
(lp1010
F1.5588919105691703
aF0.016621372142367107
asS'2300'
p1011
(lp1012
F1.3586688655710808
aF0.015749065985122424
asS'3100'
p1013
(lp1014
F0.4368760251210565
aF0.011700027429068716
asS'1500'
p1015
(lp1016
F4.127243284131955
aF0.03161818438813482
asS'3300'
p1017
(lp1018
F0.3224718566012468
aF0.010644089581741047
asS'2400'
p1019
(lp1020
F1.183718763951776
aF0.015041864248897483
asS'400'
p1021
(lp1022
F54.327706721835284
aF0.5829649127764587
asS'1400'
p1023
(lp1024
F4.768801864793286
aF0.03589983667206432
asS'500'
p1025
(lp1026
F31.061140449001186
aF0.30169652711432293
asS'2500'
p1027
(lp1028
F1.0306566786062596
aF0.01445612284685573
asS'2600'
p1029
(lp1030
F0.8966072762020029
aF0.013952533895519889
asS'2700'
p1031
(lp1032
F0.7791175635742869
aF0.013497359980620745
asS'3400'
p1033
(lp1034
F0.27569500053243773
aF0.010062884681427948
asS'1700'
p1035
(lp1036
F3.1097641005867676
aF0.025149809003563284
asS'900'
p1037
(lp1038
F10.525086493852498
aF0.08140067198006194
asS'800'
p1039
(lp1040
F12.762401134977637
aF0.10229231524440809
asS'1800'
p1041
(lp1042
F2.7050280188240654
aF0.022714183508049123
asS'3500'
p1043
(lp1044
F0.2347860822403075
aF0.009448424856574633
asS'1600'
p1045
(lp1046
F3.5796023467817655
aF0.028083512812388838
asS'3200'
p1047
(lp1048
F0.3759007818001402
aF0.011189822507759673
asS'2000'
p1049
(lp1050
F2.0519264055040196
aF0.019048489780333064
asS'1100'
p1051
(lp1052
F7.509365214353963
aF0.05594099371664617
asS'2100'
p1053
(lp1054
F1.7883913215342817
aF0.01770520162470473
asS'1000'
p1055
(lp1056
F8.840600404212658
aF0.06675347252992915
assS'CITo2Mu_Lam16TeVConRR_dimuon_BB'
p1057
(dp1058
S'2900'
p1059
(lp1060
F3.991098509350498
aF0.2525916860260121
asS'1300'
p1061
(lp1062
F33.672041162483396
aF0.33641659019748527
asS'600'
p1063
(lp1064
F83.16244606937846
aF0.7559155176425048
asS'700'
p1065
(lp1066
F75.71802857835019
aF0.6519862343353207
asS'1200'
p1067
(lp1068
F38.65497540149825
aF0.36081785351650036
asS'3000'
p1069
(lp1070
F3.446705555480806
aF0.2441749637412024
asS'2800'
p1071
(lp1072
F4.605582384006745
aF0.25963320958868136
asS'1900'
p1073
(lp1074
F15.227692237717697
aF0.2793656945663555
asS'2200'
p1075
(lp1076
F10.332547031684035
aF0.2765865556958318
asS'2300'
p1077
(lp1078
F9.069068665708741
aF0.2759286436452948
asS'3100'
p1079
(lp1080
F2.9651431623244195
aF0.23443470548886017
asS'1500'
p1081
(lp1082
F25.694733258622165
aF0.3040283747424758
asS'3300'
p1083
(lp1084
F2.165580037917301
aF0.21138209476967887
asS'2400'
p1085
(lp1086
F7.950506434640005
aF0.27473726575567853
asS'400'
p1087
(lp1088
F91.6704986157697
aF1.0131881061511476
asS'1400'
p1089
(lp1090
F29.38654765036467
aF0.3178994722785077
asS'500'
p1091
(lp1092
F87.29040819078295
aF0.8614803148346991
asS'2500'
p1093
(lp1094
F6.958938543950324
aF0.27271130691183
asS'2600'
p1095
(lp1096
F6.079214713004309
aF0.2696186055546037
asS'2700'
p1097
(lp1098
F5.298444102866499
aF0.26529360160030313
asS'3400'
p1099
(lp1100
F1.8367713944209663
aF0.19834615198628736
asS'1700'
p1101
(lp1102
F19.738757270262973
aF0.2868282946143048
asS'900'
p1103
(lp1104
F58.74136263503824
aF0.4903714939433215
asS'800'
p1105
(lp1106
F67.12438280087551
aF0.5621552045268694
asS'1800'
p1107
(lp1108
F17.331097731230486
aF0.2821745432617866
asS'3500'
p1109
(lp1110
F1.5489709713860345
aF0.18452679920827347
asS'1600'
p1111
(lp1112
F22.5048522109917
aF0.29390696324510424
asS'3200'
p1113
(lp1114
F2.540001664013427
aF0.22346219241553247
asS'2000'
p1115
(lp1116
F13.383757678141176
aF0.27784423116346524
asS'1100'
p1117
(lp1118
F44.44371226165588
aF0.39286883318713484
asS'2100'
p1119
(lp1120
F11.762269798954451
aF0.2770805783703857
asS'1000'
p1121
(lp1122
F51.13048023585279
aF0.4350181374124602
assS'CITo2Mu_Lam28TeVConLL_dimuon_BE'
p1123
(dp1124
S'2900'
p1125
(lp1126
F0.34338415126954114
aF0.009008776365465487
asS'1300'
p1127
(lp1128
F5.845919113498354
aF0.04445965610370644
asS'600'
p1129
(lp1130
F43.42334736349608
aF0.3202900925095782
asS'700'
p1131
(lp1132
F28.230944324420875
aF0.20277337334393655
asS'1200'
p1133
(lp1134
F7.1975718877373325
aF0.053445013547719196
asS'3000'
p1135
(lp1136
F0.2886786959598303
aF0.008500254066889937
asS'2800'
p1137
(lp1138
F0.4078300920289317
aF0.009518174354227561
asS'1900'
p1139
(lp1140
F1.904784280427561
aF0.01838277990346232
asS'2200'
p1141
(lp1142
F1.1322333302329537
aF0.013689513693691412
asS'2300'
p1143
(lp1144
F0.9545333758601289
aF0.012695033152271343
asS'3100'
p1145
(lp1146
F0.24221666598586786
aF0.007986538992832807
asS'1500'
p1147
(lp1148
F3.948847435443133
aF0.031858348291135104
asS'3300'
p1149
(lp1150
F0.16922975029860815
aF0.006936263332961274
asS'2400'
p1151
(lp1152
F0.805288710152107
aF0.01187940597337987
asS'400'
p1153
(lp1154
F144.22880297665597
aF1.2081252291547246
asS'1400'
p1155
(lp1156
F4.789005842789862
aF0.037442407512316686
asS'500'
p1157
(lp1158
F74.22751356765343
aF0.5747581444663471
asS'2500'
p1159
(lp1160
F0.6796087832895897
aF0.011191371048292738
asS'2600'
p1161
(lp1162
F0.5735292115046541
aF0.010588916493953299
asS'2700'
p1163
(lp1164
F0.48381871649619784
aF0.010039265693129351
asS'3400'
p1165
(lp1166
F0.14077848065237622
aF0.006401857144542122
asS'1700'
p1167
(lp1168
F2.7237945841506086
aF0.023721162255500975
asS'900'
p1169
(lp1170
F14.743573107236472
aF0.10481806650208227
asS'800'
p1171
(lp1172
F19.852814039441085
aF0.14106912727658025
asS'1800'
p1173
(lp1174
F2.274578923541103
aF0.02076935350997698
asS'3500'
p1175
(lp1176
F0.11665214971841996
aF0.005865169522233265
asS'1600'
p1177
(lp1178
F3.2728280471142135
aF0.02736235009382177
asS'3200'
p1179
(lp1180
F0.20274911775021395
aF0.007465157450068643
asS'2000'
p1181
(lp1182
F1.5987914242362335
aF0.016462081195812595
asS'1100'
p1183
(lp1184
F8.966334522516242
aF0.0652715202965415
asS'2100'
p1185
(lp1186
F1.3444580651490214
aF0.014922687308728064
asS'1000'
p1187
(lp1188
F11.357672869405391
aF0.08145425249039921
assS'CITo2Mu_Lam22TeVConLL_dimuon_BB'
p1189
(dp1190
S'2900'
p1191
(lp1192
F1.3660186973523265
aF0.02849027765831263
asS'1300'
p1193
(lp1194
F11.647771792979704
aF0.08591942523145209
asS'600'
p1195
(lp1196
F31.053501406606244
aF0.27595678149681113
asS'700'
p1197
(lp1198
F27.13513486151578
aF0.22589466288757606
asS'1200'
p1199
(lp1200
F13.416569067977093
aF0.09843312411545714
asS'3000'
p1201
(lp1202
F1.1892437952140011
aF0.027613058664337244
asS'2800'
p1203
(lp1204
F1.565910759446426
aF0.029332174200770656
asS'1900'
p1205
(lp1206
F5.144519144303659
aF0.04500359277072022
asS'2200'
p1207
(lp1208
F3.4670732753009004
aF0.03654954174723881
asS'2300'
p1209
(lp1210
F3.0412810428961117
aF0.0347374094234777
asS'3100'
p1211
(lp1212
F1.0328914539350897
aF0.02667292215373368
asS'1500'
p1213
(lp1214
F8.818748052090326
aF0.06714507881857042
asS'3300'
p1215
(lp1216
F0.7724065922239096
aF0.024538472118221875
asS'2400'
p1217
(lp1218
F2.667256592902727
aF0.03327756673145552
asS'400'
p1219
(lp1220
F48.9706475317214
aF0.5228956541338906
asS'1400'
p1221
(lp1222
F10.126979528412019
aF0.07565165668896914
asS'500'
p1223
(lp1224
F36.32147558939141
aF0.35037457131303323
asS'2500'
p1225
(lp1226
F2.338117064458841
aF0.03208316228505342
asS'2600'
p1227
(lp1228
F2.048030856313059
aF0.031073483638565772
asS'2700'
p1229
(lp1230
F1.7920394367444124
aF0.030176790381552836
asS'3400'
p1231
(lp1232
F0.6644572305038786
aF0.023330059424097972
asS'1700'
p1233
(lp1234
F6.718325835702288
aF0.054107141010901194
asS'900'
p1235
(lp1236
F20.57919761954666
aF0.1570972951984292
asS'800'
p1237
(lp1238
F23.67456036888487
aF0.1874344237674676
asS'1800'
p1239
(lp1240
F5.875803091482642
aF0.04913849493013152
asS'3500'
p1241
(lp1242
F0.5692118806513542
aF0.02202810091732556
asS'1600'
p1243
(lp1244
F7.691596226952218
aF0.060047991846329286
asS'3200'
p1245
(lp1246
F0.8946243634163753
aF0.025651524105094352
asS'2000'
p1247
(lp1248
F4.508091584518534
aF0.041591180734734653
asS'1100'
p1249
(lp1250
F15.471341324590007
aF0.1138490061644141
asS'2100'
p1251
(lp1252
F3.9527836707547115
aF0.03880385843968523
asS'1000'
p1253
(lp1254
F17.849088130334955
aF0.13303350675891026
assS'CITo2Mu_Lam34TeVConLR_dimuon_BB'
p1255
(dp1256
S'2900'
p1257
(lp1258
F0.4729402550257311
aF0.03125790911157352
asS'1300'
p1259
(lp1260
F-0.7978180185015198
aF-0.007630592261547087
asS'600'
p1261
(lp1262
F26.08007151952171
aF0.2365736201091411
asS'700'
p1263
(lp1264
F9.762356692692379
aF0.08330139368975271
asS'1200'
p1265
(lp1266
F-1.284082752866496
aF-0.011453033810649153
asS'3000'
p1267
(lp1268
F0.41817456029602323
aF0.031007963990537703
asS'2800'
p1269
(lp1270
F0.5313070120572139
aF0.03119279458976785
asS'1900'
p1271
(lp1272
F0.8363217945175903
aF0.015315043673927503
asS'2200'
p1273
(lp1274
F0.8651349319843653
aF0.023526944899473465
asS'2300'
p1275
(lp1276
F0.8262010163203646
aF0.0256662110090144
asS'3100'
p1277
(lp1278
F0.36751209628786174
aF0.03046807304957824
asS'1500'
p1279
(lp1280
F0.06244903881859898
aF0.000715741642783653
asS'3300'
p1281
(lp1282
F0.2791972286825781
aF0.02863380814746235
asS'2400'
p1283
(lp1284
F0.7750478918146553
aF0.02747424961951832
asS'400'
p1285
(lp1286
F108.79793410530783
aF1.2081904545078532
asS'1400'
p1287
(lp1288
F-0.3318188244938689
aF-0.0034532139242800172
asS'500'
p1289
(lp1290
F58.71447319422441
aF0.5808451447513079
asS'2500'
p1291
(lp1292
F0.7166685030779533
aF0.028935855632093492
asS'2600'
p1293
(lp1294
F0.6548530521058705
aF0.030042237255881708
asS'2700'
p1295
(lp1296
F0.592399816600607
aF0.030792282623663136
asS'3400'
p1297
(lp1298
F0.2414546436803411
aF0.027400430440132916
asS'1700'
p1299
(lp1300
F0.5946471258018793
aF0.008501547503098538
asS'900'
p1301
(lp1302
F-0.7220488487681109
aF-0.0058584635261325286
asS'800'
p1303
(lp1304
F2.3189804428450316
aF0.01906803513700154
asS'1800'
p1305
(lp1306
F0.745728457183465
aF0.012035496797236572
asS'3500'
p1307
(lp1308
F0.20774205934289533
aF0.025996815218357183
asS'1600'
p1309
(lp1310
F0.3703301033835569
aF0.004721156872536263
asS'3200'
p1311
(lp1312
F0.3211780300391348
aF0.029666617081614517
asS'2000'
p1313
(lp1314
F0.8790846027499235
aF0.01833258461497835
asS'1100'
p1315
(lp1316
F-1.6648163594584133
aF-0.014090825986142922
asS'2100'
p1317
(lp1318
F0.8854376732562894
aF0.02107570882463721
asS'1000'
p1319
(lp1320
F-1.6664337446863584
aF-0.01365693482179725
assS'CITo2Mu_Lam34TeVConLR_dimuon_BE'
p1321
(dp1322
S'2900'
p1323
(lp1324
F0.2684145913025668
aF0.021747207525240907
asS'1300'
p1325
(lp1326
F-0.4261275661508215
aF-0.003905406174761858
asS'600'
p1327
(lp1328
F41.44088533403715
aF0.319574523637809
asS'700'
p1329
(lp1330
F19.60114116155637
aF0.14847975806857555
asS'1200'
p1331
(lp1332
F-0.4465874644007286
aF-0.003817973922617495
asS'3000'
p1333
(lp1334
F0.23442954964571666
aF0.021351267551690385
asS'2800'
p1335
(lp1336
F0.3042478317014146
aF0.021830824968724565
asS'1900'
p1337
(lp1338
F0.41041083320238947
aF0.008063823536695998
asS'2200'
p1339
(lp1340
F0.4784880033034875
aF0.014980655829420514
asS'2300'
p1341
(lp1342
F0.46563160493422395
aF0.0169365487292898
asS'3100'
p1343
(lp1344
F0.20287665229839852
aF0.02068279586276417
asS'1500'
p1345
(lp1346
F-0.09085589145117012
aF-0.0010132136571466247
asS'3300'
p1347
(lp1348
F0.14823247320283722
aF0.018710542670889705
asS'2400'
p1349
(lp1350
F0.44233593557328665
aF0.01861065667265861
asS'400'
p1351
(lp1352
F151.17964291256794
aF1.3091857371820872
asS'1400'
p1353
(lp1354
F-0.2755362685918499
aF-0.002759159952498715
asS'500'
p1355
(lp1356
F83.00558988757552
aF0.6667468628216888
asS'2500'
p1357
(lp1358
F0.4120394982338659
aF0.01995746874600344
asS'2600'
p1359
(lp1360
F0.37753768324747383
aF0.020948093706377093
asS'2700'
p1361
(lp1362
F0.3410413241199901
aF0.021570922260450334
asS'3400'
p1363
(lp1364
F0.12529051193273916
aF0.017500292192155615
asS'1700'
p1365
(lp1366
F0.22660247259401523
aF0.0032893841628540772
asS'900'
p1367
(lp1368
F3.3109630325139108
aF0.025310375821537643
asS'800'
p1369
(lp1370
F8.633985310285794
aF0.06528120129594715
asS'1800'
p1371
(lp1372
F0.3353919746335343
aF0.005648132912936699
asS'3500'
p1373
(lp1374
F0.10516556049987338
aF0.016199493893118044
asS'1600'
p1375
(lp1376
F0.08276363107551532
aF0.001045741498099796
asS'3200'
p1377
(lp1378
F0.17409515519484592
aF0.019786844278623386
asS'2000'
p1379
(lp1380
F0.4558286453782845
aF0.010472486710296668
asS'1100'
p1381
(lp1382
F-0.1435406072822758
aF-0.001164990874497525
asS'2100'
p1383
(lp1384
F0.47679761685157995
aF0.01280272091569265
asS'1000'
p1385
(lp1386
F0.8627719923564428
aF0.006750560870505799
assS'CITo2Mu_Lam22TeVConLL_dimuon_BE'
p1387
(dp1388
S'2900'
p1389
(lp1390
F0.7887328209833181
aF0.020028172980270608
asS'1300'
p1391
(lp1392
F12.001059771450997
aF0.09079726344594828
asS'600'
p1393
(lp1394
F69.59805741987032
aF0.5150182807224661
asS'700'
p1395
(lp1396
F49.575737236673035
aF0.35673718398256504
asS'1200'
p1397
(lp1398
F14.683696079256329
aF0.1084931134728979
asS'3000'
p1399
(lp1400
F0.6684211002834786
aF0.019007725824584053
asS'2800'
p1401
(lp1402
F0.9290397878765173
aF0.02104193444808933
asS'1900'
p1403
(lp1404
F4.036111064103546
aF0.038827061454048
asS'2200'
p1405
(lp1406
F2.45236466857449
aF0.029394197285367903
asS'2300'
p1407
(lp1408
F2.08425099744969
aF0.02738838240181043
asS'3100'
p1409
(lp1410
F0.56517592694971
aF0.01796448926170735
asS'1500'
p1411
(lp1412
F8.184835469143444
aF0.06573334610126413
asS'3300'
p1413
(lp1414
F0.4004925121977233
aF0.015783670990959054
asS'2400'
p1415
(lp1416
F1.7730717686108841
aF0.025746277842681884
asS'400'
p1417
(lp1418
F182.0043539540875
aF1.5305021508350178
asS'1400'
p1419
(lp1420
F9.880428981393678
aF0.07686124374040922
asS'500'
p1421
(lp1422
F105.78752011757638
aF0.8224255941192103
asS'2500'
p1423
(lp1424
F1.5090999117488693
aF0.024367037621034048
asS'2600'
p1425
(lp1426
F1.2844884184318204
aF0.02316603510564292
asS'2700'
p1427
(lp1428
F1.092868335661349
aF0.022075135898075696
asS'3400'
p1429
(lp1430
F0.3352644459185329
aF0.0146473248253089
asS'1700'
p1431
(lp1432
F5.702341293573875
aF0.0494970627375131
asS'900'
p1433
(lp1434
F28.675043918950564
aF0.20353451021964042
asS'800'
p1435
(lp1436
F37.11215385359492
aF0.263739553105833
asS'1800'
p1437
(lp1438
F4.789343443755608
aF0.043601389330367876
asS'3500'
p1439
(lp1440
F0.2793930618798838
aF0.013487920061533236
asS'1600'
p1441
(lp1442
F6.816170389357717
aF0.05676406419988127
asS'3200'
p1443
(lp1444
F0.47655122966490204
aF0.01689039747811141
asS'2000'
p1445
(lp1446
F3.411037204756605
aF0.03497539480753983
asS'1100'
p1447
(lp1448
F18.126293010017953
aF0.1313915235306061
asS'2100'
p1449
(lp1450
F2.8895470772432725
aF0.0318797412200505
asS'1000'
p1451
(lp1452
F22.628756043397544
aF0.1617822512124922
assS'CITo2Mu_Lam22TeVConLR_dimuon_BB'
p1453
(dp1454
S'2900'
p1455
(lp1456
F2.1999152416279326
aF0.13169404946975202
asS'1300'
p1457
(lp1458
F12.970505258035402
aF0.12223931919254725
asS'600'
p1459
(lp1460
F60.54657654357476
aF0.5402057146210159
asS'700'
p1461
(lp1462
F40.42848186507422
aF0.3387003776566919
asS'1200'
p1463
(lp1464
F14.459757235993635
aF0.12751351225947824
asS'3000'
p1465
(lp1466
F1.9168953715562997
aF0.1289011504359362
asS'2800'
p1467
(lp1468
F2.514788020752876
aF0.13361881698711098
asS'1900'
p1469
(lp1470
F7.181178282913168
aF0.12274752851623975
asS'2200'
p1471
(lp1472
F5.210342754777556
aF0.12957021016165018
asS'2300'
p1473
(lp1474
F4.653114321450052
aF0.13163006363926993
asS'3100'
p1475
(lp1476
F1.663325202731158
aF0.12525133531103744
asS'1500'
p1477
(lp1478
F10.642330159559453
aF0.11844573179855471
asS'3300'
p1479
(lp1480
F1.2353383341728066
aF0.11553350940294722
asS'2400'
p1481
(lp1482
F4.142144659525888
aF0.1333052493208424
asS'400'
p1483
(lp1484
F154.63362688527923
aF1.7002117535027264
asS'1400'
p1485
(lp1486
F11.727837062780704
aF0.11952180719106098
asS'500'
p1487
(lp1488
F97.23001306077299
aF0.949184245201814
asS'2500'
p1489
(lp1490
F3.6752033282530467
aF0.1344504119564361
asS'2600'
p1491
(lp1492
F3.249953558099583
aF0.13494339622873175
asS'2700'
p1493
(lp1494
F2.8639727486885356
aF0.1346886961369614
asS'3400'
p1495
(lp1496
F1.0565790635482193
aF0.1095877487352653
asS'1700'
p1497
(lp1498
F8.771685311836558
aF0.11935345363931389
asS'900'
p1499
(lp1500
F22.931404985663363
aF0.18316330545874446
asS'800'
p1501
(lp1502
F29.33360170252527
aF0.23690712648229478
asS'1800'
p1503
(lp1504
F7.946154287947557
aF0.12082682876135639
asS'3500'
p1505
(lp1506
F0.8986025490990661
aF0.10302420690112389
asS'1600'
p1507
(lp1508
F9.665666366670456
aF0.11849188402214748
asS'3200'
p1509
(lp1510
F1.4368814616075556
aF0.12077787727682036
asS'2000'
p1511
(lp1512
F6.472129788396401
aF0.12495667988843513
asS'1100'
p1513
(lp1514
F16.36181334884644
aF0.13698194768605154
asS'2100'
p1515
(lp1516
F5.815969354376243
aF0.12728839844835207
asS'1000'
p1517
(lp1518
F18.988340009246173
aF0.15363761951982038
assS'CITo2Mu_Lam22TeVConLR_dimuon_BE'
p1519
(dp1520
S'2900'
p1521
(lp1522
F1.3912969536875837
aF0.09671242485756168
asS'1300'
p1523
(lp1524
F12.861535400457417
aF0.1168214492502859
asS'600'
p1525
(lp1526
F94.4644020110137
aF0.7183137499001175
asS'700'
p1527
(lp1528
F61.34703187329774
aF0.457607390312146
asS'1200'
p1529
(lp1530
F15.362965797694578
aF0.13029074913131589
asS'3000'
p1531
(lp1532
F1.191382637261559
aF0.09296619909518747
asS'2800'
p1533
(lp1534
F1.6176301549038208
aF0.09981735263744425
asS'1900'
p1535
(lp1536
F5.489127394237653
aF0.10022269833427447
asS'2200'
p1537
(lp1538
F3.71754413979062
aF0.10410701069985989
asS'2300'
p1539
(lp1540
F3.2576640692609944
aF0.1049341729794818
asS'3100'
p1541
(lp1542
F1.0153617083162292
aF0.08864146086791251
asS'1500'
p1543
(lp1544
F9.422131596627729
aF0.10293492640729913
asS'3300'
p1545
(lp1546
F0.7259684001895836
aF0.07856867732038351
asS'2400'
p1547
(lp1548
F2.8487760786981915
aF0.10524361943673725
asS'400'
p1549
(lp1550
F254.2279259695565
aF2.184212005574454
asS'1400'
p1551
(lp1552
F10.944160674241033
aF0.10817556380646798
asS'500'
p1553
(lp1554
F153.60993552864988
aF1.2200875286458261
asS'2500'
p1555
(lp1556
F2.48488850953063
aF0.10493346072864997
asS'2600'
p1557
(lp1558
F2.1610725725775843
aF0.1039404002804902
asS'2700'
p1559
(lp1560
F1.8731772773603717
aF0.10223503296940195
asS'3400'
p1561
(lp1562
F0.6085246472068531
aF0.07299650937855354
asS'1700'
p1563
(lp1564
F7.1388061158919625
aF0.09911849988187665
asS'900'
p1565
(lp1566
F30.859925264257953
aF0.23269659856317088
asS'800'
p1567
(lp1568
F42.311714367937725
aF0.31509559501656076
asS'1800'
p1569
(lp1570
F6.253493153091039
aF0.09929388864726522
asS'3500'
p1571
(lp1572
F0.5067922811111045
aF0.0671910189415186
asS'1600'
p1573
(lp1574
F8.17858760884128
aF0.1001485940461401
asS'3200'
p1575
(lp1576
F0.8609294968578662
aF0.08381394882754252
asS'2000'
p1577
(lp1578
F4.822231166644953
aF0.10153000962009776
asS'1100'
p1579
(lp1580
F18.763339510282407
aF0.1508851390771358
asS'2100'
p1581
(lp1582
F4.235883427902152
aF0.10290756404072796
asS'1000'
p1583
(lp1584
F23.605916098407263
aF0.18259428749866966
assS'CITo2Mu_Lam16TeVConLL_dimuon_BB'
p1585
(dp1586
S'2900'
p1587
(lp1588
F4.3212315821000296
aF0.08783971165566822
asS'1300'
p1589
(lp1590
F33.41913347464822
aF0.24549546031093072
asS'600'
p1591
(lp1592
F77.8254215135508
aF0.6856428543039053
asS'700'
p1593
(lp1594
F71.85919295259686
aF0.5915129800723188
asS'1200'
p1595
(lp1596
F38.18322347134294
aF0.2783126774219889
asS'3000'
p1597
(lp1598
F3.7658208474418924
aF0.08519943422652522
asS'2800'
p1599
(lp1600
F4.944322646368055
aF0.0903234110506453
asS'1900'
p1601
(lp1602
F15.484686062746139
aF0.13503222161324915
asS'2200'
p1603
(lp1604
F10.657337154885063
aF0.11105277359542172
asS'2300'
p1605
(lp1606
F9.405539509599762
aF0.10585422218036525
asS'3100'
p1607
(lp1608
F3.271095786144731
aF0.08231226745263569
asS'1500'
p1609
(lp1610
F25.714846484113096
aF0.19563200430224603
asS'3300'
p1611
(lp1612
F2.439891729871478
aF0.07558840738654138
asS'2400'
p1613
(lp1614
F8.294414885628264
aF0.1016643262170006
asS'400'
p1615
(lp1616
F84.39938035495038
aF0.899993423896353
asS'1400'
p1617
(lp1618
F29.291377294674962
aF0.2183425821242514
asS'500'
p1619
(lp1620
F80.4537312214876
aF0.7721292023237205
asS'2500'
p1621
(lp1622
F7.306476691927413
aF0.09824130096217398
asS'2600'
p1623
(lp1624
F6.426914626779389
aF0.09535025021448168
asS'2700'
p1625
(lp1626
F5.643124406983259
aF0.09277429914319867
asS'3400'
p1627
(lp1628
F2.093189089193252
aF0.07171337159427416
asS'1700'
p1629
(lp1630
F19.908835467664893
aF0.16027577575351115
asS'900'
p1631
(lp1632
F56.914588693522404
aF0.429089767744519
asS'800'
p1633
(lp1634
F64.43699557224505
aF0.5037811946184481
asS'1800'
p1635
(lp1636
F17.55030949494029
aF0.14656636884808702
asS'3500'
p1637
(lp1638
F1.7865120821167693
aF0.06750744190709665
asS'1600'
p1639
(lp1640
F22.610507833528477
aF0.17648387621970596
asS'3200'
p1641
(lp1642
F2.8309237828615936
aF0.07911902557363767
asS'2000'
p1643
(lp1644
F13.669839968305403
aF0.125417804024536
asS'1100'
p1645
(lp1646
F43.66489454416658
aF0.31843298989156127
asS'2100'
p1647
(lp1648
F12.070543805152413
aF0.11749798263890539
asS'1000'
p1649
(lp1650
F49.91768734435947
aF0.36792290647632325
assS'CITo2Mu_Lam34TeVConRR_dimuon_BE'
p1651
(dp1652
S'2900'
p1653
(lp1654
F0.16624280346322506
aF0.015077133902338018
asS'1300'
p1655
(lp1656
F4.090883077658695
aF0.039619398387933796
asS'600'
p1657
(lp1658
F37.68715008324284
aF0.2962565435204955
asS'700'
p1659
(lp1660
F26.565966475197683
aF0.20646172142406832
asS'1200'
p1661
(lp1662
F5.420417277062473
aF0.048624380204342656
asS'3000'
p1663
(lp1664
F0.14223715248438398
aF0.014477857986184364
asS'2800'
p1665
(lp1666
F0.19461078512358077
aF0.015645708155080672
asS'1900'
p1667
(lp1668
F0.9690828028440239
aF0.020892463472351117
asS'2200'
p1669
(lp1670
F0.5381103529330336
aF0.018715361425916732
asS'2300'
p1671
(lp1672
F0.44871478566236234
aF0.01818641383963773
asS'3100'
p1673
(lp1674
F0.12181473935927406
aF0.013847493472074231
asS'1500'
p1675
(lp1676
F2.418807888154875
aF0.028922211929605656
asS'3300'
p1677
(lp1678
F0.0893757328827779
aF0.012497948561974562
asS'2400'
p1679
(lp1680
F0.37637548736121873
aF0.017688222036971363
asS'400'
p1681
(lp1682
F82.71090476078643
aF0.7178666370887269
asS'1400'
p1683
(lp1684
F3.126447075700648
aF0.033329216769948225
asS'500'
p1685
(lp1686
F54.29429721305405
aF0.44083044565973106
asS'2500'
p1687
(lp1688
F0.3173124460995333
aF0.01719819094702601
asS'2600'
p1689
(lp1690
F0.268683641341366
aF0.016700799949081194
asS'2700'
p1691
(lp1692
F0.2283331004119396
aF0.0161855734590688
asS'3400'
p1693
(lp1694
F0.07646962282865331
aF0.011783227571274016
asS'1700'
p1695
(lp1696
F1.4990486266890954
aF0.023627575662233235
asS'900'
p1697
(lp1698
F13.593555538826607
aF0.1074549363104058
asS'800'
p1699
(lp1700
F18.907636441963348
aF0.14732076745726397
asS'1800'
p1701
(lp1702
F1.199360671913313
aF0.022051101062847592
asS'3500'
p1703
(lp1704
F0.06531817314726165
aF0.011045936678364848
asS'1600'
p1705
(lp1706
F1.8935271133735547
aF0.025822914943060563
asS'3200'
p1707
(lp1708
F0.10435852181662714
aF0.013186907485466628
asS'2000'
p1709
(lp1710
F0.7901616894307051
aF0.020010736474993473
asS'1100'
p1711
(lp1712
F7.273613423506461
aF0.061565833321008366
asS'2100'
p1713
(lp1714
F0.6496354600287988
aF0.01930774102082749
asS'1000'
p1715
(lp1716
F9.883600639130009
aF0.080263224817318
assS'CITo2Mu_Lam34TeVConRR_dimuon_BB'
p1717
(dp1718
S'2900'
p1719
(lp1720
F0.32095813090051684
aF0.024096421491074802
asS'1300'
p1721
(lp1722
F3.1825315726967176
aF0.03263033262821065
asS'600'
p1723
(lp1724
F13.52036104249322
aF0.12659659731912132
asS'700'
p1725
(lp1726
F11.509386244579815
aF0.10234876561161461
asS'1200'
p1727
(lp1728
F3.9129384071672106
aF0.03727710350063838
asS'3000'
p1729
(lp1730
F0.28334193089507076
aF0.023800698229032673
asS'2800'
p1731
(lp1732
F0.36308113942207304
aF0.024268396056957048
asS'1900'
p1733
(lp1734
F1.142607880364411
aF0.023369617506962356
asS'2200'
p1735
(lp1736
F0.7615505834509253
aF0.023510305749241314
asS'2300'
p1737
(lp1738
F0.6707895163928794
aF0.023727348005504564
asS'3100'
p1739
(lp1740
F0.24970594304880397
aF0.023378341359702303
asS'1500'
p1741
(lp1742
F2.1724436209458773
aF0.026982406414422202
asS'3300'
p1743
(lp1744
F0.1926831250994018
aF0.02216179120826884
asS'2400'
p1745
(lp1746
F0.5922880648450892
aF0.023950854830004052
asS'400'
p1747
(lp1748
F18.64028944629581
aF0.20964851329373466
asS'1400'
p1749
(lp1750
F2.615257961107096
aF0.029316127661259583
asS'500'
p1751
(lp1752
F15.03284995471563
aF0.1519679823473553
asS'2500'
p1753
(lp1754
F0.5237912013104327
aF0.024144085166845786
asS'2600'
p1755
(lp1756
F0.46358523223968184
aF0.024276632187122067
asS'2700'
p1757
(lp1758
F0.4103554555473613
aF0.024324202231443444
asS'3400'
p1759
(lp1760
F0.16859777649178379
aF0.021379211996104458
asS'1700'
p1761
(lp1762
F1.5469562622360815
aF0.024327324107492315
asS'900'
p1763
(lp1764
F7.579226334077575
aF0.0649929801385613
asS'800'
p1765
(lp1766
F9.425935904424364
aF0.0814211740417865
asS'1800'
p1767
(lp1768
F1.3241256318457277
aF0.023691986857127815
asS'3500'
p1769
(lp1770
F0.14706827236141562
aF0.020491654062434816
asS'1600'
p1771
(lp1772
F1.8239828252395611
aF0.02537946622481677
asS'3200'
p1773
(lp1774
F0.21961098046778108
aF0.022830531001328792
asS'2000'
p1775
(lp1776
F0.9928026908411232
aF0.023276535723162947
asS'1100'
p1777
(lp1778
F4.85411393889445
aF0.04374957431837807
asS'2100'
p1779
(lp1780
F0.8675603656519673
aF0.02334313767871581
asS'1000'
p1781
(lp1782
F6.059883619110671
aF0.05271333331721038
assS'CITo2Mu_Lam16TeVConLL_dimuon_BE'
p1783
(dp1784
S'2900'
p1785
(lp1786
F2.6263299158738342
aF0.06479436404321881
asS'1300'
p1787
(lp1788
F32.90501303990107
aF0.24697631022626143
asS'600'
p1789
(lp1790
F122.53028629293112
aF0.891741161873024
asS'700'
p1791
(lp1792
F102.49041882316283
aF0.7236889317356849
asS'1200'
p1793
(lp1794
F39.50720571626169
aF0.2887045577719934
asS'3000'
p1795
(lp1796
F2.2442345572709232
aF0.06197076113399853
asS'2800'
p1797
(lp1798
F3.066100033349786
aF0.06753287611883381
asS'1900'
p1799
(lp1800
F12.039450251135305
aF0.11537782591782188
asS'2200'
p1801
(lp1802
F7.590561753572276
aF0.08984423999920194
asS'2300'
p1803
(lp1804
F6.527391954309948
aF0.08440849209054219
asS'3100'
p1805
(lp1806
F1.9121296758153057
aF0.05900387173773499
asS'1500'
p1807
(lp1808
F23.150843112256165
aF0.18532265410726642
asS'3300'
p1809
(lp1810
F1.372964139755169
aF0.052538083231076206
asS'2400'
p1811
(lp1812
F5.616444170400223
aF0.07999250244134179
asS'400'
p1813
(lp1814
F186.92840453862937
aF1.5581033630530483
asS'1400'
p1815
(lp1816
F27.536092629419546
aF0.21307587799484237
asS'500'
p1817
(lp1818
F145.6980581476439
aF1.1179494637346534
asS'2500'
p1819
(lp1820
F4.833061036042131
aF0.0763208547941892
asS'2600'
p1821
(lp1822
F4.157255151170407
aF0.07315051546383322
asS'2700'
p1823
(lp1824
F3.572726590874038
aF0.07027625264302131
asS'3400'
p1825
(lp1826
F1.1557031245379168
aF0.04903990192695726
asS'1700'
p1827
(lp1828
F16.575752152377312
aF0.14363912511107488
asS'900'
p1829
(lp1830
F69.99340223685127
aF0.48751996007364923
asS'800'
p1831
(lp1832
F84.89619274582404
aF0.5915895498417021
asS'1800'
p1833
(lp1834
F14.104682831797035
aF0.12811445030652982
asS'3500'
p1835
(lp1836
F0.96770367394213
aF0.04539169937682041
asS'1600'
p1837
(lp1838
F19.54988240686959
aF0.16248087701793745
asS'3200'
p1839
(lp1840
F1.623538885996079
aF0.055862550257428055
asS'2000'
p1841
(lp1842
F10.30354388010666
aF0.10499781379586186
asS'1100'
p1843
(lp1844
F47.647938645176175
aF0.34053237691814375
asS'2100'
p1845
(lp1846
F8.836550988021212
aF0.09660046198501333
asS'1000'
p1847
(lp1848
F57.68377499527924
aF0.4054885782478093
assS'CITo2Mu_Lam16TeVConLR_dimuon_BB'
p1849
(dp1850
S'2900'
p1851
(lp1852
F8.05096515648185
aF0.4647909063914715
asS'1300'
p1853
(lp1854
F52.74841592500166
aF0.48941734492347244
asS'600'
p1855
(lp1856
F151.02818161857857
aF1.3181871965626089
asS'700'
p1857
(lp1858
F123.3021253124511
aF1.0109945393060822
asS'1200'
p1859
(lp1860
F59.43169497408897
aF0.5186631406402308
asS'3000'
p1861
(lp1862
F7.027363715010243
aF0.45658261168423464
asS'2800'
p1863
(lp1864
F9.189557246816522
aF0.4699153171139573
asS'1900'
p1865
(lp1866
F26.85906551544941
aF0.43602748056072205
asS'2200'
p1867
(lp1868
F19.119766951988375
aF0.45156406650382386
asS'2300'
p1869
(lp1870
F17.021223427247044
aF0.45811818583434993
asS'3100'
p1871
(lp1872
F6.109156964310252
aF0.4452483800516483
asS'1500'
p1873
(lp1874
F41.94396530620985
aF0.4528243696554163
asS'3300'
p1875
(lp1876
F4.5545186880179775
aF0.41349644569013866
asS'2400'
p1877
(lp1878
F15.123200085396729
aF0.4640764964547294
asS'400'
p1879
(lp1880
F245.4188623637856
aF2.6628288111238017
asS'1400'
p1881
(lp1882
F46.98187014934552
aF0.4680652275573648
asS'500'
p1883
(lp1884
F191.04539943373493
aF1.8301976750918723
asS'2500'
p1885
(lp1886
F13.40667977140184
aF0.46876218642352013
asS'2600'
p1887
(lp1888
F11.855058578600554
aF0.471594392637488
asS'2700'
p1889
(lp1890
F10.45369377757765
aF0.4720994699555471
asS'3400'
p1891
(lp1892
F3.902547203087048
aF0.39343064834094366
asS'1700'
p1893
(lp1894
F33.55201886129554
aF0.4368487641483485
asS'900'
p1895
(lp1896
F88.46582857446634
aF0.6974802423111736
asS'800'
p1897
(lp1898
F103.40833175705612
aF0.8203318039897881
asS'1800'
p1899
(lp1900
F30.024272758617016
aF0.43484274142521073
asS'3500'
p1901
(lp1902
F3.3247195375412324
aF0.3709229451833334
asS'1600'
p1903
(lp1904
F37.500315671276624
aF0.4426493638065856
asS'3200'
p1905
(lp1906
F5.2875668477891065
aF0.43084037431287614
asS'2000'
p1907
(lp1908
F24.010361995917524
aF0.43972114127573697
asS'1100'
p1909
(lp1910
F67.30357561192692
aF0.5589075805856362
asS'2100'
p1911
(lp1912
F21.440861315573265
aF0.4451663327907246
asS'1000'
p1913
(lp1914
F76.77093880182063
aF0.6154899624958894
assS'CITo2Mu_Lam16TeVConLR_dimuon_BE'
p1915
(dp1916
S'2900'
p1917
(lp1918
F4.65532533953783
aF0.3109559378437339
asS'1300'
p1919
(lp1920
F49.58827889129117
aF0.4479250314150683
asS'600'
p1921
(lp1922
F210.29361465999625
aF1.5744231310157706
asS'700'
p1923
(lp1924
F163.38194308989534
aF1.1993833110631904
asS'1200'
p1925
(lp1926
F58.75787595731095
aF0.49697349449001266
asS'3000'
p1927
(lp1928
F3.9523702635137608
aF0.29679240665749174
asS'2800'
p1929
(lp1930
F5.4571460752607415
aF0.32310498533480847
asS'1900'
p1931
(lp1932
F20.126951753977522
aF0.3521064493349319
asS'2200'
p1933
(lp1934
F13.198442412790554
aF0.3525169986741067
asS'2300'
p1935
(lp1936
F11.456220712620263
aF0.35203267235680513
asS'3100'
p1937
(lp1938
F3.3377313773424535
aF0.28081227525713187
asS'1500'
p1939
(lp1940
F36.08585426768544
aF0.3871171834069994
asS'3300'
p1941
(lp1942
F2.3372864139885463
aF0.24445903919792913
asS'2400'
p1943
(lp1944
F9.92908256310939
aF0.35017650375309983
asS'400'
p1945
(lp1946
F370.24034058586267
aF3.1567089735606166
asS'1400'
p1947
(lp1948
F42.17007604254377
aF0.412250208493728
asS'500'
p1949
(lp1950
F275.9752450822973
aF2.164975934388602
asS'2500'
p1951
(lp1952
F8.587657697988943
aF0.34655583457018835
asS'2600'
p1953
(lp1954
F7.407915813633592
aF0.34091305926237864
asS'2700'
p1955
(lp1956
F6.369966085557944
aF0.33310838927465886
asS'3400'
p1957
(lp1958
F1.935783849046009
aF0.2247115869148457
asS'1700'
p1959
(lp1960
F26.79322612358902
aF0.35998181051856415
asS'900'
p1961
(lp1962
F104.02584238171201
aF0.7767637215581753
asS'800'
p1963
(lp1964
F129.28330370931337
aF0.9496272842927341
asS'1800'
p1965
(lp1966
F23.198934310714492
aF0.3544140939838785
asS'3500'
p1967
(lp1968
F1.5908726089192748
aF0.20437419548092203
asS'1600'
p1969
(lp1970
F31.033989084701528
aF0.3703214225679167
asS'3200'
p1971
(lp1972
F2.802124755332296
aF0.26326881581450723
asS'2000'
p1973
(lp1974
F17.482435331245448
aF0.3517344537360899
asS'1100'
p1975
(lp1976
F70.26563180977145
aF0.5634178486320484
asS'2100'
p1977
(lp1978
F15.192053277339987
aF0.35217675171120955
asS'1000'
p1979
(lp1980
F84.94964350164446
aF0.6534082554327739
ass.