(dp0
S'CITo2Mu_Lam10TeVConLL_dimuon_BE'
p1
(dp2
S'1'
p3
(lp4
F200.08612665686053
aF1.6869476389460976
asS'0'
p5
(lp6
F111.49463303633843
aF1.0465718870991978
asS'3'
p7
(lp8
F172.51141746821082
aF1.3155596222830628
asS'2'
p9
(lp10
F251.69521805382118
aF1.9140082563975707
asS'4'
p11
(lp12
F63.86584915039193
aF0.6291907035271481
assS'CITo2Mu_Lam10TeVConLR_dimuon_BE'
p13
(dp14
g3
(lp15
F380.427381671539
aF3.3007332460189485
asg5
(lp16
F244.2258141479765
aF2.367719549810321
asg7
(lp17
F289.8713198581945
aF2.4539099251994565
asg9
(lp18
F412.8079252492145
aF3.2854531505061213
asg11
(lp19
F118.4541499114286
aF1.971083992915354
assS'CITo2Mu_Lam10TeVConLR_dimuon_BB'
p20
(dp21
g3
(lp22
F215.21300679719081
aF2.394419232167799
asg5
(lp23
F145.83679590192253
aF1.8490232061495706
asg7
(lp24
F242.45059521959672
aF2.087707646734421
asg9
(lp25
F248.83529078125943
aF2.3227500285179317
asg11
(lp26
F150.2229446164332
aF2.2782468083637495
assS'CITo2Mu_Lam10TeVConLL_dimuon_BB'
p27
(dp28
g3
(lp29
F61.2299929520546
aF0.6599791017045755
asg5
(lp30
F12.759873311849105
aF0.15454776504538364
asg7
(lp31
F133.21468919810448
aF1.0435990871048983
asg9
(lp32
F126.85706552483131
aF1.1568942351833094
asg11
(lp33
F79.59395054462124
aF0.6981007113796515
assS'CITo2Mu_Lam28TeVConRR_dimuon_BB'
p34
(dp35
g3
(lp36
F14.929466294381598
aF0.1659103186340078
asg5
(lp37
F16.732487084309923
aF0.21218513203542283
asg7
(lp38
F5.851296151214754
aF0.05387412089290523
asg9
(lp39
F10.55966112345925
aF0.10023568174415101
asg11
(lp40
F2.136934855909804
aF0.04042324723515238
assS'CITo2Mu_Lam28TeVConRR_dimuon_BE'
p41
(dp42
g3
(lp43
F36.02229203089189
aF0.3134945644845643
asg5
(lp44
F33.38539133561676
aF0.3208691381711583
asg7
(lp45
F8.277525139189315
aF0.07322486472172803
asg9
(lp46
F21.554288726285392
aF0.17639089869971503
asg11
(lp47
F1.8147626101240348
aF0.03548994770080039
assS'CITo2Mu_Lam22TeVConRR_dimuon_BB'
p48
(dp49
g3
(lp50
F17.14694211339213
aF0.18975005387514823
asg5
(lp51
F22.54926248094216
aF0.2846144753749657
asg7
(lp52
F11.337850001443677
aF0.10353767697314316
asg9
(lp53
F15.423043140868089
aF0.14569884812847744
asg11
(lp54
F4.765448308529949
aF0.08725032151630557
assS'CITo2Mu_Lam22TeVConRR_dimuon_BE'
p55
(dp56
g3
(lp57
F37.704258649105896
aF0.3260891849898224
asg5
(lp58
F31.756305403285523
aF0.3039926731699664
asg7
(lp59
F16.249661635103216
aF0.14201766577305805
asg9
(lp60
F33.06932793101157
aF0.2680341337584591
asg11
(lp61
F3.8349731277934236
aF0.07274386656904536
assS'CITo2Mu_Lam28TeVConLR_dimuon_BB'
p62
(dp63
g3
(lp64
F66.92889012812287
aF0.7369073975882517
asg5
(lp65
F71.37459612492285
aF0.898794651041996
asg7
(lp66
F1.0091567622719637
aF0.008755119471317284
asg9
(lp67
F19.109207230747188
aF0.17673711931675487
asg11
(lp68
F2.3187834939739975
aF0.03912182237568148
assS'CITo2Mu_Lam28TeVConLR_dimuon_BE'
p69
(dp70
g3
(lp71
F77.237625128422
aF0.6715689721790101
asg5
(lp72
F92.07954475773636
aF0.8866370302706178
asg7
(lp73
F2.514523288179852
aF0.021628031758237295
asg9
(lp74
F24.58917587330137
aF0.19941142041935328
asg11
(lp75
F1.7811355140970306
aF0.03237212144359588
assS'CITo2Mu_Lam34TeVConLL_dimuon_BB'
p76
(dp77
g3
(lp78
F7.732306037538876
aF0.08217644636285093
asg5
(lp79
F5.671265847405266
aF0.06793331897263594
asg7
(lp80
F3.5368313200064136
aF0.02765079347197282
asg9
(lp81
F6.535964687461984
aF0.058852736445943105
asg11
(lp82
F1.2054151662706776
aF0.010748976603584901
assS'CITo2Mu_Lam16TeVConRR_dimuon_BE'
p83
(dp84
g3
(lp85
F71.57978269819444
aF0.6138932726669605
asg5
(lp86
F70.44883856410502
aF0.6695578665450743
asg7
(lp87
F38.12326436015954
aF0.33087249389847445
asg9
(lp88
F68.57390837017795
aF0.5502944858731267
asg11
(lp89
F11.225201227881577
aF0.20512921794959926
assS'CITo2Mu_Lam34TeVConLL_dimuon_BE'
p90
(dp91
g3
(lp92
F53.05808490207016
aF0.4454379305944643
asg5
(lp93
F75.89382974799764
aF0.707727265756391
asg7
(lp94
F5.12474789197222
aF0.03958915792653016
asg9
(lp95
F20.09399867308997
aF0.15350258052266813
asg11
(lp96
F1.1150341245565811
aF0.011199399089081652
assS'CITo2Mu_Lam10TeVConRR_dimuon_BB'
p97
(dp98
g3
(lp99
F78.06517301087712
aF0.8787136206580718
asg5
(lp100
F23.104119328542765
aF0.29581575453662606
asg7
(lp101
F139.12759878876452
aF1.2666553133746863
asg9
(lp102
F139.84853361788436
aF1.338714305330613
asg11
(lp103
F78.70343367079239
aF1.3446662577424948
assS'CITo2Mu_Lam10TeVConRR_dimuon_BE'
p104
(dp105
g3
(lp106
F190.42118731249514
aF1.6442068117238102
asg5
(lp107
F103.92400624043489
aF0.9971275429994516
asg7
(lp108
F171.3820888594895
aF1.4859162351134516
asg9
(lp109
F247.17345644141648
aF1.9841309115872443
asg11
(lp110
F63.58582555359572
aF1.1275695977333717
assS'CITo2Mu_Lam28TeVConLL_dimuon_BB'
p111
(dp112
g3
(lp113
F15.384827408392994
aF0.16284644483493466
asg5
(lp114
F23.84235031968842
aF0.2841728186331382
asg7
(lp115
F5.1883771197587265
aF0.040523718340862075
asg9
(lp116
F8.642428228053774
aF0.07763377768035397
asg11
(lp117
F2.1368809570747374
aF0.01899858085522567
assS'CITo2Mu_Lam16TeVConRR_dimuon_BB'
p118
(dp119
g3
(lp120
F15.244794593414838
aF0.16876068868490593
asg5
(lp121
F9.934568703285095
aF0.12536216845504292
asg7
(lp122
F29.2998427541525
aF0.26617792623284864
asg9
(lp123
F31.93736192484971
aF0.30137186607676414
asg11
(lp124
F13.879396448820852
aF0.24484031572792642
assS'CITo2Mu_Lam28TeVConLL_dimuon_BE'
p125
(dp126
g3
(lp127
F33.72509865270786
aF0.27953674998422845
asg5
(lp128
F52.8231537576371
aF0.4879412155039978
asg7
(lp129
F7.48919547787613
aF0.057139017782379335
asg9
(lp130
F17.142742917708972
aF0.1288901216600794
asg11
(lp131
F1.9027151274561387
aF0.019011127704246397
assS'CITo2Mu_Lam22TeVConLL_dimuon_BB'
p132
(dp133
g3
(lp134
F6.575905269139469
aF0.06947594813356812
asg5
(lp135
F9.286830125879646
aF0.11049274175673039
asg7
(lp136
F10.413401144140401
aF0.08082870243191993
asg9
(lp137
F11.14253593714787
aF0.09973478524873414
asg11
(lp138
F4.609913609567547
aF0.04084289593013723
assS'CITo2Mu_Lam34TeVConLR_dimuon_BB'
p139
(dp140
g3
(lp141
F51.345647577039756
aF0.567922735741621
asg5
(lp142
F53.2232515959563
aF0.6729363699908161
asg7
(lp143
F-2.5497822891725406
aF-0.02221553166414617
asg9
(lp144
F11.663741015063266
aF0.10843046114517958
asg11
(lp145
F0.6414469666186937
aF0.011141393483713399
assS'CITo2Mu_Lam34TeVConLR_dimuon_BE'
p146
(dp147
g3
(lp148
F57.89629469610702
aF0.504209929489078
asg5
(lp149
F60.6812373861992
aF0.584875654728388
asg7
(lp150
F-0.30024698739358513
aF-0.0025815926097343257
asg9
(lp151
F19.62498587054074
aF0.1595432438480709
asg11
(lp152
F0.3586014725133797
aF0.006694752145951225
assS'CITo2Mu_Lam22TeVConLL_dimuon_BE'
p153
(dp154
g3
(lp155
F55.334501020119774
aF0.46527503386037744
asg5
(lp156
F72.05311531376992
aF0.6722632800789101
asg7
(lp157
F14.960931117258681
aF0.11489337369428927
asg9
(lp158
F33.216463080432675
aF0.253954903021675
asg11
(lp159
F3.9405059345991518
aF0.039036985251864664
assS'CITo2Mu_Lam22TeVConLR_dimuon_BB'
p160
(dp161
g3
(lp162
F61.99860618398992
aF0.6817729189042059
asg5
(lp163
F63.56045431046175
aF0.7987063905162962
asg7
(lp164
F9.228889085958947
aF0.07965210266754597
asg9
(lp165
F25.306952957140282
aF0.23353857316725687
asg11
(lp166
F6.386518061096561
aF0.10413030908832639
assS'CITo2Mu_Lam22TeVConLR_dimuon_BE'
p167
(dp168
g3
(lp169
F86.34021936144109
aF0.743869364649861
asg5
(lp170
F95.07802567770045
aF0.910479554940376
asg7
(lp171
F13.73264121943049
aF0.11638445154910168
asg9
(lp172
F41.8017685623891
aF0.3334481096067712
asg11
(lp173
F5.20220614827847
aF0.09168220457667181
assS'CITo2Mu_Lam16TeVConLL_dimuon_BB'
p174
(dp175
g3
(lp176
F8.747072024343197
aF0.09310266820757826
asg5
(lp177
F4.160146789791497
aF0.04979009486481233
asg7
(lp178
F28.46268554789419
aF0.22169302788993198
asg9
(lp179
F28.719965695145305
aF0.25893229310042404
asg11
(lp180
F13.827526192479908
aF0.1222116860937191
assS'CITo2Mu_Lam34TeVConRR_dimuon_BE'
p181
(dp182
g3
(lp183
F26.598081920892014
aF0.23075184885795424
asg5
(lp184
F28.420692478086266
aF0.27242605804593667
asg7
(lp185
F6.37835643956285
aF0.05661232868128592
asg9
(lp186
F18.151276560019312
aF0.1483530353544167
asg11
(lp187
F0.9610002940956712
aF0.019300551198635024
assS'CITo2Mu_Lam34TeVConRR_dimuon_BB'
p188
(dp189
g3
(lp190
F5.3944342523190585
aF0.06057741780272227
asg5
(lp191
F7.6058464701491175
aF0.0972072060016238
asg7
(lp192
F3.6575003964339032
aF0.03400194823302352
asg9
(lp193
F6.473493118357226
aF0.06230275371593909
asg11
(lp194
F0.9858984587209849
aF0.019170702792425918
assS'CITo2Mu_Lam16TeVConLL_dimuon_BE'
p195
(dp196
g3
(lp197
F40.31955893021825
aF0.3363563914930643
asg5
(lp198
F36.21577783327916
aF0.3362433297274983
asg7
(lp199
F37.195800964193694
aF0.2813126647160144
asg9
(lp200
F56.370381901426015
aF0.42465128646894723
asg11
(lp201
F11.59797590821346
aF0.11409193124605223
assS'CITo2Mu_Lam16TeVConLR_dimuon_BB'
p202
(dp203
g3
(lp204
F71.5058727851233
aF0.7879588197178202
asg5
(lp205
F60.018933423877456
aF0.7546360452488219
asg7
(lp206
F40.63804816622616
aF0.3490548918601741
asg9
(lp207
F56.705176383574894
aF0.5234714827668873
asg11
(lp208
F23.754254655846495
aF0.3703125408840439
assS'CITo2Mu_Lam16TeVConLR_dimuon_BE'
p209
(dp210
g3
(lp211
F112.54554167729509
aF0.9712142642667766
asg5
(lp212
F94.99949311167575
aF0.9123156483628944
asg7
(lp213
F51.86064875201485
aF0.43863579261439356
asg9
(lp214
F95.16642689624734
aF0.7566181181709035
asg11
(lp215
F19.298418936620898
aF0.32846112531449584
ass.