(dp0
S'CITo2Mu_Lam10TeVConLL_dimuon_BE'
p1
(dp2
S'1'
p3
(lp4
F202.02915370914332
aF1.6900116471393798
asS'0'
p5
(lp6
F118.10253261124763
aF1.1020614241115945
asS'3'
p7
(lp8
F172.47848495072213
aF1.292325682157951
asS'2'
p9
(lp10
F250.9240927922479
aF1.8846718309050772
asS'5'
p11
(lp12
F6.032537337688584
aF0.2788871755249546
asS'4'
p13
(lp14
F63.882795650831994
aF0.6179415523277297
assS'CITo2Mu_Lam10TeVConLR_dimuon_BE'
p15
(dp16
g3
(lp17
F390.7708989128745
aF3.3641011336323263
asg5
(lp18
F257.09514247120933
aF2.478984599476013
asg7
(lp19
F290.34582829622417
aF2.412682374775386
asg9
(lp20
F414.85544962568736
aF3.2570587424085153
asg11
(lp21
F11.008405873792029
aF1.3886975506497798
asg13
(lp22
F119.84413903449195
aF1.999157752236986
assS'CITo2Mu_Lam10TeVConLR_dimuon_BB'
p23
(dp24
g3
(lp25
F213.00533290237559
aF2.366824340985267
asg5
(lp26
F141.90607503828983
aF1.7974775675441668
asg7
(lp27
F243.130707984793
aF2.088887894628945
asg9
(lp28
F249.43443000422
aF2.3240302159375714
asg11
(lp29
F19.386238250729402
aF2.136789914608772
asg13
(lp30
F149.98158360580913
aF2.288011311637753
assS'CITo2Mu_Lam10TeVConLL_dimuon_BB'
p31
(dp32
g3
(lp33
F64.12827075276937
aF0.6906062421001932
asg5
(lp34
F16.061941526858732
aF0.19434089506589022
asg7
(lp35
F133.2279285211842
aF1.0406403659958152
asg9
(lp36
F127.53704587113606
aF1.1618531403753267
asg11
(lp37
F10.712808307405242
aF0.39814258195995283
asg13
(lp38
F79.8532025619686
aF0.6977727189965262
assS'CITo2Mu_Lam28TeVConRR_dimuon_BB'
p39
(dp40
g3
(lp41
F14.273813069256619
aF0.15863875075707867
asg5
(lp42
F15.486173319335421
aF0.19639045919557643
asg7
(lp43
F5.790328132135016
aF0.053259122246416164
asg9
(lp44
F10.365416370429102
aF0.09836208563651665
asg11
(lp45
F0.17569937041992223
aF0.023386148017582122
asg13
(lp46
F2.143085567952154
aF0.04063339276237374
assS'CITo2Mu_Lam28TeVConRR_dimuon_BE'
p47
(dp48
g3
(lp49
F41.98250392926582
aF0.36422372582129214
asg5
(lp50
F38.748935378762326
aF0.37174974134044075
asg7
(lp51
F8.28262102653651
aF0.07196067524874737
asg9
(lp52
F23.166042920300868
aF0.188049019941482
asg11
(lp53
F0.09294894046091155
aF0.01482568958412688
asg13
(lp54
F1.8704964468650611
aF0.03688419647307918
assS'CITo2Mu_Lam22TeVConRR_dimuon_BB'
p55
(dp56
g3
(lp57
F12.592073193010151
aF0.1392038181708978
asg5
(lp58
F16.490873584180918
aF0.20799761064327094
asg7
(lp59
F11.41155128764418
aF0.10405155525670219
asg9
(lp60
F14.643808132583757
aF0.13817048850721947
asg11
(lp61
F0.499128233961187
aF0.06180606632654356
asg13
(lp62
F4.729089689142166
aF0.08660416133110017
assS'CITo2Mu_Lam22TeVConRR_dimuon_BE'
p63
(dp64
g3
(lp65
F42.16622224730361
aF0.36368981302005854
asg5
(lp66
F36.059668418528645
aF0.3446118195769263
asg7
(lp67
F16.270886153069483
aF0.14021436825904487
asg9
(lp68
F34.807139895516
aF0.2801230686686884
asg11
(lp69
F0.243506512671136
aF0.03670718453217797
asg13
(lp70
F3.802118246556233
aF0.07285995295482402
assS'CITo2Mu_Lam28TeVConLR_dimuon_BB'
p71
(dp72
g3
(lp73
F62.31099820622944
aF0.6847315715768343
asg5
(lp74
F65.08661308501075
aF0.8185206080838436
asg7
(lp75
F1.0658930248313538
aF0.009221428208377817
asg9
(lp76
F18.245187973078174
aF0.16822166958642276
asg11
(lp77
F0.34194549024707055
aF0.04084866580071267
asg13
(lp78
F2.2900614674424693
aF0.03885464810040379
assS'CITo2Mu_Lam28TeVConLR_dimuon_BE'
p79
(dp80
g3
(lp81
F87.52744069937455
aF0.7519113629110783
asg5
(lp82
F103.5332028483424
aF0.9895997681193314
asg7
(lp83
F2.5109488519598955
aF0.021017026944464123
asg9
(lp84
F26.884127245548086
aF0.21323602925706608
asg11
(lp85
F0.22631083382629055
aF0.03168943268971641
asg13
(lp86
F1.7792240568793818
aF0.03249016493392806
assS'CITo2Mu_Lam34TeVConLL_dimuon_BB'
p87
(dp88
g3
(lp89
F8.609239849236644
aF0.09107883459964584
asg5
(lp90
F6.938310635318885
aF0.08277875271921328
asg7
(lp91
F3.3312868971571774
aF0.02587963467326717
asg9
(lp92
F6.185039470736797
aF0.05538593490506424
asg11
(lp93
F0.1205608307363243
aF0.005028681884447283
asg13
(lp94
F1.22028305217419
aF0.010819377521911288
assS'CITo2Mu_Lam16TeVConRR_dimuon_BE'
p95
(dp96
g3
(lp97
F69.80323398946132
aF0.5941267888377071
asg5
(lp98
F68.30809838825803
aF0.6463675819372295
asg7
(lp99
F38.155720140507206
aF0.3248365330293757
asg9
(lp100
F68.69078482306782
aF0.5434822070517129
asg11
(lp101
F0.9500531779652143
aF0.13446307742502034
asg13
(lp102
F11.033457457081571
aF0.20410582011454861
assS'CITo2Mu_Lam34TeVConLL_dimuon_BE'
p103
(dp104
g3
(lp105
F49.92122851834608
aF0.41273526211844697
asg5
(lp106
F74.87359718807738
aF0.6904312187543101
asg7
(lp107
F4.89714119985873
aF0.036729045687294064
asg9
(lp108
F18.20995356184119
aF0.13594759451033364
asg11
(lp109
F0.07191751672221357
aF0.003726775807115621
asg13
(lp110
F1.113806504976775
aF0.010866528276235677
assS'CITo2Mu_Lam10TeVConRR_dimuon_BB'
p111
(dp112
g3
(lp113
F78.67031100963158
aF0.8849163135860633
asg5
(lp114
F22.158938152213636
aF0.2835479061317128
asg7
(lp115
F139.04022948956344
aF1.265251666066789
asg9
(lp116
F140.73049232698426
aF1.3469339946940893
asg11
(lp117
F9.752469031119375
aF1.1404107747235772
asg13
(lp118
F78.92776018124324
aF1.347945045302866
assS'CITo2Mu_Lam10TeVConRR_dimuon_BE'
p119
(dp120
g3
(lp121
F188.69213498876604
aF1.6179430044224716
asg5
(lp122
F103.89488200761639
aF0.9922574137457965
asg7
(lp123
F170.92605950711487
aF1.4598109054903077
asg9
(lp124
F246.03314926805285
aF1.9524229719739539
asg11
(lp125
F5.5677706942584395
aF0.7721555303956559
asg13
(lp126
F63.46566377078413
aF1.1383705626395062
assS'CITo2Mu_Lam28TeVConLL_dimuon_BB'
p127
(dp128
g3
(lp129
F15.119774731462712
aF0.16004481417670507
asg5
(lp130
F23.298818535674627
aF0.2776306701462266
asg7
(lp131
F5.184032930812222
aF0.040327477262246995
asg9
(lp132
F8.493216641497838
aF0.0762507937149612
asg11
(lp133
F0.23871418534302813
aF0.00960032783293051
asg13
(lp134
F2.142168840940267
aF0.01896415854585466
assS'CITo2Mu_Lam16TeVConRR_dimuon_BB'
p135
(dp136
g3
(lp137
F11.594931350231889
aF0.12842184121362796
asg5
(lp138
F4.38151599041521
aF0.05531376047995221
asg7
(lp139
F29.38761130831272
aF0.2667397300155443
asg9
(lp140
F31.38151043347645
aF0.2961357974895891
asg11
(lp141
F1.57446445681002
aF0.1875705554136062
asg13
(lp142
F13.820105617632333
aF0.24403712411541528
assS'CITo2Mu_Lam28TeVConLL_dimuon_BE'
p143
(dp144
g3
(lp145
F47.16936181007691
aF0.38887521270444964
asg5
(lp146
F71.33764975645249
aF0.6561937171917858
asg7
(lp147
F7.335766054851781
aF0.05479332163307241
asg9
(lp148
F19.874494241057334
aF0.1478817252333169
asg11
(lp149
F0.12484269519631357
aF0.006286159707389486
asg13
(lp150
F1.8764076424000007
aF0.01823259180527326
assS'CITo2Mu_Lam22TeVConLL_dimuon_BB'
p151
(dp152
g3
(lp153
F9.200108645507385
aF0.09714346597878015
asg5
(lp154
F12.658536753245585
aF0.15048449667895986
asg7
(lp155
F10.387769151692517
aF0.08034392519442803
asg9
(lp156
F11.703299472560957
aF0.10466151350913272
asg11
(lp157
F0.5787724627369502
aF0.02238516754190432
asg13
(lp158
F4.622457108714606
aF0.04078884835163202
assS'CITo2Mu_Lam34TeVConLR_dimuon_BB'
p159
(dp160
g3
(lp161
F49.04058438278042
aF0.5412311975495236
asg5
(lp162
F50.139884742324625
aF0.6328620468826984
asg7
(lp163
F-2.515018323277566
aF-0.02184967594838664
asg9
(lp164
F11.461523069120545
aF0.10629849710920301
asg11
(lp165
F0.21128014945602314
aF0.026386753969510564
asg13
(lp166
F0.6358831963464855
aF0.011081095476094555
assS'CITo2Mu_Lam34TeVConLR_dimuon_BE'
p167
(dp168
g3
(lp169
F63.68497997913471
aF0.5489023419805258
asg5
(lp170
F67.56361234874885
aF0.6475299879761163
asg7
(lp171
F-0.5196866412430055
aF-0.004355705567475408
asg9
(lp172
F20.290827843450984
aF0.16136971916466464
asg11
(lp173
F0.1155976638048011
aF0.01779253715802543
asg13
(lp174
F0.3146827753834507
aF0.005915001465075814
assS'CITo2Mu_Lam22TeVConLL_dimuon_BE'
p175
(dp176
g3
(lp177
F56.96549821886947
aF0.4721131626799959
asg5
(lp178
F76.96219744800942
aF0.7107384575163289
asg7
(lp179
F14.66331803815919
aF0.10934685507983162
asg9
(lp180
F32.32032986032573
aF0.24153283875413656
asg11
(lp181
F0.30003122909198254
aF0.014508263185468603
asg13
(lp182
F3.9391132091878807
aF0.0381088042476563
assS'CITo2Mu_Lam22TeVConLR_dimuon_BB'
p183
(dp184
g3
(lp185
F56.905973992177394
aF0.6249339640944649
asg5
(lp186
F57.471359052520484
aF0.7214581669472301
asg7
(lp187
F9.234844171777759
aF0.07954955226785998
asg9
(lp188
F24.142995021200335
aF0.2223579352593026
asg11
(lp189
F0.913540360408793
aF0.10447689724701739
asg13
(lp190
F6.348376956430847
aF0.10409198323854973
assS'CITo2Mu_Lam22TeVConLR_dimuon_BE'
p191
(dp192
g3
(lp193
F93.46223270593691
aF0.7995085826332909
asg5
(lp194
F101.2449592219441
aF0.9652846826094722
asg7
(lp195
F13.753857507797697
aF0.11400809108654701
asg9
(lp196
F43.62455769076388
aF0.3431307667558172
asg11
(lp197
F0.5475792812932622
aF0.07246410180295854
asg13
(lp198
F5.229408095362212
aF0.09236666507566565
assS'CITo2Mu_Lam16TeVConLL_dimuon_BB'
p199
(dp200
g3
(lp201
F8.616232559131333
aF0.09166629773042388
asg5
(lp202
F3.948618481241624
aF0.047228142168526936
asg7
(lp203
F28.34565708498794
aF0.22004212084570848
asg9
(lp204
F28.29351282668972
aF0.254875438214492
asg11
(lp205
F1.8164951084419307
aF0.06859525716860305
asg13
(lp206
F13.840106430098446
aF0.12185955776050084
assS'CITo2Mu_Lam34TeVConRR_dimuon_BE'
p207
(dp208
g3
(lp209
F28.599145478136393
aF0.2471771160983604
asg5
(lp210
F29.465175228614726
aF0.2816306421126729
asg7
(lp211
F6.508782800645129
aF0.05653877294515336
asg9
(lp212
F19.698247883553734
aF0.15966851683733044
asg11
(lp213
F0.06755255563555268
aF0.011461092296627477
asg13
(lp214
F0.9540065402461204
aF0.01920046655006294
assS'CITo2Mu_Lam34TeVConRR_dimuon_BB'
p215
(dp216
g3
(lp217
F3.525278785132002
aF0.039292995446344084
asg5
(lp218
F3.605237222322671
aF0.045829511673661616
asg7
(lp219
F3.7332330845624426
aF0.034447383531076785
asg9
(lp220
F6.678132640861776
aF0.06369628898988207
asg11
(lp221
F0.14954643795373038
aF0.02084317182931984
asg13
(lp222
F1.0055940019973182
aF0.01945763538188348
assS'CITo2Mu_Lam16TeVConLL_dimuon_BE'
p223
(dp224
g3
(lp225
F45.22209322404831
aF0.3730684985155365
asg5
(lp226
F43.13776175519297
aF0.39734784122226935
asg7
(lp227
F36.885385471438994
aF0.27252439756152774
asg9
(lp228
F56.632284847846506
aF0.4190581685357163
asg11
(lp229
F1.034728260848114
aF0.048577383664379935
asg13
(lp230
F11.607509907883804
aF0.11187183235919487
assS'CITo2Mu_Lam16TeVConLR_dimuon_BB'
p231
(dp232
g3
(lp233
F67.87730283246947
aF0.7468271315782962
asg5
(lp234
F54.44142053825669
aF0.6837877169361952
asg7
(lp235
F40.68173678927165
aF0.34853918235715353
asg9
(lp236
F56.185900597944425
aF0.51747450540067
asg11
(lp237
F3.3804683268018434
aF0.37613946054411856
asg13
(lp238
F23.780064143247508
aF0.3727216342961495
assS'CITo2Mu_Lam16TeVConLR_dimuon_BE'
p239
(dp240
g3
(lp241
F114.50429389603448
aF0.9790779375219315
asg5
(lp242
F95.06805337442734
aF0.9077942978078201
asg7
(lp243
F51.92784659491543
aF0.42889045016705635
asg9
(lp244
F95.58487457732201
aF0.7471172076761399
asg11
(lp245
F1.6989897753947751
aF0.21776331907971475
asg13
(lp246
F19.444425264435143
aF0.33114922649808426
ass.