(dp0
S'CITo2Mu_Lam10TeVConLL_dimuon_BE'
p1
(dp2
S'2900'
p3
(lp4
F16.03420044172782
aF0.38974232476191956
asS'1300'
p5
(lp6
F174.08142773041857
aF1.3511703261979313
asS'600'
p7
(lp8
F589.7646692896215
aF4.301566391805137
asS'700'
p9
(lp10
F494.1131966037576
aF3.5171886167486575
asS'1200'
p11
(lp12
F204.96163127377054
aF1.5459028892910882
asS'3000'
p13
(lp14
F13.731792195101216
aF0.37307543891579714
asS'2800'
p15
(lp16
F18.67943428056334
aF0.4061664951853889
asS'1900'
p17
(lp18
F69.90656108172628
aF0.6887104261790182
asS'2200'
p19
(lp20
F45.220066753135136
aF0.5424637315436736
asS'2300'
p21
(lp22
F39.114814436683154
aF0.5098086231056207
asS'3100'
p23
(lp24
F11.7292835134761
aF0.3558222070915539
asS'1500'
p25
(lp26
F127.0661705201423
aF1.0532584677482448
asS'3300'
p27
(lp28
F8.479736109233201
aF0.3189067047443914
asS'2400'
p29
(lp30
F33.81667821866372
aF0.4828420541630581
asS'400'
p31
(lp32
F805.6939562969533
aF6.6974601579864785
asS'1400'
p33
(lp34
F148.46171557540708
aF1.1892491156490113
asS'500'
p35
(lp36
F694.1993232606185
aF5.3160268024589605
asS'2500'
p37
(lp38
F29.211897330239577
aF0.46018662192456977
asS'2600'
p39
(lp40
F25.205414104811528
aF0.4405677369491346
asS'2700'
p41
(lp42
F21.71720675744842
aF0.4228688338470997
asS'3400'
p43
(lp44
F7.171812789036417
aF0.2991977714144316
asS'1700'
p45
(lp46
F93.87825013657431
aF0.8408184008352976
asS'900'
p47
(lp48
F343.93624819332774
aF2.4440345824197114
asS'800'
p49
(lp50
F412.05952986798167
aF2.9126619284468456
asS'1800'
p51
(lp52
F80.95097153930567
aF0.7582786323472746
asS'3500'
p53
(lp54
F6.040711931334279
aF0.27875759750587337
asS'1600'
p55
(lp56
F109.08347292215038
aF0.938288303643813
asS'3200'
p57
(lp58
F9.989422098091405
aF0.33778957922038017
asS'2000'
p59
(lp60
F60.43032329117197
aF0.6305073371650302
asS'1100'
p61
(lp62
F242.41797854993663
aF1.7830840945791822
asS'2100'
p63
(lp64
F52.269636901914836
aF0.5822256668688178
asS'1000'
p65
(lp66
F288.09043862311955
aF2.076191753120709
assS'CITo2Mu_Lam10TeVConLR_dimuon_BE'
p67
(dp68
S'2900'
p69
(lp70
F29.23768005683813
aF1.9050097209411254
asS'1300'
p71
(lp72
F307.78624995635874
aF2.841911971081283
asS'600'
p73
(lp74
F1003.4533456351171
aF7.472015076770392
asS'700'
p75
(lp76
F831.8497602321584
aF6.156080834237242
asS'1200'
p77
(lp78
F358.3742695513914
aF3.123064811712557
asS'3000'
p79
(lp80
F24.92435580665885
aF1.8277127174015453
asS'2800'
p81
(lp82
F34.20931812236572
aF1.9734636896432536
asS'1900'
p83
(lp84
F129.1705151247507
aF2.19836084100599
asS'2200'
p85
(lp86
F83.99657818513032
aF2.1739061427374367
asS'2300'
p87
(lp88
F72.62703455584375
aF2.163299623767913
asS'3100'
p89
(lp90
F21.188802419252575
aF1.7426995975577688
asS'1500'
p91
(lp92
F229.11437092122256
aF2.461027594911689
asS'3300'
p93
(lp94
F15.174244501961812
aF1.5545449524071757
asS'2400'
p95
(lp96
F62.70661749797538
aF2.1453153694263296
asS'400'
p97
(lp98
F1456.5029560516805
aF12.175428850199923
asS'1400'
p99
(lp100
F265.218850115735
aF2.6238999413147543
asS'500'
p101
(lp102
F1212.277141903697
aF9.35763949830457
asS'2500'
p103
(lp104
F54.05182857685412
aF2.118027072865984
asS'2600'
p105
(lp106
F46.505203058620026
aF2.080408085955879
asS'2700'
p107
(lp108
F39.930556367422355
aF2.0321430544258914
asS'3400'
p109
(lp110
F12.776272291009382
aF1.4539852429202362
asS'1700'
p111
(lp112
F171.80345476812704
aF2.269304311813025
asS'900'
p113
(lp114
F582.4676526383801
aF4.48132198841014
asS'800'
p115
(lp116
F693.6132944761896
aF5.201150276268346
asS'1800'
p117
(lp118
F148.95652187566392
aF2.2232178243597343
asS'3500'
p119
(lp120
F10.7163652133222
aF1.3507774438940108
asS'1600'
p121
(lp122
F198.2826159550361
aF2.3455990682913175
asS'3200'
p123
(lp124
F17.95979132889344
aF1.6512128416768967
asS'2000'
p125
(lp126
F111.98647224070294
aF2.1863985042955076
asS'1100'
p127
(lp128
F419.0418349829454
aF3.477679506041757
asS'2100'
p129
(lp130
F97.0309953575013
aF2.1801641432461674
asS'1000'
p131
(lp132
F492.52723725457827
aF3.9216457683845114
assS'CITo2Mu_Lam10TeVConLR_dimuon_BB'
p133
(dp134
S'2900'
p135
(lp136
F46.59172556789234
aF2.711974996354231
asS'1300'
p137
(lp138
F330.79549216334544
aF3.0539066885518813
asS'600'
p139
(lp140
F756.464359692293
aF6.382226245576427
asS'700'
p141
(lp142
F660.5410953102354
aF5.321950159069899
asS'1200'
p143
(lp144
F368.87827509979036
aF3.2256577598467366
asS'3000'
p145
(lp146
F40.393481102763026
aF2.651682116929582
asS'2800'
p147
(lp148
F53.60826942237243
aF2.756756707221352
asS'1900'
p149
(lp150
F169.25520930937776
aF2.676090687318791
asS'2200'
p151
(lp152
F117.99473733424121
aF2.7396627796585267
asS'2300'
p153
(lp154
F104.11391522960992
aF2.766297939999548
asS'3100'
p155
(lp156
F34.93292697672863
aF2.576503063246958
asS'1500'
p157
(lp158
F265.91760852603716
aF2.8180847299745233
asS'3300'
p159
(lp160
F25.927458158676927
aF2.385680242252126
asS'2400'
p161
(lp162
F91.63365555443201
aF2.787569305304843
asS'400'
p163
(lp164
F1021.5908980093482
aF10.57942033843299
asS'1400'
p165
(lp166
F296.66891348473894
aF2.919770539882974
asS'500'
p167
(lp168
F875.7541021074258
aF8.012011183143906
asS'2500'
p169
(lp170
F80.4444467306968
aF2.7996996353761427
asS'2600'
p171
(lp172
F70.44240057344295
aF2.7998030445698663
asS'2700'
p173
(lp174
F61.52849964319239
aF2.7858808785024043
asS'3400'
p175
(lp176
F22.24674797517239
aF2.272672566890706
asS'1700'
p177
(lp178
F212.8919563470893
aF2.7000427865366996
asS'900'
p179
(lp180
F516.4168470837009
aF4.097078514389177
asS'800'
p181
(lp182
F582.0649023478343
aF4.6038039063587055
asS'1800'
p183
(lp184
F190.01439587593578
aF2.6781191480249142
asS'3500'
p185
(lp186
F19.032264692944864
aF2.1498813957779417
asS'1600'
p187
(lp188
F238.10426635226187
aF2.7457038223832764
asS'3200'
p189
(lp190
F30.134423270954592
aF2.4874230812496565
asS'2000'
p191
(lp192
F150.43332011448936
aF2.689235895053803
asS'1100'
p193
(lp194
F411.70580452897497
aF3.4442222825513795
asS'2100'
p195
(lp196
F133.3926271296779
aF2.7122467106299073
asS'1000'
p197
(lp198
F460.3706647343522
aF3.725648069729561
assS'CITo2Mu_Lam10TeVConLL_dimuon_BB'
p199
(dp200
S'2900'
p201
(lp202
F25.859341478716058
aF0.5147171889975125
asS'1300'
p203
(lp204
F178.07990419685373
aF1.312381974673642
asS'600'
p205
(lp206
F385.06710750207145
aF3.2600415308777815
asS'700'
p207
(lp208
F350.3501041811378
aF2.782123186221513
asS'1200'
p209
(lp210
F199.43146928706875
aF1.4537041481708501
asS'3000'
p211
(lp212
F22.506411088886935
aF0.4984280534973991
asS'2800'
p213
(lp214
F29.624404964180304
aF0.5302387420335684
asS'1900'
p215
(lp216
F90.27834945820187
aF0.786009889139242
asS'2200'
p217
(lp218
F63.439025888180716
aF0.6546325283084934
asS'2300'
p219
(lp220
F56.198955041910914
aF0.6247254210826542
asS'3100'
p221
(lp222
F19.527569980533286
aF0.4809311052749227
asS'1500'
p223
(lp224
F142.16537021597645
aF1.0870412851203994
asS'3300'
p225
(lp226
F14.55350160167693
aF0.4413862776176111
asS'2400'
p227
(lp228
F49.681078420648475
aF0.6000682272436093
asS'400'
p229
(lp230
F424.3399704450412
aF4.399218681188037
asS'1400'
p231
(lp232
F159.09447237369932
aF1.1916039139326717
asS'500'
p233
(lp234
F411.5800971331927
aF3.803597527050856
asS'2500'
p235
(lp236
F43.82039170287382
aF0.5794631126029446
asS'2600'
p237
(lp238
F38.55854708398865
aF0.5616960579318301
asS'2700'
p239
(lp240
F33.84265980259853
aF0.5456231324577516
asS'3400'
p241
(lp242
F12.495157520064916
aF0.4192127029305415
asS'1700'
p243
(lp244
F113.45208239759648
aF0.9159514573824532
asS'900'
p245
(lp246
F281.0124636459103
aF2.0767741254398464
asS'800'
p247
(lp248
F314.60361039832253
aF2.3903651401106467
asS'1800'
p249
(lp250
F101.25528505486291
aF0.8463012745664399
asS'3500'
p251
(lp252
F10.684398913580704
aF0.39552500688409875
asS'1600'
p253
(lp254
F127.02611514276936
aF0.9957894801655409
asS'3200'
p255
(lp256
F16.8875185329824
aF0.4619578865365314
asS'2000'
p257
(lp258
F80.38886535728805
aF0.7344225014274447
asS'1100'
p259
(lp260
F223.49303865630657
aF1.6218354035025877
asS'2100'
p261
(lp262
F71.47451159584436
aF0.6908860288427355
asS'1000'
p263
(lp264
F250.60653769190031
aF1.825570161715605
assS'CITo2Mu_Lam28TeVConRR_dimuon_BB'
p265
(dp266
S'2900'
p267
(lp268
F0.5376642372052369
aF0.038639101574231303
asS'1300'
p269
(lp270
F5.820329366590872
aF0.05943135108854963
asS'600'
p271
(lp272
F24.503429832972074
aF0.22800453394566894
asS'700'
p273
(lp274
F18.748019459784217
aF0.1655368317152456
asS'1200'
p275
(lp276
F6.877627192517863
aF0.06530583060663667
asS'3000'
p277
(lp278
F0.4599946501019475
aF0.03699749398659258
asS'2800'
p279
(lp280
F0.6267903563236499
aF0.04010771504355091
asS'1900'
p281
(lp282
F2.3370621851098257
aF0.04665170074844314
asS'2200'
p283
(lp284
F1.5156085400746278
aF0.04522516355250274
asS'2300'
p285
(lp286
F1.3118560445920773
aF0.04473690154740135
asS'3100'
p287
(lp288
F0.39237533832680227
aF0.03519921389637782
asS'1500'
p289
(lp290
F4.2383783917841775
aF0.0521658373357816
asS'3300'
p291
(lp292
F0.28255151891261526
aF0.031216660585117448
asS'2400'
p293
(lp294
F1.1347498815703496
aF0.04414135858800096
asS'400'
p295
(lp296
F50.409972838474914
aF0.5648368985088376
asS'1400'
p297
(lp298
F4.9550278241063115
aF0.055205869734910706
asS'500'
p299
(lp300
F33.67748575416579
aF0.3387845099998269
asS'2500'
p301
(lp302
F0.980562681746475
aF0.04340030029375623
asS'2600'
p303
(lp304
F0.8461845443444026
aF0.04248852654344171
asS'2700'
p305
(lp306
F0.7289995278401196
aF0.04139229940277886
asS'3400'
p307
(lp308
F0.23834131996886973
aF0.029080347772154104
asS'1700'
p309
(lp310
F3.133350520144649
aF0.048463927289914006
asS'900'
p311
(lp312
F11.97829402540485
aF0.10208490962311254
asS'800'
p313
(lp314
F14.818076013436922
aF0.12709577388300905
asS'1800'
p315
(lp316
F2.7039351921897454
aF0.047397431836873394
asS'3500'
p317
(lp318
F0.20012732920001983
aF0.02688128784588276
asS'1600'
p319
(lp320
F3.6389360822406083
aF0.04999469214643772
asS'3200'
p321
(lp322
F0.33358370576953866
aF0.03326456671111462
asS'2000'
p323
(lp324
F2.0220718169512057
aF0.04610611388604628
asS'1100'
p325
(lp326
F8.188358336324583
aF0.0735332825136016
asS'2100'
p327
(lp328
F1.7505138907651043
aF0.04565881911719713
asS'1000'
p329
(lp330
F9.842623463529186
aF0.08520902779516985
assS'CITo2Mu_Lam28TeVConRR_dimuon_BE'
p331
(dp332
S'2900'
p333
(lp334
F0.2949530620414126
aF0.025066170395644495
asS'1300'
p335
(lp336
F6.40826435160432
aF0.06309142334287325
asS'600'
p337
(lp338
F45.51510767626405
aF0.36175366223343297
asS'700'
p339
(lp340
F31.733873750271755
aF0.24991599823583888
asS'1200'
p341
(lp342
F8.03178165729171
aF0.07348652550646496
asS'3000'
p343
(lp344
F0.24318857898975937
aF0.023187283593725242
asS'2800'
p345
(lp346
F0.3567662846358695
aF0.026897276232035975
asS'1900'
p347
(lp348
F1.9020598847973513
aF0.03975294978222166
asS'2200'
p349
(lp350
F1.0855248895607963
aF0.035964456255399305
asS'2300'
p351
(lp352
F0.9026050292072261
aF0.03470417175159509
asS'3100'
p353
(lp354
F0.1998616070461175
aF0.021284085616969938
asS'1500'
p355
(lp356
F4.183492802371758
aF0.05017946682436884
asS'3300'
p357
(lp358
F0.133397790734
aF0.01749846142212771
asS'2400'
p359
(lp360
F0.7507405845138144
aF0.03335498026303981
asS'400'
p361
(lp362
F101.14155711678222
aF0.8835161543889679
asS'1400'
p363
(lp364
F5.158905641062475
aF0.05559057722578076
asS'500'
p365
(lp366
F67.75616578116501
aF0.5550003944273815
asS'2500'
p367
(lp368
F0.6242990847214918
aF0.03189818909693028
asS'2600'
p369
(lp370
F0.5187845212870115
aF0.03033026428187797
asS'2700'
p371
(lp372
F0.430582214341393
aF0.028658429865832197
asS'3400'
p373
(lp374
F0.10821349730259062
aF0.015660330233372016
asS'1700'
p375
(lp376
F2.7979556186988255
aF0.0434580563372471
asS'900'
p377
(lp378
F17.130399826301755
aF0.13787204133628167
asS'800'
p379
(lp380
F22.96292922583811
aF0.18173688340577565
asS'1800'
p381
(lp382
F2.3031381280631296
aF0.041370456188560056
asS'3500'
p383
(lp384
F0.08729727467331905
aF0.013885259235626888
asS'1600'
p385
(lp386
F3.4128663178000016
aF0.046280914348441296
asS'3200'
p387
(lp388
F0.163636005901942
aF0.019380189667315268
asS'2000'
p389
(lp390
F1.5749133993402378
aF0.03840380420131074
asS'1100'
p391
(lp392
F10.179585023986625
aF0.08796799323569028
asS'2100'
p393
(lp394
F1.3066106490692782
aF0.03717528916195558
asS'1000'
p395
(lp396
F13.085549578228168
aF0.10840336155776215
assS'CITo2Mu_Lam22TeVConRR_dimuon_BB'
p397
(dp398
S'2900'
p399
(lp400
F1.269242435177564
aF0.08524481847467519
asS'1300'
p401
(lp402
F12.261976520761966
aF0.12402604366863891
asS'600'
p403
(lp404
F38.76413376467275
aF0.3574203702040879
asS'700'
p405
(lp406
F32.00296972370839
aF0.279735340414396
asS'1200'
p407
(lp408
F14.234978106924089
aF0.13406291648396929
asS'3000'
p409
(lp410
F1.0890817594540758
aF0.08183357210779281
asS'2800'
p411
(lp412
F1.4746191638133488
aF0.08824427574648454
asS'1900'
p413
(lp414
F5.242076581396183
aF0.1006995504806044
asS'2200'
p415
(lp416
F3.4658886877783477
aF0.09805333990330366
asS'2300'
p417
(lp418
F3.01682907623081
aF0.09717871299639196
asS'3100'
p419
(lp420
F0.9312397575153062
aF0.07803820822406546
asS'1500'
p421
(lp422
F9.172925263876769
aF0.11110672985387472
asS'3300'
p423
(lp424
F0.6726714675088019
aF0.06945884072068283
asS'2400'
p425
(lp426
F2.6233057766683494
aF0.09609475921676922
asS'400'
p427
(lp428
F71.69917431804129
aF0.7984216544544275
asS'1400'
p429
(lp430
F10.592670931204923
aF0.11659737509389813
asS'500'
p431
(lp432
F49.149911837100944
aF0.4906588736366333
asS'2500'
p433
(lp434
F2.278032547928129
aF0.09471229017187226
asS'2600'
p435
(lp436
F1.9748544959558827
aF0.09296700713641153
asS'2700'
p437
(lp438
F1.7085408343376365
aF0.09081774946017601
asS'3400'
p439
(lp440
F0.5677389569443904
aF0.06477637956577562
asS'1700'
p441
(lp442
F6.917677531802433
aF0.10418862644548699
asS'900'
p443
(lp444
F22.76188851493461
aF0.19211540385213183
asS'800'
p445
(lp446
F26.876604439802662
aF0.22817022717694596
asS'1800'
p447
(lp448
F6.0194436400087294
aF0.10213872944679396
asS'3500'
p449
(lp450
F0.4766282728662333
aF0.05990859394685518
asS'1600'
p451
(lp452
F7.959499994896197
aF0.10708583407865485
asS'3200'
p453
(lp454
F0.7931803104228277
aF0.07389746605160813
asS'2000'
p455
(lp456
F4.567047640698072
aF0.09966062379498156
asS'1100'
p457
(lp458
F16.579926582839846
aF0.14768915525618653
asS'2100'
p459
(lp460
F3.9791624090718543
aF0.09883369619498462
asS'1000'
p461
(lp462
F19.383983187275
aF0.16634049295037667
assS'CITo2Mu_Lam22TeVConRR_dimuon_BE'
p463
(dp464
S'2900'
p465
(lp466
F0.7016733620234066
aF0.05590884339854952
asS'1300'
p467
(lp468
F13.116464605611359
aF0.12803953669797835
asS'600'
p469
(lp470
F69.3480590687509
aF0.5450962476070835
asS'700'
p471
(lp472
F53.3822449334005
aF0.41530032742565315
asS'1200'
p473
(lp474
F16.26492527175909
aF0.1474533776458158
asS'3000'
p475
(lp476
F0.5868402470657748
aF0.052405085696202426
asS'2800'
p477
(lp478
F0.8372178031688673
aF0.05925589167448145
asS'1900'
p479
(lp480
F4.063255367285729
aF0.08229503703439921
asS'2200'
p481
(lp482
F2.3787030844883255
aF0.0751712699491235
asS'2300'
p483
(lp484
F1.997317962168242
aF0.07295768680852174
asS'3100'
p485
(lp486
F0.4895141469962077
aF0.04878079369378202
asS'1500'
p487
(lp488
F8.69599007966156
aF0.10316664519020968
asS'3300'
p489
(lp490
F0.3371997164645924
aF0.041331402199769704
asS'2400'
p491
(lp492
F1.6787130544656794
aF0.07061988834436511
asS'400'
p493
(lp494
F122.84280898578982
aF1.0660785530550618
asS'1400'
p495
(lp496
F10.647595067877806
aF0.11370952607870992
asS'500'
p497
(lp498
F91.0865035825068
aF0.7392965125762766
asS'2500'
p499
(lp500
F1.41156920834818
aF0.06809931793701823
asS'2600'
p501
(lp502
F1.1868655525157603
aF0.0653669075274121
asS'2700'
p503
(lp504
F0.997363949052458
aF0.062415851238332105
asS'3400'
p505
(lp506
F0.2781371613755129
aF0.037589641882051966
asS'1700'
p507
(lp508
F5.8931744665111285
aF0.08975795957504758
asS'900'
p509
(lp510
F32.413573034955135
aF0.2576714359085813
asS'800'
p511
(lp512
F41.43235751913875
aF0.32380180384808543
asS'1800'
p513
(lp514
F4.8842942218391086
aF0.08553628340608707
asS'3500'
p515
(lp516
F0.2282822394923061
aF0.033891267471593864
asS'1600'
p517
(lp518
F7.141178283786741
aF0.09543508746068165
asS'3200'
p519
(lp520
F0.40703906053813066
aF0.0450757224168533
asS'2000'
p521
(lp522
F3.3909142199334332
aF0.07966299804094416
asS'1100'
p523
(lp524
F20.31291700238892
aF0.1737221782757862
asS'2100'
p525
(lp526
F2.8371696944555715
aF0.0773576412826374
asS'1000'
p527
(lp528
F25.559708183664085
aF0.20930728189007722
assS'CITo2Mu_Lam28TeVConLR_dimuon_BB'
p529
(dp530
S'2900'
p531
(lp532
F0.9017446181018705
aF0.0574955953412082
asS'1300'
p533
(lp534
F3.234873762642085
aF0.030787548541695006
asS'600'
p535
(lp536
F45.29365866411786
aF0.40861098052897893
asS'700'
p537
(lp538
F22.791109403842114
aF0.1933598682476245
asS'1200'
p539
(lp540
F3.3382463217191756
aF0.029677150687817812
asS'3000'
p541
(lp542
F0.7821443849421484
aF0.05602606622220009
asS'2800'
p543
(lp544
F1.0341947751570246
aF0.058501086925428096
asS'1900'
p545
(lp546
F2.6727454108226194
aF0.04755518489503597
asS'2200'
p547
(lp548
F2.083873643648571
aF0.054603135490335124
asS'2300'
p549
(lp550
F1.8848993692123095
aF0.056342584144253464
asS'3100'
p551
(lp552
F0.6748609974835704
aF0.0541215487493348
asS'1500'
p553
(lp554
F3.165957442422979
aF0.03587326693252142
asS'3300'
p555
(lp556
F0.4943934969036096
aF0.04916644636109777
asS'2400'
p557
(lp558
F1.692568949292828
aF0.0576911671815277
asS'400'
p559
(lp560
F161.09459565688644
aF1.7820895263869807
asS'1400'
p561
(lp562
F3.2025939892518167
aF0.03307308539880201
asS'500'
p563
(lp564
F89.71999953196541
aF0.8834148324285704
asS'2500'
p565
(lp566
F1.5097938543051679
aF0.058606512739754424
asS'2600'
p567
(lp568
F1.3384934095458476
aF0.05905707501560523
asS'2700'
p569
(lp570
F1.1797915724391337
aF0.05902388195539653
asS'3400'
p571
(lp572
F0.41959419344709353
aF0.04621194976711366
asS'1700'
p573
(lp574
F2.9873660217928943
aF0.04185189883235422
asS'900'
p575
(lp576
F6.885105369374742
aF0.055621220704043926
asS'800'
p577
(lp578
F11.948553403606354
aF0.09772825971073833
asS'1800'
p579
(lp580
F2.843501004411216
aF0.044770919239639086
asS'3500'
p581
(lp582
F0.353961916848613
aF0.043011584298558024
asS'1600'
p583
(lp584
F3.096241883996518
aF0.03885585487387485
asS'3200'
p585
(lp586
F0.5792052408121645
aF0.05181994799211584
asS'2000'
p587
(lp588
F2.483978695357937
aF0.05015589761136495
asS'1100'
p589
(lp590
F3.681902173094656
aF0.031075401470373097
asS'2100'
p591
(lp592
F2.2853883321710713
aF0.0525229662132628
asS'1000'
p593
(lp594
F4.621548860353386
aF0.03774907414895684
assS'CITo2Mu_Lam28TeVConLR_dimuon_BE'
p595
(dp596
S'2900'
p597
(lp598
F0.6557338603617509
aF0.047832254689847455
asS'1300'
p599
(lp600
F3.1584957200986885
aF0.02953587636162945
asS'600'
p601
(lp602
F55.141549700987525
aF0.4334939489135143
asS'700'
p603
(lp604
F29.12520077711895
aF0.2259980958760678
asS'1200'
p605
(lp606
F3.647198124469405
aF0.03196681295665642
asS'3000'
p607
(lp608
F0.564171258453945
aF0.04619110331966633
asS'2800'
p609
(lp610
F0.7570704466036836
aF0.04902111788653279
asS'1900'
p611
(lp612
F2.0215016156373444
aF0.038200168254156994
asS'2200'
p613
(lp614
F1.552992950556318
aF0.04537409717312639
asS'2300'
p615
(lp616
F1.4020495770951764
aF0.04720606516494261
asS'3100'
p617
(lp618
F0.4821618350413285
aF0.04415405182009951
asS'1500'
p619
(lp620
F2.6566156288394094
aF0.029776619138520893
asS'3300'
p621
(lp622
F0.3451509134143234
aF0.03915219311392196
asS'2400'
p623
(lp624
F1.2568007100824719
aF0.04860201337425272
asS'400'
p625
(lp626
F198.4423706632815
aF1.732243305230997
asS'1400'
p627
(lp628
F2.8630775789081966
aF0.029060372706276767
asS'500'
p629
(lp630
F106.36282590554083
aF0.8660694908435108
asS'2500'
p631
(lp632
F1.1187121639200481
aF0.04950367292912342
asS'2600'
p633
(lp634
F0.9889132929843136
aF0.04987732320377229
asS'2700'
p635
(lp636
F0.8682023905369105
aF0.0497127365095331
asS'3400'
p637
(lp638
F0.2890488645945789
aF0.03632389788610537
asS'1700'
p639
(lp640
F2.331073059822077
aF0.03329983228778126
asS'900'
p641
(lp642
F9.547468204476445
aF0.0751519710049917
asS'800'
p643
(lp644
F16.094468962711744
aF0.12507948906389016
asS'1800'
p645
(lp646
F2.1769313071185996
aF0.03566373040040664
asS'3500'
p647
(lp648
F0.24036610154031637
aF0.03336659923220439
asS'1600'
p649
(lp650
F2.4874482928666204
aF0.03127418104197074
asS'3200'
p651
(lp652
F0.4093236706975446
aF0.041785100650979595
asS'2000'
p653
(lp654
F1.8646755101229306
aF0.04075564219694087
asS'1100'
p655
(lp656
F4.536024903817271
aF0.037858423576954486
asS'2100'
p657
(lp658
F1.7078596779757307
aF0.04318877595229485
asS'1000'
p659
(lp660
F6.233193016113404
aF0.050225439633145005
assS'CITo2Mu_Lam34TeVConLL_dimuon_BB'
p661
(dp662
S'2900'
p663
(lp664
F0.32121216372398753
aF0.007097713092821456
asS'1300'
p665
(lp666
F3.405469125770079
aF0.025586845939829562
asS'600'
p667
(lp668
F14.670916066497455
aF0.13212074267143015
asS'700'
p669
(lp670
F11.407153496863117
aF0.09646867018055888
asS'1200'
p671
(lp672
F4.056024081872028
aF0.0303509520069933
asS'3000'
p673
(lp674
F0.27761477233693865
aF0.006850711332738997
asS'2800'
p675
(lp676
F0.3710478629527669
aF0.0073359400844896705
asS'1900'
p677
(lp678
F1.3343574893950807
aF0.011823841524452964
asS'2200'
p679
(lp680
F0.8676638950861963
aF0.00935465037644863
asS'2300'
p681
(lp682
F0.7532786510057816
aF0.00884527048934775
asS'3100'
p683
(lp684
F0.2394596571496861
aF0.006588817560907884
asS'1500'
p685
(lp686
F2.4486340032987375
aF0.01892434700356214
asS'3300'
p687
(lp688
F0.17684151725777494
aF0.0060079218534989575
asS'2400'
p689
(lp690
F0.6542230526590131
aF0.008438887091151218
asS'400'
p691
(lp692
F24.810725381805923
aF0.2673880615412993
asS'1400'
p693
(lp694
F2.879270112244374
aF0.02187149755657536
asS'500'
p695
(lp696
F19.139459534402476
aF0.18667986510735285
asS'2500'
p697
(lp698
F0.5682054279769275
aF0.00810738831307603
asS'2600'
p699
(lp700
F0.49333849150794307
aF0.0078261583952874
asS'2700'
p701
(lp702
F0.42805583637208566
aF0.007574534101099661
asS'3400'
p703
(lp704
F0.15128165628711807
aF0.005687306765020341
asS'1700'
p705
(lp706
F1.7955348171273675
aF0.014640073735343598
asS'900'
p707
(lp708
F7.251020451919686
aF0.056447368328298234
asS'800'
p709
(lp710
F9.022650896962688
aF0.0727263558857477
asS'1800'
p711
(lp712
F1.5457838759814644
aF0.013084177429023939
asS'3500'
p713
(lp714
F0.12894232312440004
aF0.00534776424322796
asS'1600'
p715
(lp716
F2.0925761748192446
aF0.016556802620144986
asS'3200'
p717
(lp718
F0.2060645278876649
aF0.006308419891033189
asS'2000'
p719
(lp720
F1.1543079098528652
aF0.010808920481544842
asS'1100'
p721
(lp722
F4.871188809401438
aF0.03658735433569589
asS'2100'
p723
(lp724
F1.000184778020138
aF0.009998025890440927
asS'1000'
p725
(lp726
F5.908361878058564
aF0.044946371564383976
assS'CITo2Mu_Lam16TeVConRR_dimuon_BE'
p727
(dp728
S'2900'
p729
(lp730
F2.6103521804711955
aF0.19520788613977644
asS'1300'
p731
(lp732
F34.04687272540558
aF0.3305085914659889
asS'600'
p733
(lp734
F149.39659965409783
aF1.1564782873389128
asS'700'
p735
(lp736
F118.85999359993752
aF0.9109028775932528
asS'1200'
p737
(lp738
F41.23309674810701
aF0.37208411674960296
asS'3000'
p739
(lp740
F2.2240849149562045
aF0.18638202705746912
asS'2800'
p741
(lp742
F3.0550708130306146
aF0.20299551026665288
asS'1900'
p743
(lp744
F12.162820869599848
aF0.23658125259473933
asS'2200'
p745
(lp746
F7.635011517897266
aF0.2285280397048946
asS'2300'
p747
(lp748
F6.557505160182179
aF0.22622888718548367
asS'3100'
p749
(lp750
F1.8885564488682205
aF0.17660661090309893
asS'1500'
p751
(lp752
F23.668295474433624
aF0.27699841050720164
asS'3300'
p753
(lp754
F1.34473148762984
aF0.15470394140369592
asS'2400'
p755
(lp756
F5.635156543588983
aF0.2234171626811706
asS'400'
p757
(lp758
F260.88861486223686
aF2.238142768321105
asS'1400'
p759
(lp760
F28.300202919782738
aF0.2996291007365781
asS'500'
p761
(lp762
F190.43977629813253
aF1.5242039216907073
asS'2500'
p763
(lp764
F4.842415690698312
aF0.21982975540663996
asS'2600'
p765
(lp766
F4.158736912531713
aF0.21528958125037484
asS'2700'
p767
(lp768
F3.567480210455206
aF0.2096924160788978
asS'3400'
p769
(lp770
F1.1262054537368964
aF0.1428781027300965
asS'1700'
p771
(lp772
F16.8222877955993
aF0.24939776401813388
asS'900'
p773
(lp774
F76.38220198762133
aF0.6007192631351739
asS'800'
p775
(lp776
F95.04220148476364
aF0.7329200364481239
asS'1800'
p777
(lp778
F14.278146155232541
aF0.24169400354959733
asS'3500'
p779
(lp780
F0.9376196417182721
aF0.13069394147734617
asS'1600'
p781
(lp782
F19.904735284033478
aF0.26075150182473994
asS'3200'
p783
(lp784
F1.597275446937652
aF0.1659999606962725
asS'2000'
p785
(lp786
F10.39185578425947
aF0.2331596147485811
asS'1100'
p787
(lp788
F50.286085229759344
aF0.4276728820383643
asS'2100'
p789
(lp790
F8.89967485896761
aF0.23067840265352713
asS'1000'
p791
(lp792
F61.763513989581256
aF0.5018169461923192
assS'CITo2Mu_Lam34TeVConLL_dimuon_BE'
p793
(dp794
S'2900'
p795
(lp796
F0.2141800801367139
aF0.005751570366219622
asS'1300'
p797
(lp798
F3.8497263930269305
aF0.03054210935696519
asS'600'
p799
(lp800
F44.019499790503005
aF0.33351637715468346
asS'700'
p801
(lp802
F26.406177233637436
aF0.19557146526311392
asS'1200'
p803
(lp804
F4.874738379879304
aF0.03771953185732504
asS'3000'
p805
(lp806
F0.17999921448582765
aF0.0054313384862405105
asS'2800'
p807
(lp808
F0.25440854841778454
aF0.006071909736416321
asS'1900'
p809
(lp810
F1.187430668575331
aF0.011882479547467472
asS'2200'
p811
(lp812
F0.7049191529403096
aF0.00875692985188391
asS'2300'
p813
(lp814
F0.5944970640111188
aF0.008104141537599929
asS'3100'
p815
(lp816
F0.1509474277258791
aF0.005106960220446793
asS'1500'
p817
(lp818
F2.5144761680307823
aF0.021176194966130452
asS'3300'
p819
(lp820
F0.1052840700913961
aF0.004440654717013372
asS'2400'
p821
(lp822
F0.5017756380302977
aF0.007573819441668381
asS'400'
p823
(lp824
F155.3580918837033
aF1.3237664837472207
asS'1400'
p825
(lp826
F3.0916698475853472
aF0.025231074396446472
asS'500'
p827
(lp828
F79.4642621357084
aF0.6291064617638967
asS'2500'
p829
(lp830
F0.4236570019380736
aF0.0071311561752027035
asS'2600'
p831
(lp832
F0.3576625052899541
aF0.006747397435846146
asS'2700'
p833
(lp834
F0.30178996315952056
aF0.006399928456222598
asS'3400'
p835
(lp836
F0.08748411820960722
aF0.004100209313677059
asS'1700'
p837
(lp838
F1.708052367226867
aF0.015497359109978705
asS'900'
p839
(lp840
F11.678364723124048
aF0.08607844129275488
asS'800'
p841
(lp842
F17.02782041186589
aF0.12514056445634616
asS'1800'
p843
(lp844
F1.4210131403291477
aF0.013490149115047994
asS'3500'
p845
(lp846
F0.07239654401875242
aF0.0037575866188789817
asS'1600'
p847
(lp848
F2.064784428534862
aF0.018008809435112124
asS'3200'
p849
(lp850
F0.1262572290203289
aF0.004776698970770221
asS'2000'
p851
(lp852
F0.9956218028446364
aF0.010597112341112184
asS'1100'
p853
(lp854
F6.31217856054748
aF0.047815725474343596
asS'2100'
p855
(lp856
F0.8369567431607079
aF0.0095726334649554
asS'1000'
p857
(lp858
F8.419954457821262
aF0.06273086816242032
assS'CITo2Mu_Lam10TeVConRR_dimuon_BB'
p859
(dp860
S'2900'
p861
(lp862
F24.357203727925814
aF1.536046224774726
asS'1300'
p863
(lp864
F179.65027246837192
aF1.779936159297789
asS'600'
p865
(lp866
F409.33753310069085
aF3.615528315742347
asS'700'
p867
(lp868
F367.58400726671823
aF3.1034018768732716
asS'1200'
p869
(lp870
F202.17329380367266
aF1.883597008851719
asS'3000'
p871
(lp872
F21.129094895389688
aF1.493781587401423
asS'2800'
p873
(lp874
F28.001869250031845
aF1.5699802590322969
asS'1900'
p875
(lp876
F88.60787486006937
aF1.5745990740031004
asS'2200'
p877
(lp878
F61.44141890394874
aF1.6060953578286405
asS'2300'
p879
(lp880
F54.19404485745652
aF1.6159318521154202
asS'3100'
p881
(lp882
F18.27631948087023
aF1.4437087503279393
asS'1500'
p883
(lp884
F142.08699136055972
aF1.6440488322935793
asS'3300'
p885
(lp886
F13.548072997333113
aF1.3230059775609238
asS'2400'
p887
(lp888
F47.705554556391256
aF1.6212770413031672
asS'400'
p889
(lp890
F468.75329960613635
aF5.044132654569041
asS'1400'
p891
(lp892
F159.7428996527068
aF1.701299315317751
asS'500'
p893
(lp894
F445.64918027759677
aF4.259333363028235
asS'2500'
p895
(lp896
F41.90381515627311
aF1.6203721329494947
asS'2600'
p897
(lp898
F36.724113717344046
aF1.6119676637039608
asS'2700'
p899
(lp900
F32.10790515291908
aF1.59528851292736
asS'3400'
p901
(lp902
F11.60568536790879
aF1.2540405841768614
asS'1700'
p903
(lp904
F112.36178941109648
aF1.58287840838453
asS'900'
p905
(lp906
F289.79277249268904
aF2.416317837569649
asS'800'
p907
(lp908
F326.9068141920027
aF2.7122858888009076
asS'1800'
p909
(lp910
F99.83004066924455
aF1.5736268248571061
asS'3500'
p911
(lp912
F9.904441189276941
aF1.180506951384438
asS'1600'
p913
(lp914
F126.377585615712
aF1.6054303014659919
asS'3200'
p915
(lp916
F15.760941101905054
aF1.386516687161797
asS'2000'
p917
(lp918
F78.54887151861783
aF1.5825047773608238
asS'1100'
p919
(lp920
F227.7354736488338
aF2.017776069563701
asS'2100'
p921
(lp922
F69.52888126132007
aF1.594039227080985
asS'1000'
p923
(lp924
F256.79925514492066
aF2.1910272033671525
assS'CITo2Mu_Lam10TeVConRR_dimuon_BE'
p925
(dp926
S'2900'
p927
(lp928
F15.343858636132303
aF1.119796076264132
asS'1300'
p929
(lp930
F172.78887921522582
aF1.6748652502984258
asS'600'
p931
(lp932
F579.8008428438377
aF4.397102305175565
asS'700'
p933
(lp934
F487.6853564852154
aF3.678004918134502
asS'1200'
p935
(lp936
F203.41486559825148
aF1.8409172488338506
asS'3000'
p937
(lp938
F13.065657839595222
aF1.06966421618577
asS'2800'
p939
(lp940
F17.968966832945384
aF1.1638132573471835
asS'1900'
p941
(lp942
F69.12981118430928
aF1.2997743979082286
asS'2200'
p943
(lp944
F44.46455010953534
aF1.2864928360179155
asS'2300'
p945
(lp946
F38.361057627138635
aF1.2808575289119202
asS'3100'
p947
(lp948
F11.091172196634107
aF1.0141966166056149
asS'1500'
p949
(lp950
F126.08169314896814
aF1.4534404311067974
asS'3300'
p951
(lp952
F7.907486189096739
aF0.8908974772157433
asS'2400'
p953
(lp954
F33.06555492739642
aF1.2706129030066013
asS'400'
p955
(lp956
F782.0305500381451
aF6.600444536315652
asS'1400'
p957
(lp958
F147.34984223504134
aF1.547808845601386
asS'500'
p959
(lp960
F678.1065437977106
aF5.314483033337124
asS'2500'
p961
(lp962
F28.465634632175323
aF1.2543705612071243
asS'2600'
p963
(lp964
F24.467189328150077
aF1.2313142237240515
asS'2700'
p965
(lp966
F20.990806302142914
aF1.2011090652219438
asS'3400'
p967
(lp968
F6.63639543495693
aF0.8250113123444125
asS'1700'
p969
(lp970
F93.04094558344725
aF1.3417996697200065
asS'900'
p971
(lp972
F340.7403422410621
aF2.6725295455972855
asS'800'
p973
(lp974
F407.651336911372
aF3.1141340853627653
asS'1800'
p975
(lp976
F80.15150080013333
aF1.314549647326964
asS'3500'
p977
(lp978
F5.543985630713731
aF0.757603421606202
asS'1600'
p979
(lp980
F108.18710429991518
aF1.3864384356174722
asS'3200'
p981
(lp982
F9.38276343989478
aF0.9542875440139016
asS'2000'
p983
(lp984
F59.666033061496776
aF1.2928278806638447
asS'1100'
p985
(lp986
F240.51190004379922
aF2.054239248155082
asS'2100'
p987
(lp988
F51.51140560616068
aF1.2895629818732801
asS'1000'
p989
(lp990
F285.6667888764204
aF2.3262214735806293
assS'CITo2Mu_Lam28TeVConLL_dimuon_BB'
p991
(dp992
S'2900'
p993
(lp994
F0.5926590356059204
aF0.01273843178441728
asS'1300'
p995
(lp996
F5.553432182492781
aF0.04155866478595814
asS'600'
p997
(lp998
F21.49897972255934
aF0.19279747955511523
asS'700'
p999
(lp1000
F16.20315170673203
aF0.1364456460465346
asS'1200'
p1001
(lp1002
F6.462185187128981
aF0.04815050568377298
asS'3000'
p1003
(lp1004
F0.512094958029913
aF0.012268030535267973
asS'2800'
p1005
(lp1006
F0.6843643868153854
aF0.01319169504226514
asS'1900'
p1007
(lp1008
F2.372346358919808
aF0.020949432424627695
asS'2200'
p1009
(lp1010
F1.5743336985878844
aF0.016836310789012484
asS'2300'
p1011
(lp1012
F1.373189417200622
aF0.01595232854552746
asS'3100'
p1013
(lp1014
F0.441345499957631
aF0.011770127512984561
asS'1500'
p1015
(lp1016
F4.147357826788534
aF0.03194635500351548
asS'3300'
p1017
(lp1018
F0.3248184337350237
aF0.01067135205051746
asS'2400'
p1019
(lp1020
F1.1971625934636705
aF0.015232525170805365
asS'400'
p1021
(lp1022
F55.4303294348133
aF0.594696337370678
asS'1400'
p1023
(lp1024
F4.791771763823576
aF0.03626548788949646
asS'500'
p1025
(lp1026
F31.587979115125563
aF0.3067819363626421
asS'2500'
p1027
(lp1028
F1.0429007488303959
aF0.014633077454263075
asS'2600'
p1029
(lp1030
F0.9075655867685377
aF0.014114595730291998
asS'2700'
p1031
(lp1032
F0.7887418681295179
aF0.013643314964579135
asS'3400'
p1033
(lp1034
F0.27714766663509527
aF0.01006847684077977
asS'1700'
p1035
(lp1036
F3.127662074215749
aF0.02542881266244675
asS'900'
p1037
(lp1038
F10.63296193007183
aF0.08240799092843971
asS'800'
p1039
(lp1040
F12.920095167160582
aF0.10368903868245673
asS'1800'
p1041
(lp1042
F2.7225196103710383
aF0.02297657754530723
asS'3500'
p1043
(lp1044
F0.23546540184506656
aF0.009432744109202584
asS'1600'
p1045
(lp1046
F3.598237082628726
aF0.0283837622548965
asS'3200'
p1047
(lp1048
F0.3792561983440733
aF0.011238712132806451
asS'2000'
p1049
(lp1050
F2.0686747398734564
aF0.01928555238894015
asS'1100'
p1051
(lp1052
F7.560723478678483
aF0.05653794008464714
asS'2100'
p1053
(lp1054
F1.8045767823910004
aF0.01793122542700013
asS'1000'
p1055
(lp1056
F8.914470592890353
aF0.0675117217038707
assS'CITo2Mu_Lam16TeVConRR_dimuon_BB'
p1057
(dp1058
S'2900'
p1059
(lp1060
F4.080082112910659
aF0.2626495006853266
asS'1300'
p1061
(lp1062
F33.98762838780324
aF0.3398376474875276
asS'600'
p1063
(lp1064
F85.23358208510228
aF0.774556164710842
asS'700'
p1065
(lp1066
F76.70243253878525
aF0.660511843329907
asS'1200'
p1067
(lp1068
F38.97338328726269
aF0.3640393494600467
asS'3000'
p1069
(lp1070
F3.5250589933909486
aF0.2540777273574854
asS'2800'
p1071
(lp1072
F4.706002007299767
aF0.26971371116872705
asS'1900'
p1073
(lp1074
F15.465227859782928
aF0.28523661416734364
asS'2200'
p1075
(lp1076
F10.518554785522735
aF0.2843635599933875
asS'2300'
p1077
(lp1078
F9.238880149236794
aF0.2843091304812746
asS'3100'
p1079
(lp1080
F3.033661386433515
aF0.24405393954640908
asS'1500'
p1081
(lp1082
F25.994325743761856
aF0.3080028864834175
asS'3300'
p1083
(lp1084
F2.2167627395138867
aF0.22008336067923806
asS'2400'
p1085
(lp1086
F8.104840134132838
aF0.2836599170618467
asS'400'
p1087
(lp1088
F101.88179583548617
aF1.1253430824098911
asS'1400'
p1089
(lp1090
F29.69601038831793
aF0.3215705843934025
asS'500'
p1091
(lp1092
F91.94722713220074
aF0.9069741077755432
asS'2500'
p1093
(lp1094
F7.098572372275383
aF0.2820916374780538
asS'2600'
p1095
(lp1096
F6.204956903912753
aF0.279353197095102
asS'2700'
p1097
(lp1098
F5.411114685467391
aF0.27526475470114214
asS'3400'
p1099
(lp1100
F1.8804249394583512
aF0.20643852185720413
asS'1700'
p1101
(lp1102
F20.01015829642022
aF0.29160954874169487
asS'900'
p1103
(lp1104
F59.12993746332245
aF0.49386529243528077
asS'800'
p1105
(lp1106
F67.67477448656862
aF0.5669552002625248
asS'1800'
p1107
(lp1108
F17.58591298842638
aF0.287468512534262
asS'3500'
p1109
(lp1110
F1.5858314109620708
aF0.19193197125625955
asS'1600'
p1111
(lp1112
F22.791459353350835
aF0.2982486885943228
asS'3200'
p1113
(lp1114
F2.599467475371652
aF0.23267717871462038
asS'2000'
p1115
(lp1116
F13.603837684086304
aF0.2843382761585656
asS'1100'
p1117
(lp1118
F44.76507061393544
aF0.39596200640306484
asS'2100'
p1119
(lp1120
F11.965089159024256
aF0.2842193087621803
asS'1000'
p1121
(lp1122
F51.46576679520502
aF0.43813103066543146
assS'CITo2Mu_Lam28TeVConLL_dimuon_BE'
p1123
(dp1124
S'2900'
p1125
(lp1126
F0.37940167959921195
aF0.009917832655758583
asS'1300'
p1127
(lp1128
F6.250638522029025
aF0.049061329185574605
asS'600'
p1129
(lp1130
F38.147393578964056
aF0.28430087584410574
asS'700'
p1131
(lp1132
F26.668280296286923
aF0.19419662471000396
asS'1200'
p1133
(lp1134
F7.683072627875653
aF0.05874564534599965
asS'3000'
p1135
(lp1136
F0.3206542561655572
aF0.009396716694685983
asS'2800'
p1137
(lp1138
F0.44835986834391367
aF0.010443761689916063
asS'1900'
p1139
(lp1140
F2.0363419007025234
aF0.020276754018813552
asS'2200'
p1141
(lp1142
F1.2169178821863549
aF0.015005647152101557
asS'2300'
p1143
(lp1144
F1.028768867208715
aF0.013889821477720329
asS'3100'
p1145
(lp1146
F0.2705558749407055
aF0.008871732792890857
asS'1500'
p1147
(lp1148
F4.220749893662671
aF0.03524926172275601
asS'3300'
p1149
(lp1150
F0.19132062660225607
aF0.007794950779830738
asS'2400'
p1151
(lp1152
F0.8707047011656602
aF0.012981312548501484
asS'400'
p1153
(lp1154
F113.21653270662864
aF0.9532088623752323
asS'1400'
p1155
(lp1156
F5.121173106930524
aF0.0413968945365571
asS'500'
p1157
(lp1158
F60.393378948995405
aF0.4710750689713601
asS'2500'
p1159
(lp1160
F0.7374767252607621
aF0.012224419689896713
asS'2600'
p1161
(lp1162
F0.6248559343750695
aF0.011572562627165401
asS'2700'
p1163
(lp1164
F0.5294148418261795
aF0.010988482008795705
asS'3400'
p1165
(lp1166
F0.16018405833501126
aF0.007242421373284325
asS'1700'
p1167
(lp1168
F2.90919761130446
aF0.02623196148823474
asS'900'
p1169
(lp1170
F15.198422143876343
aF0.11029291107347548
asS'800'
p1171
(lp1172
F19.780106127963535
aF0.14298708057289922
asS'1800'
p1173
(lp1174
F2.429915329229356
aF0.02294389856712366
asS'3500'
p1175
(lp1176
F0.13362677324638772
aF0.006683051054274503
asS'1600'
p1177
(lp1178
F3.4964081292499625
aF0.03027496087881968
asS'3200'
p1179
(lp1180
F0.22780691046618579
aF0.008338307014154486
asS'2000'
p1181
(lp1182
F1.7113716874356184
aF0.018123280790501912
asS'1100'
p1183
(lp1184
F9.525537378578576
aF0.07121504107645074
asS'2100'
p1185
(lp1186
F1.4417060796609973
aF0.016392871981903923
asS'1000'
p1187
(lp1188
F11.941367143781491
aF0.08769498532545393
assS'CITo2Mu_Lam22TeVConLL_dimuon_BB'
p1189
(dp1190
S'2900'
p1191
(lp1192
F1.3886442768900054
aF0.02886842760298562
asS'1300'
p1193
(lp1194
F11.751403082854925
aF0.0870855265490965
asS'600'
p1195
(lp1196
F29.846901681075792
aF0.26538478577476693
asS'700'
p1197
(lp1198
F26.747192824127524
aF0.22287459245283606
asS'1200'
p1199
(lp1200
F13.536618881938338
aF0.09973195518541736
asS'3000'
p1201
(lp1202
F1.2099682719129516
aF0.027986490771509283
asS'2800'
p1203
(lp1204
F1.5904744061285996
aF0.029716989222017567
asS'1900'
p1205
(lp1206
F5.191255742839532
aF0.04560163181244384
asS'2200'
p1207
(lp1208
F3.504304877111143
aF0.03703424481020697
asS'2300'
p1209
(lp1210
F3.0761414831628326
aF0.03519662970402183
asS'3100'
p1211
(lp1212
F1.0517614057223397
aF0.02704311305169512
asS'1500'
p1213
(lp1214
F8.89430787898785
aF0.0680580176264229
asS'3300'
p1215
(lp1216
F0.7877507272129111
aF0.024904435090752783
asS'2400'
p1217
(lp1218
F2.69991872536513
aF0.033715446583874716
asS'400'
p1219
(lp1220
F42.60992821914442
aF0.4551708936021877
asS'1400'
p1221
(lp1222
F10.215323451021813
aF0.07668473616008017
asS'500'
p1223
(lp1224
F33.32309809326671
aF0.32158088165491777
asS'2500'
p1225
(lp1226
F2.3686832304836174
aF0.03250325356669916
asS'2600'
p1227
(lp1228
F2.0765610885432064
aF0.031478977363633594
asS'2700'
p1229
(lp1230
F1.8185715919135683
aF0.03057061346097435
asS'3400'
p1231
(lp1232
F0.6781509520939346
aF0.023693854267529763
asS'1700'
p1233
(lp1234
F6.775855747053759
aF0.05483147867234745
asS'900'
p1235
(lp1236
F20.6724804977257
aF0.15815642147161166
asS'800'
p1237
(lp1238
F23.63445970593989
aF0.18739859891082264
asS'1800'
p1239
(lp1240
F5.927262359198573
aF0.04979298965467208
asS'3500'
p1241
(lp1242
F0.581342133271981
aF0.022388877069644875
asS'1600'
p1243
(lp1244
F7.757001009684066
aF0.06085793966575538
asS'3200'
p1245
(lp1246
F0.9116972449723225
aF0.02601941775708602
asS'2000'
p1247
(lp1248
F4.551069934697106
aF0.04214360263374376
asS'1100'
p1249
(lp1250
F15.604656886979896
aF0.11524684759309067
asS'2100'
p1251
(lp1252
F3.992668131792873
aF0.03931914875135917
asS'1000'
p1253
(lp1254
F17.98176097132071
aF0.13441588459415024
assS'CITo2Mu_Lam34TeVConLR_dimuon_BB'
p1255
(dp1256
S'2900'
p1257
(lp1258
F0.4458855107324882
aF0.03014293983701687
asS'1300'
p1259
(lp1260
F-0.7932480892778564
aF-0.0076068867008374464
asS'600'
p1261
(lp1262
F26.964804013720368
aF0.24505237979752387
asS'700'
p1263
(lp1264
F9.948452265792497
aF0.08506135615606099
asS'1200'
p1265
(lp1266
F-1.3022253278400768
aF-0.011647250134988915
asS'3000'
p1267
(lp1268
F0.3930256978300838
aF0.02984429154115819
asS'2800'
p1269
(lp1270
F0.5026591766465244
aF0.03014121810354694
asS'1900'
p1271
(lp1272
F0.8344935399012456
aF0.015345779567636062
asS'2200'
p1273
(lp1274
F0.8434157178609385
aF0.023151276507485285
asS'2300'
p1275
(lp1276
F0.800452644817689
aF0.025151548123063236
asS'3100'
p1277
(lp1278
F0.3444488970810891
aF0.029268979220706218
asS'1500'
p1279
(lp1280
F0.08377946792807656
aF0.0009623219296941158
asS'3300'
p1281
(lp1282
F0.2604438015321657
aF0.02739656943134599
asS'2400'
p1283
(lp1284
F0.7466326315134795
aF0.02682725592997731
asS'400'
p1285
(lp1286
F114.51735143878636
aF1.2736515504107746
asS'1400'
p1287
(lp1288
F-0.31467523654014684
aF-0.0032826529960558485
asS'500'
p1289
(lp1290
F61.294099842832566
aF0.607382806691194
asS'2500'
p1291
(lp1292
F0.6868175353220476
aF0.02816677698068093
asS'2600'
p1293
(lp1294
F0.6246173072655301
aF0.029164006808430284
asS'2700'
p1295
(lp1296
F0.562630928898778
aF0.02981960491092645
asS'3400'
p1297
(lp1298
F0.22478434729480037
aF0.026156927194546983
asS'1700'
p1299
(lp1300
F0.608509918915539
aF0.008721123226380734
asS'900'
p1301
(lp1302
F-0.8263334177268575
aF-0.006720934815522159
asS'800'
p1303
(lp1304
F2.2651316819764986
aF0.01866655839712751
asS'1800'
p1305
(lp1306
F0.752023638460571
aF0.01217505169043253
asS'3500'
p1307
(lp1308
F0.19304657328254216
aF0.024753747729281406
asS'1600'
p1309
(lp1310
F0.389819883745238
aF0.004980423086086801
asS'3200'
p1311
(lp1312
F0.3002738236365633
aF0.02844361989090637
asS'2000'
p1313
(lp1314
F0.8695314316139595
aF0.0182358221219009
asS'1100'
p1315
(lp1316
F-1.7152887492712523
aF-0.014558546200707224
asS'2100'
p1317
(lp1318
F0.8691508666884706
aF0.020841193472654004
asS'1000'
p1319
(lp1320
F-1.7523994408641101
aF-0.01439954443393085
assS'CITo2Mu_Lam34TeVConLR_dimuon_BE'
p1321
(dp1322
S'2900'
p1323
(lp1324
F0.3288559056415236
aF0.02609948645539363
asS'1300'
p1325
(lp1326
F-0.2573359748966588
aF-0.0024057017888362902
asS'600'
p1327
(lp1328
F40.17895820429021
aF0.3168092446330848
asS'700'
p1329
(lp1330
F19.818621433856322
aF0.15428401481490522
asS'1200'
p1331
(lp1332
F-0.2088105861676155
aF-0.0018287997055528346
asS'3000'
p1333
(lp1334
F0.2892532049398677
aF0.025790669915874948
asS'2800'
p1335
(lp1336
F0.3702535692311183
aF0.02604168977236247
asS'1900'
p1337
(lp1338
F0.4938825507094018
aF0.00965235115220592
asS'2200'
p1339
(lp1340
F0.5652918062899113
aF0.017475392975689636
asS'2300'
p1341
(lp1342
F0.5514766674492202
aF0.01977174273053483
asS'3100'
p1343
(lp1344
F0.2521833643509383
aF0.02515647796145409
asS'1500'
p1345
(lp1346
F0.009229233243408075
aF0.00010400744064415294
asS'3300'
p1347
(lp1348
F0.18724630639652368
aF0.023109389198451753
asS'2400'
p1349
(lp1350
F0.5260011828126834
aF0.021781503571008904
asS'400'
p1351
(lp1352
F138.39615351616158
aF1.2094620566533854
asS'1400'
p1353
(lp1354
F-0.15037860603922226
aF-0.0015288960398566226
asS'500'
p1355
(lp1356
F77.7149161299642
aF0.6341364764216322
asS'2500'
p1357
(lp1358
F0.49242536259521674
aF0.023445038269613916
asS'2600'
p1359
(lp1360
F0.4537369374271771
aF0.024720884684445298
asS'2700'
p1361
(lp1362
F0.412371015660892
aF0.02558723841117982
asS'3400'
p1363
(lp1364
F0.15966460090543366
aF0.021800188729209465
asS'1700'
p1365
(lp1366
F0.3092411340824617
aF0.004496848113494014
asS'900'
p1367
(lp1368
F3.896047133517669
aF0.030728640854142463
asS'800'
p1369
(lp1370
F9.232541725951023
aF0.0719576195916663
asS'1800'
p1371
(lp1372
F0.41747624571717257
aF0.007016292770031863
asS'3500'
p1373
(lp1374
F0.13528107819603
aF0.020366629855556265
asS'1600'
p1375
(lp1376
F0.17025697098172543
aF0.0021640800208317635
asS'3200'
p1377
(lp1378
F0.21810400873775804
aF0.024245417553732048
asS'2000'
p1379
(lp1380
F0.5410964579888775
aF0.01233022727628701
asS'1100'
p1381
(lp1382
F0.19363556331582288
aF0.0016158082202360812
asS'2100'
p1383
(lp1384
F0.56334207851783
aF0.014966886959450539
asS'1000'
p1385
(lp1386
F1.3260385859857422
aF0.01069417319149806
assS'CITo2Mu_Lam22TeVConLL_dimuon_BE'
p1387
(dp1388
S'2900'
p1389
(lp1390
F0.8452404245005587
aF0.021474791566374055
asS'1300'
p1391
(lp1392
F12.656172828967126
aF0.09900915252013104
asS'600'
p1393
(lp1394
F72.6212029223268
aF0.5492436000433469
asS'700'
p1395
(lp1396
F52.422332017422946
aF0.3869685165039719
asS'1200'
p1397
(lp1398
F15.519281119381368
aF0.11854611490269529
asS'3000'
p1399
(lp1400
F0.7181419412869454
aF0.020416275283074478
asS'2800'
p1401
(lp1402
F0.9931456915080137
aF0.022532951591472856
asS'1900'
p1403
(lp1404
F4.244937819731759
aF0.041930013980933066
asS'2200'
p1405
(lp1406
F2.5890931706970113
aF0.031572782533388834
asS'2300'
p1407
(lp1408
F2.2042501781972894
aF0.029370747665432805
asS'3100'
p1409
(lp1410
F0.6088226106977606
aF0.01933781070319814
asS'1500'
p1411
(lp1412
F8.606797502938496
aF0.07142384045187077
asS'3300'
p1413
(lp1414
F0.4338178989800509
aF0.01708441860526993
asS'2400'
p1415
(lp1416
F1.878708679427604
aF0.027574350254650805
asS'400'
p1417
(lp1418
F179.8099483513106
aF1.5315722311005888
asS'1400'
p1419
(lp1420
F10.401976689766084
aF0.08365559866955596
asS'500'
p1421
(lp1422
F107.75683303754067
aF0.8524588560361792
asS'2500'
p1423
(lp1424
F1.6022733138078034
aF0.02607546244034332
asS'2600'
p1425
(lp1426
F1.3667495723193415
aF0.024782564738323035
asS'2700'
p1427
(lp1428
F1.165506962893534
aF0.0236211178127386
asS'3400'
p1429
(lp1430
F0.36421784061218976
aF0.015906814083500746
asS'1700'
p1431
(lp1432
F5.991596505669632
aF0.05362053392371971
asS'900'
p1433
(lp1434
F30.504711417263024
aF0.2232097108211746
asS'800'
p1435
(lp1436
F39.45276677702577
aF0.2884380725931544
asS'1800'
p1437
(lp1438
F5.03374896627075
aF0.04716234584711113
asS'3500'
p1439
(lp1440
F0.3044318851326151
aF0.014701015399471355
asS'1600'
p1441
(lp1442
F7.162987718177977
aF0.06158362786679774
asS'3200'
p1443
(lp1444
F0.5147552904564455
aF0.018228522806316788
asS'2000'
p1445
(lp1446
F3.5911245417234676
aF0.037704404310737426
asS'1100'
p1447
(lp1448
F19.205868936990363
aF0.14385318726054588
asS'2100'
p1449
(lp1450
F3.046011030537512
aF0.03430426563214788
asS'1000'
p1451
(lp1452
F24.03476784471131
aF0.1773942819281527
assS'CITo2Mu_Lam22TeVConLR_dimuon_BB'
p1453
(dp1454
S'2900'
p1455
(lp1456
F2.2490160261828103
aF0.13694195789335817
asS'1300'
p1457
(lp1458
F13.141798071731746
aF0.12405341756297215
asS'600'
p1459
(lp1460
F63.64012161479269
aF0.5687202970843724
asS'700'
p1461
(lp1462
F41.84778654250718
aF0.3512915411975834
asS'1200'
p1463
(lp1464
F14.630202270675625
aF0.1292438184565034
asS'3000'
p1465
(lp1466
F1.9616744144770755
aF0.1343175541164809
asS'2800'
p1467
(lp1468
F2.5686052001573945
aF0.13863441079724798
asS'1900'
p1469
(lp1470
F7.311944499407516
aF0.12528840043448977
asS'2200'
p1471
(lp1472
F5.307268399344492
aF0.13274135637364748
asS'2300'
p1473
(lp1474
F4.740525730274115
aF0.13508576443594478
asS'3100'
p1475
(lp1476
F1.7040924511290538
aF0.13075909687444176
asS'1500'
p1477
(lp1478
F10.811657506967062
aF0.12050275102271327
asS'3300'
p1479
(lp1480
F1.2687768967401418
aF0.12095514547569261
asS'2400'
p1481
(lp1482
F4.221088334131064
aF0.1370726463187539
asS'400'
p1483
(lp1484
F167.40684703695592
aF1.8421939726727463
asS'1400'
p1485
(lp1486
F11.899821003686043
aF0.12145658523607095
asS'500'
p1487
(lp1488
F103.84639272649724
aF1.0149598905108423
asS'2500'
p1489
(lp1490
F3.7466694643016494
aF0.13854478084106278
asS'2600'
p1491
(lp1492
F3.3148260129155784
aF0.1393655931416928
asS'2700'
p1493
(lp1494
F2.9230063032366163
aF0.13942354525492337
asS'3400'
p1495
(lp1496
F1.0866295109458182
aF0.11482355733307856
asS'1700'
p1497
(lp1498
F8.925419128620376
aF0.1216356371527909
asS'900'
p1499
(lp1500
F23.277107135023485
aF0.18634225034088622
asS'800'
p1501
(lp1502
F30.000365232055998
aF0.24283023822930372
asS'1800'
p1503
(lp1504
F8.08881348004047
aF0.12322789484733578
asS'3500'
p1505
(lp1506
F0.925426438310943
aF0.10798159569295952
asS'1600'
p1507
(lp1508
F9.828649475524479
aF0.12066317782926327
asS'3200'
p1509
(lp1510
F1.4738832351527322
aF0.12628953766443957
asS'2000'
p1511
(lp1512
F6.590978135658603
aF0.12766907294878097
asS'1100'
p1513
(lp1514
F16.540833585366528
aF0.13874957061267187
asS'2100'
p1515
(lp1516
F5.923426517001679
aF0.13021047544783812
asS'1000'
p1517
(lp1518
F19.208549598008503
aF0.15574966775420263
assS'CITo2Mu_Lam22TeVConLR_dimuon_BE'
p1519
(dp1520
S'2900'
p1521
(lp1522
F1.4345124650473629
aF0.09934368382551169
asS'1300'
p1523
(lp1524
F13.35955114162449
aF0.12353678790850699
asS'600'
p1525
(lp1526
F92.51074047651741
aF0.7139217293571687
asS'700'
p1527
(lp1528
F61.24307485064162
aF0.4654322543414654
asS'1200'
p1529
(lp1530
F15.94687977134894
aF0.1381199083586301
asS'3000'
p1531
(lp1532
F1.224063026845323
aF0.09520928515157386
asS'2800'
p1533
(lp1534
F1.6727205922196968
aF0.10278299565383786
asS'1900'
p1535
(lp1536
F5.708665068821943
aF0.10403725550953609
asS'2200'
p1537
(lp1538
F3.8695779549601275
aF0.10784408679063123
asS'2300'
p1539
(lp1540
F3.3905914469341623
aF0.10865875697380688
asS'3100'
p1541
(lp1542
F1.0388621495989558
aF0.0904535587409061
asS'1500'
p1543
(lp1544
F9.789036372534637
aF0.108018301451625
asS'3300'
p1545
(lp1546
F0.7350952488210636
aF0.07944711455439693
asS'2400'
p1547
(lp1548
F2.9638139664540404
aF0.10892546325385939
asS'400'
p1549
(lp1550
F242.6613198897835
aF2.0974779864331383
asS'1400'
p1551
(lp1552
F11.369932729728735
aF0.11397582247338106
asS'500'
p1553
(lp1554
F147.58329421208396
aF1.1843862249329185
asS'2500'
p1555
(lp1556
F2.583178669720644
aF0.10852662052439464
asS'2600'
p1557
(lp1558
F2.243757663693854
aF0.10738793874009148
asS'2700'
p1559
(lp1560
F1.9414428387547709
aF0.10547385040106279
asS'3400'
p1561
(lp1562
F0.6123492767183213
aF0.07340428728260202
asS'1700'
p1563
(lp1564
F7.418975138324236
aF0.10329917032376407
asS'900'
p1565
(lp1566
F31.63507584628684
aF0.24419040904060954
asS'800'
p1567
(lp1568
F42.901148716048965
aF0.3264608264773433
asS'1800'
p1569
(lp1570
F6.501030534154495
aF0.10323942477389661
asS'3500'
p1571
(lp1572
F0.5064589205434665
aF0.06714742158470241
asS'1600'
p1573
(lp1574
F8.497799315649461
aF0.10469938384250994
asS'3200'
p1575
(lp1576
F0.8765924753723935
aF0.08516597339709818
asS'2000'
p1577
(lp1578
F5.017081683563905
aF0.10528603978594679
asS'1100'
p1579
(lp1580
F19.441306288252463
aF0.15999589855650911
asS'2100'
p1581
(lp1582
F4.408435410514642
aF0.1066470377385691
asS'1000'
p1583
(lp1584
F24.365924046789246
aF0.19303896189390288
assS'CITo2Mu_Lam16TeVConLL_dimuon_BB'
p1585
(dp1586
S'2900'
p1587
(lp1588
F4.37987055217112
aF0.08875676374262416
asS'1300'
p1589
(lp1590
F33.72103840085366
aF0.2487674461674033
asS'600'
p1591
(lp1592
F78.90492308585817
aF0.6955429601308155
asS'700'
p1593
(lp1594
F72.81892717636367
aF0.599966606726406
asS'1200'
p1595
(lp1596
F38.54199455068846
aF0.2820116400380649
asS'3000'
p1597
(lp1598
F3.817246410034119
aF0.08604653872873597
asS'2800'
p1599
(lp1600
F5.010557691620906
aF0.09131391359820028
asS'1900'
p1601
(lp1602
F15.63627593332462
aF0.13689641289905513
asS'2200'
p1603
(lp1604
F10.775909899438805
aF0.11256553868636124
asS'2300'
p1605
(lp1606
F9.514544346233922
aF0.10726880860794694
asS'3100'
p1607
(lp1608
F3.3157271887338307
aF0.08309263102010823
asS'1500'
p1609
(lp1610
F25.941367240531452
aF0.19826692480502123
asS'3300'
p1611
(lp1612
F2.472322619440693
aF0.07624338885117522
asS'2400'
p1613
(lp1614
F8.394249913293896
aF0.10298607775286857
asS'400'
p1615
(lp1616
F85.72614599049712
aF0.9143545592150756
asS'1400'
p1617
(lp1618
F29.550431709453534
aF0.22126645965176683
asS'500'
p1619
(lp1620
F81.56599920070732
aF0.7830721155621674
asS'2500'
p1621
(lp1622
F7.397465046070301
aF0.09947451130055529
asS'2600'
p1623
(lp1624
F6.5093501485774
aF0.09649878987695794
asS'2700'
p1625
(lp1626
F5.717302055208854
aF0.0938419404975849
asS'3400'
p1627
(lp1628
F2.120264332402896
aF0.07230891805812896
asS'1700'
p1629
(lp1630
F20.09037342192024
aF0.16246341561440647
asS'900'
p1631
(lp1632
F57.571320457824555
aF0.43492968968169193
asS'800'
p1633
(lp1634
F65.2416660515849
aF0.5108026278955328
asS'1800'
p1635
(lp1636
F17.715622898617788
aF0.14857993444987763
asS'3500'
p1637
(lp1638
F1.8087497408447273
aF0.06804525262984996
asS'1600'
p1639
(lp1640
F22.81191611491925
aF0.17887632420468352
asS'3200'
p1641
(lp1642
F2.8692140629504412
aF0.07983548254743175
asS'2000'
p1643
(lp1644
F13.809402924850712
aF0.12715184405869792
asS'1100'
p1645
(lp1646
F44.09896148121875
aF0.32266891504931516
asS'2100'
p1647
(lp1648
F12.199223935735835
aF0.11911622687783947
asS'1000'
p1649
(lp1650
F50.450052764476425
aF0.37285231912213224
assS'CITo2Mu_Lam34TeVConRR_dimuon_BE'
p1651
(dp1652
S'2900'
p1653
(lp1654
F0.14172866886754287
aF0.012929943928035136
asS'1300'
p1655
(lp1656
F4.251636806998807
aF0.042005904882283354
asS'600'
p1657
(lp1658
F36.02652994375512
aF0.28591807675474656
asS'700'
p1659
(lp1660
F25.537483803240775
aF0.20113307903070776
asS'1200'
p1661
(lp1662
F5.574673018039114
aF0.05116791042425957
asS'3000'
p1663
(lp1664
F0.11798945675013955
aF0.012093530189675537
asS'2800'
p1665
(lp1666
F0.17037770435734811
aF0.013764515492709049
asS'1900'
p1667
(lp1668
F1.0078508036589162
aF0.02170840626226935
asS'2200'
p1669
(lp1670
F0.5379618176689351
aF0.018699744270368274
asS'2300'
p1671
(lp1672
F0.44062025573409636
aF0.01786182228569001
asS'3100'
p1673
(lp1674
F0.09825272821798252
aF0.011259069127877544
asS'1500'
p1675
(lp1676
F2.545918564566115
aF0.03076973826448334
asS'3300'
p1677
(lp1678
F0.06803969393707825
aF0.009612410328498548
asS'2400'
p1679
(lp1680
F0.36230167560138193
aF0.01704478644805804
asS'400'
p1681
(lp1682
F80.5562582022153
aF0.7016221092344784
asS'1400'
p1683
(lp1684
F3.274800267718291
aF0.03545907551390511
asS'500'
p1685
(lp1686
F52.13556572413131
aF0.4259096010551092
asS'2500'
p1687
(lp1688
F0.2989063731207702
aF0.01623255175375422
asS'2600'
p1689
(lp1690
F0.2473033520713372
aF0.015416758748335584
asS'2700'
p1691
(lp1692
F0.20508311504226273
aF0.01459410252091166
asS'3400'
p1693
(lp1694
F0.056517428205272155
aF0.008808397437483588
asS'1700'
p1695
(lp1696
F1.578263235660228
aF0.024942437033089602
asS'900'
p1697
(lp1698
F13.40697798662282
aF0.10818882169172382
asS'800'
p1699
(lp1700
F18.385092847046764
aF0.14573141471364306
asS'1800'
p1701
(lp1702
F1.256932712609463
aF0.023117092686946557
asS'3500'
p1703
(lp1704
F0.0468505095632487
aF0.008022448575697222
asS'1600'
p1705
(lp1706
F1.9964874347172001
aF0.027396213863053475
asS'3200'
p1707
(lp1708
F0.08179584225039835
aF0.010430648240767938
asS'2000'
p1709
(lp1710
F0.8131460251069007
aF0.020566016648951614
asS'1100'
p1711
(lp1712
F7.386207243221676
aF0.06403679881940631
asS'2100'
p1713
(lp1714
F0.6597371187810201
aF0.019586229134922372
asS'1000'
p1715
(lp1716
F9.89439934088044
aF0.0822282830350731
assS'CITo2Mu_Lam34TeVConRR_dimuon_BB'
p1717
(dp1718
S'2900'
p1719
(lp1720
F0.26912664375524553
aF0.020916169488155292
asS'1300'
p1721
(lp1722
F3.15155142861067
aF0.03244316217055385
asS'600'
p1723
(lp1724
F13.647861742187501
aF0.128856280484481
asS'700'
p1725
(lp1726
F11.231130163317687
aF0.1007027754254192
asS'1200'
p1727
(lp1728
F3.8583864500256837
aF0.03693415370599085
asS'3000'
p1729
(lp1730
F0.23448475322015222
aF0.02042746995250739
asS'2800'
p1731
(lp1732
F0.3085648932455466
aF0.021307455523895652
asS'1900'
p1733
(lp1734
F1.100136648526119
aF0.02269045534557747
asS'2200'
p1735
(lp1736
F0.7050423170076654
aF0.02213812199272371
asS'2300'
p1737
(lp1738
F0.6121506022474337
aF0.02208899272073672
asS'3100'
p1739
(lp1740
F0.20400367173661704
aF0.019841258362306644
asS'1500'
p1741
(lp1742
F2.1533580963106207
aF0.026829911487301135
asS'3300'
p1743
(lp1744
F0.15348822094161882
aF0.01839059429631747
asS'2400'
p1745
(lp1746
F0.5327065220341545
aF0.022038036273824498
asS'400'
p1747
(lp1748
F24.231410885784953
aF0.2742383248164953
asS'1400'
p1749
(lp1750
F2.5945707282772563
aF0.029183620317397643
asS'500'
p1751
(lp1752
F16.625564415637427
aF0.16935713014418205
asS'2500'
p1753
(lp1754
F0.46431298781494834
aF0.02195515919626115
asS'2600'
p1755
(lp1756
F0.40509452493380993
aF0.021816752078992484
asS'2700'
p1757
(lp1758
F0.35357135954157465
aF0.021605031876380704
asS'3400'
p1759
(lp1760
F0.13262594592540575
aF0.017538947470550587
asS'1700'
p1761
(lp1762
F1.5182278694782552
aF0.023982259669168327
asS'900'
p1763
(lp1764
F7.3376144036750475
aF0.06336625295185896
asS'800'
p1765
(lp1766
F9.113534862987592
aF0.07933518208165455
asS'1800'
p1767
(lp1768
F1.2884155784905698
aF0.023194884029749546
asS'3500'
p1769
(lp1770
F0.1142381898051309
aF0.016614291791519287
asS'1600'
p1771
(lp1772
F1.801367921506241
aF0.025151844115592206
asS'3200'
p1773
(lp1774
F0.1771537398897464
aF0.01916048659337677
asS'2000'
p1775
(lp1776
F0.9444287747914446
aF0.022388534982079534
asS'1100'
p1777
(lp1778
F4.757637044960056
aF0.043119584088253504
asS'2100'
p1779
(lp1780
F0.8144682896222826
aF0.022222777605266805
asS'1000'
p1781
(lp1782
F5.899649881239817
aF0.05164457994657779
assS'CITo2Mu_Lam16TeVConLL_dimuon_BE'
p1783
(dp1784
S'2900'
p1785
(lp1786
F2.8061319715153097
aF0.06916381257814233
asS'1300'
p1787
(lp1788
F34.44851881569517
aF0.2656764089909671
asS'600'
p1789
(lp1790
F125.703579630984
aF0.9308284588959618
asS'700'
p1791
(lp1792
F106.21765209305818
aF0.7655288224813697
asS'1200'
p1793
(lp1794
F41.3469447398555
aF0.3103982075454243
asS'3000'
p1795
(lp1796
F2.404025131531576
aF0.06624780568531684
asS'2800'
p1797
(lp1798
F3.268266542488949
aF0.07202278992046937
asS'1900'
p1799
(lp1800
F12.65146922743865
aF0.12412535165905031
asS'2200'
p1801
(lp1802
F8.004522171943819
aF0.0963002982931234
asS'2300'
p1803
(lp1804
F6.893212240713653
aF0.09033069024433807
asS'3100'
p1805
(lp1806
F2.0539501897297203
aF0.06320617516793815
asS'1500'
p1807
(lp1808
F24.256225732792203
aF0.1994931113892453
asS'3300'
p1809
(lp1810
F1.4839780903421813
aF0.05660714071926961
asS'2400'
p1811
(lp1812
F5.940493658008494
aF0.0854779352971029
asS'400'
p1813
(lp1814
F182.75298885655366
aF1.5384972767463905
asS'1400'
p1815
(lp1816
F28.83808949874199
aF0.22929959803122674
asS'500'
p1817
(lp1818
F146.53721102327722
aF1.1398363021515763
asS'2500'
p1819
(lp1820
F5.120637482143097
aF0.08145623941076763
asS'2600'
p1821
(lp1822
F4.4127990776055555
aF0.0780113197005693
asS'2700'
p1823
(lp1824
F3.7999875424357916
aF0.07492597160094902
asS'3400'
p1825
(lp1826
F1.2534858581043054
aF0.053034510141336824
asS'1700'
p1827
(lp1828
F17.38847050323239
aF0.15465340974028255
asS'900'
p1829
(lp1830
F73.08672929885776
aF0.5217662523842546
asS'800'
p1831
(lp1832
F88.42760559879878
aF0.6304807107684266
asS'1800'
p1833
(lp1834
F14.808034527898382
aF0.1379053473116447
asS'3500'
p1835
(lp1836
F1.053493319225173
aF0.04929762026700278
asS'1600'
p1837
(lp1838
F20.494639633186843
aF0.1749375259942941
asS'3200'
p1839
(lp1840
F1.7491722515184027
aF0.05999834302175746
asS'2000'
p1841
(lp1842
F10.83865413732468
aF0.11285396525212106
asS'1100'
p1843
(lp1844
F49.84727019163224
aF0.3658229482352168
asS'2100'
p1845
(lp1846
F9.306370589811426
aF0.10369749717018324
asS'1000'
p1847
(lp1848
F60.30765047068169
aF0.43500990272235046
assS'CITo2Mu_Lam16TeVConLR_dimuon_BB'
p1849
(dp1850
S'2900'
p1851
(lp1852
F8.096468705573589
aF0.47722242630915046
asS'1300'
p1853
(lp1854
F53.144663925028354
aF0.49416492362168396
asS'600'
p1855
(lp1856
F153.2762902134632
aF1.3403541074709349
asS'700'
p1857
(lp1858
F124.43206868291239
aF1.022626494058587
asS'1200'
p1859
(lp1860
F59.84264127300321
aF0.5234555744792958
asS'3000'
p1861
(lp1862
F7.064487241364321
aF0.46915806678190364
asS'2800'
p1863
(lp1864
F9.24472558107453
aF0.48195663195502775
asS'1900'
p1865
(lp1866
F27.088844133110822
aF0.44125186447377
asS'2200'
p1867
(lp1868
F19.270670678844592
aF0.4586627519792394
asS'2300'
p1869
(lp1870
F17.15068943317555
aF0.46608554282630815
asS'3100'
p1871
(lp1872
F6.139032227314392
aF0.45769366851141835
asS'1500'
p1873
(lp1874
F42.29476755696069
aF0.45750174096295815
asS'3300'
p1875
(lp1876
F4.572790302890296
aF0.424813237145096
asS'2400'
p1877
(lp1878
F15.23365771329597
aF0.4729665658439244
asS'400'
p1879
(lp1880
F255.95687489191187
aF2.779965470318688
asS'1400'
p1881
(lp1882
F47.357965852660314
aF0.4727754264990986
asS'500'
p1883
(lp1884
F195.93794146803623
aF1.8797047436374539
asS'2500'
p1885
(lp1886
F13.50040629274263
aF0.4785761063838472
asS'2600'
p1887
(lp1888
F11.934134828801927
aF0.48227771685092935
asS'2700'
p1889
(lp1890
F10.519987528858545
aF0.4835425973801523
asS'3400'
p1891
(lp1892
F3.916259419209047
aF0.4037642620714043
asS'1700'
p1893
(lp1894
F33.8431442481053
aF0.4415854451483985
asS'900'
p1895
(lp1896
F88.97126161161952
aF0.7033017119110013
asS'800'
p1897
(lp1898
F104.08613221256704
aF0.8278216940363436
asS'1800'
p1899
(lp1900
F30.284296095364432
aF0.43975208543084715
asS'3500'
p1901
(lp1902
F3.3345894772643554
aF0.38003166120617543
asS'1600'
p1903
(lp1904
F37.82221311011385
aF0.4473225770561908
asS'3200'
p1905
(lp1906
F5.311194973176692
aF0.4428662650942551
asS'2000'
p1907
(lp1908
F24.211577816434453
aF0.44542002393468255
asS'1100'
p1909
(lp1910
F67.72689229933705
aF0.5637965450110339
asS'2100'
p1911
(lp1912
F21.61570197417892
aF0.4514969084410826
asS'1000'
p1913
(lp1914
F77.21568821221484
aF0.6206389987381015
assS'CITo2Mu_Lam16TeVConLR_dimuon_BE'
p1915
(dp1916
S'2900'
p1917
(lp1918
F4.605448350691765
aF0.3071434027814365
asS'1300'
p1919
(lp1920
F51.28249405767447
aF0.4715577781812907
asS'600'
p1921
(lp1922
F214.95525289026818
aF1.637322974572359
asS'700'
p1923
(lp1924
F167.7912372276673
aF1.2578089228614038
asS'1200'
p1925
(lp1926
F60.75294297817464
aF0.524729617479735
asS'3000'
p1927
(lp1928
F3.875612538066893
aF0.29074684651175015
asS'2800'
p1929
(lp1930
F5.440889010440992
aF0.32146555607601135
asS'1900'
p1931
(lp1932
F20.764161579405137
aF0.3630140473106158
asS'2200'
p1933
(lp1934
F13.53990644660004
aF0.36046880781693214
asS'2300'
p1935
(lp1936
F11.718206111525436
aF0.35884992289201567
asS'3100'
p1937
(lp1938
F3.2404732402192615
aF0.2725417166514565
asS'1500'
p1939
(lp1940
F37.318899503769536
aF0.40451807964624725
asS'3300'
p1941
(lp1942
F2.2163699478006875
aF0.23206424547260912
asS'2400'
p1943
(lp1944
F10.119953517082788
aF0.35568945101574084
asS'400'
p1945
(lp1946
F375.3362720166392
aF3.2251992676219845
asS'1400'
p1947
(lp1948
F43.613978136062244
aF0.4324499479011905
asS'500'
p1949
(lp1950
F280.33677890496256
aF2.2271616063280097
asS'2500'
p1951
(lp1952
F8.715398453577565
aF0.35056853399929333
asS'2600'
p1953
(lp1954
F7.480238568958593
aF0.34322290018997964
asS'2700'
p1955
(lp1956
F6.394361402683295
aF0.3335245451701652
asS'3400'
p1957
(lp1958
F1.8106353892936893
aF0.21057057965329867
asS'1700'
p1959
(lp1960
F27.689746742196977
aF0.3733968677298547
asS'900'
p1961
(lp1962
F107.34075910867645
aF0.8214748523216132
asS'800'
p1963
(lp1964
F133.16711751045813
aF1.001320197226737
asS'1800'
p1965
(lp1966
F23.958116951053526
aF0.36644807611759406
asS'3500'
p1967
(lp1968
F1.4657426427842384
aF0.18879186168330087
asS'1600'
p1969
(lp1970
F32.086810104059154
aF0.38548987730820766
asS'3200'
p1971
(lp1972
F2.690315040467657
aF0.2528560352730698
asS'2000'
p1973
(lp1974
F18.010473072027303
aF0.36165365612978545
asS'1100'
p1975
(lp1976
F72.62481033141995
aF0.5960412607706694
asS'2100'
p1977
(lp1978
F15.621921884396905
aF0.3611400151895626
asS'1000'
p1979
(lp1980
F87.74784877535251
aF0.6916878543176557
ass.