(dp0
S'CITo2Mu_Lam16TeVConLR_dimuon_Moriond2017'
p1
(dp2
S'1'
p3
(lp4
F112.67437864017973
aI0
asS'0'
p5
(lp6
F5.058061054905693
aI0
asS'3'
p7
(lp8
F65.82013526702676
aI0
asS'2'
p9
(lp10
F113.38187394588618
aI0
asS'5'
p11
(lp12
F1.7740519785089142
aI0
asS'4'
p13
(lp14
F22.74379833681883
aI0
assS'CITo2Mu_Lam10TeVDesRR_dimuon_Moriond2017'
p15
(dp16
g3
(lp17
F-73.18277415446403
aI0
asg5
(lp18
F-92.55094191570402
aI0
asg7
(lp19
F151.25180683568288
aI0
asg9
(lp20
F57.44914086189175
aI0
asg11
(lp21
F5.350167032006545
aI0
asg13
(lp22
F52.61979692003808
aI0
assS'CITo2Mu_Lam28TeVDesRR_dimuon_Moriond2017'
p23
(dp24
g3
(lp25
F-23.035821629275688
aI0
asg5
(lp26
F-14.445743556580283
aI0
asg7
(lp27
F-4.037810689255082
aI0
asg9
(lp28
F-11.857729122464605
aI0
asg11
(lp29
F0.05651342395733912
aI0
asg13
(lp30
F-0.02604571890009355
aI0
assS'CITo2Mu_Lam34TeVDesLR_dimuon_Moriond2017'
p31
(dp32
g3
(lp33
F-16.58386191165789
aI0
asg5
(lp34
F15.101194225364452
aI0
asg7
(lp35
F-1.934548644693237
aI0
asg9
(lp36
F-12.385442653031077
aI0
asg11
(lp37
F0.04425879858893722
aI0
asg13
(lp38
F0.19434344080521804
aI0
assS'CITo2Mu_Lam10TeVDesLR_dimuon_Moriond2017'
p39
(dp40
g3
(lp41
F328.84632955759525
aI0
asg5
(lp42
F302.8233994905147
aI0
asg7
(lp43
F274.91654329647844
aI0
asg9
(lp44
F378.7827232165893
aI0
asg11
(lp45
F12.785510750757982
aI0
asg13
(lp46
F121.39609321414295
aI0
assS'CITo2Mu_Lam16TeVDesLL_dimuon_Moriond2017'
p47
(dp48
g3
(lp49
F36.269017834570946
aI0
asg5
(lp50
F-24.198247027553634
aI0
asg7
(lp51
F5.01452778423976
aI0
asg9
(lp52
F-15.201899860573747
aI0
asg11
(lp53
F0.6301434801318072
aI0
asg13
(lp54
F7.646694147627141
aI0
assS'CITo2Mu_Lam16TeVDesLR_dimuon_Moriond2017'
p55
(dp56
g3
(lp57
F-7.190051442735239
aI0
asg5
(lp58
F84.87026440157001
aI0
asg7
(lp59
F29.924515856245314
aI0
asg9
(lp60
F11.950848493493993
aI0
asg11
(lp61
F1.796031105562059
aI0
asg13
(lp62
F16.372554877226733
aI0
assS'CITo2Mu_Lam22TeVConLL_dimuon_Moriond2017'
p63
(dp64
g3
(lp65
F-7.307739293252666
aI0
asg5
(lp66
F19.39766800964162
aI0
asg7
(lp67
F15.77106055684547
aI0
asg9
(lp68
F31.844571249820603
aI0
asg11
(lp69
F0.3114603439203167
aI0
asg13
(lp70
F4.52373276857128
aI0
assS'CITo2Mu_Lam34TeVConLR_dimuon_Moriond2017'
p71
(dp72
g3
(lp73
F22.191069758528783
aI0
asg5
(lp74
F-10.983524706683966
aI0
asg7
(lp75
F6.721001890488367
aI0
asg9
(lp76
F18.87886784572555
aI0
asg11
(lp77
F0.13199560786849918
aI0
asg13
(lp78
F1.708611578813093
aI0
assS'CITo2Mu_Lam10TeVConLL_dimuon_Moriond2017'
p79
(dp80
g3
(lp81
F157.4928850599946
aI0
asg5
(lp82
F156.3428665169008
aI0
asg7
(lp83
F188.02484812577586
aI0
asg9
(lp84
F238.39696906618997
aI0
asg11
(lp85
F5.941575867734343
aI0
asg13
(lp86
F66.35781788116779
aI0
assS'CITo2Mu_Lam28TeVDesLR_dimuon_Moriond2017'
p87
(dp88
g3
(lp89
F-21.469317764389302
aI0
asg5
(lp90
F23.00160671787785
aI0
asg7
(lp91
F-1.1486965095372241
aI0
asg9
(lp92
F-15.270752218256064
aI0
asg11
(lp93
F0.135603415526449
aI0
asg13
(lp94
F0.9694289947763091
aI0
assS'CITo2Mu_Lam16TeVConLL_dimuon_Moriond2017'
p95
(dp96
g3
(lp97
F3.6569519523362715
aI0
asg5
(lp98
F42.33236648851607
aI0
asg7
(lp99
F39.936434738678216
aI0
asg9
(lp100
F67.84085755449325
aI0
asg11
(lp101
F0.9905807138035968
aI0
asg13
(lp102
F12.580983915082676
aI0
assS'CITo2Mu_Lam22TeVDesLL_dimuon_Moriond2017'
p103
(dp104
g3
(lp105
F18.260523098507406
aI0
asg5
(lp106
F-14.521199420223638
aI0
asg7
(lp107
F-3.0764769166944603
aI0
asg9
(lp108
F-16.783085481401145
aI0
asg11
(lp109
F0.14106290526365373
aI0
asg13
(lp110
F1.1613622046382708
aI0
assS'CITo2Mu_Lam28TeVConLL_dimuon_Moriond2017'
p111
(dp112
g3
(lp113
F-6.962760311749776
aI0
asg5
(lp114
F11.181224994049444
aI0
asg7
(lp115
F8.31655846365156
aI0
asg9
(lp116
F18.588055573340966
aI0
asg11
(lp117
F0.13591997528144495
aI0
asg13
(lp118
F2.227572354906781
aI0
assS'CITo2Mu_Lam34TeVDesRR_dimuon_Moriond2017'
p119
(dp120
g3
(lp121
F-16.060077734423885
aI0
asg5
(lp122
F-9.881372434832429
aI0
asg7
(lp123
F-3.482842545696961
aI0
asg9
(lp124
F-8.654070912028942
aI0
asg11
(lp125
F0.018356608440284417
aI0
asg13
(lp126
F-0.23264635831046698
aI0
assS'CITo2Mu_Lam22TeVDesLR_dimuon_Moriond2017'
p127
(dp128
g3
(lp129
F-25.468333997560308
aI0
asg5
(lp130
F39.55219174368267
aI0
asg7
(lp131
F3.455166611141422
aI0
asg9
(lp132
F-15.402600113733513
aI0
asg11
(lp133
F0.4391327271983203
aI0
asg13
(lp134
F3.700907947534626
aI0
assS'CITo2Mu_Lam28TeVDesLL_dimuon_Moriond2017'
p135
(dp136
g3
(lp137
F11.02823719157891
aI0
asg5
(lp138
F-9.421395287433825
aI0
asg7
(lp139
F-3.4187595823284695
aI0
asg9
(lp140
F-12.679826403990546
aI0
asg11
(lp141
F0.036095974453873934
aI0
asg13
(lp142
F-0.047769684974075854
aI0
assS'CITo2Mu_Lam22TeVConLR_dimuon_Moriond2017'
p143
(dp144
g3
(lp145
F55.606207646012535
aI0
asg5
(lp146
F-14.816426709207917
aI0
asg7
(lp147
F23.462068527672876
aI0
asg9
(lp148
F50.96731884798345
aI0
asg11
(lp149
F0.5613356551705916
aI0
asg13
(lp150
F7.220158510460463
aI0
assS'CITo2Mu_Lam22TeVConRR_dimuon_Moriond2017'
p151
(dp152
g3
(lp153
F41.374538134089676
aI0
asg5
(lp154
F26.485243449956215
aI0
asg7
(lp155
F17.570502471872096
aI0
asg9
(lp156
F32.920586630317814
aI0
asg11
(lp157
F0.32049494035240067
aI0
asg13
(lp158
F4.435331611385855
aI0
assS'CITo2Mu_Lam10TeVDesLL_dimuon_Moriond2017'
p159
(dp160
g3
(lp161
F107.64400028652585
aI0
asg5
(lp162
F-34.34518976778077
aI0
asg7
(lp163
F104.65846732292376
aI0
asg9
(lp164
F101.20687848309393
aI0
asg11
(lp165
F4.694336045285007
aI0
asg13
(lp166
F65.78711157638672
aI0
assS'CITo2Mu_Lam34TeVConLL_dimuon_Moriond2017'
p167
(dp168
g3
(lp169
F-5.58527179153873
aI0
asg5
(lp170
F7.303593263688299
aI0
asg7
(lp171
F5.140432583941205
aI0
asg9
(lp172
F12.229298829599031
aI0
asg11
(lp173
F0.07233691167958324
aI0
asg13
(lp174
F1.3117545724419624
aI0
assS'CITo2Mu_Lam16TeVDesRR_dimuon_Moriond2017'
p175
(dp176
g3
(lp177
F-57.89473887023428
aI0
asg5
(lp178
F-41.801462882051055
aI0
asg7
(lp179
F9.178443478972866
aI0
asg9
(lp180
F-18.597492415402712
aI0
asg11
(lp181
F0.7510658606035548
aI0
asg13
(lp182
F6.142222414918718
aI0
assS'CITo2Mu_Lam34TeVConRR_dimuon_Moriond2017'
p183
(dp184
g3
(lp185
F16.873791793865394
aI0
asg5
(lp186
F10.341831575310607
aI0
asg7
(lp187
F6.09520679216989
aI0
asg9
(lp188
F12.117216552006028
aI0
asg11
(lp189
F0.06962767897143557
aI0
asg13
(lp190
F1.1660051451652862
aI0
assS'CITo2Mu_Lam10TeVConRR_dimuon_Moriond2017'
p191
(dp192
g3
(lp193
F234.54778147461138
aI0
asg5
(lp194
F185.24212155309397
aI0
asg7
(lp195
F181.35675914742933
aI0
asg9
(lp196
F286.56571404458396
aI0
asg11
(lp197
F6.4810369515069866
aI0
asg13
(lp198
F74.23335193640459
aI0
assS'CITo2Mu_Lam10TeVConLR_dimuon_Moriond2017'
p199
(dp200
g3
(lp201
F352.4008135756693
aI0
asg5
(lp202
F293.3073888054482
aI0
asg7
(lp203
F350.44807105236686
aI0
asg9
(lp204
F434.5622015046068
aI0
asg11
(lp205
F10.584239258635662
aI0
asg13
(lp206
F135.31290101610233
aI0
assS'CITo2Mu_Lam22TeVDesRR_dimuon_Moriond2017'
p207
(dp208
g3
(lp209
F-35.30304062076141
aI0
asg5
(lp210
F-23.012083164292108
aI0
asg7
(lp211
F-3.1160031153621333
aI0
asg9
(lp212
F-16.391371920961205
aI0
asg11
(lp213
F0.1834178580231021
aI0
asg13
(lp214
F0.9468315719382785
aI0
assS'CITo2Mu_Lam28TeVConRR_dimuon_Moriond2017'
p215
(dp216
g3
(lp217
F25.106541756757792
aI0
asg5
(lp218
F15.625412424688648
aI0
asg7
(lp219
F9.622890538462265
aI0
asg9
(lp220
F18.706282705141234
aI0
asg11
(lp221
F0.13519650224860413
aI0
asg13
(lp222
F2.067459018750517
aI0
assS'CITo2Mu_Lam16TeVConRR_dimuon_Moriond2017'
p223
(dp224
g3
(lp225
F81.3308334944561
aI0
asg5
(lp226
F55.24266140459099
aI0
asg7
(lp227
F41.94532779317503
aI0
asg9
(lp228
F73.76740996676142
aI0
asg11
(lp229
F1.0525747487750572
aI0
asg13
(lp230
F13.16613030495081
aI0
assS'CITo2Mu_Lam28TeVConLR_dimuon_Moriond2017'
p231
(dp232
g3
(lp233
F33.26997050596242
aI0
asg5
(lp234
F-13.786397238690597
aI0
asg7
(lp235
F11.473257366582068
aI0
asg9
(lp236
F29.076490068709234
aI0
asg11
(lp237
F0.24654166924357823
aI0
asg13
(lp238
F3.181637621953188
aI0
assS'CITo2Mu_Lam34TeVDesLL_dimuon_Moriond2017'
p239
(dp240
g3
(lp241
F7.393149197174466
aI0
asg5
(lp242
F-6.550428459017439
aI0
asg7
(lp243
F-2.853624827290666
aI0
asg9
(lp244
F-9.415933013355982
aI0
asg11
(lp245
F0.006527108151263637
aI0
asg13
(lp246
F-0.3016608125586342
aI0
ass.