(dp0
S'CITo2Mu_Lam16TeVConLR_dimuon_Moriond2017'
p1
(dp2
S'1'
p3
(lp4
F102.14380558429593
aI0
asS'0'
p5
(lp6
F6.824097230713278
aI0
asS'3'
p7
(lp8
F65.7145504150904
aI0
asS'2'
p9
(lp10
F110.26813309551153
aI0
asS'5'
p11
(lp12
F1.8128444269600266
aI0
asS'4'
p13
(lp14
F22.623245675241623
aI0
assS'CITo2Mu_Lam10TeVDesRR_dimuon_Moriond2017'
p15
(dp16
g3
(lp17
F-68.05097940685891
aI0
asg5
(lp18
F-113.6824033441635
aI0
asg7
(lp19
F148.8390799992444
aI0
asg9
(lp20
F132.45547058221774
aI0
asg11
(lp21
F6.011241523838326
aI0
asg13
(lp22
F52.32187487073532
aI0
assS'CITo2Mu_Lam28TeVDesRR_dimuon_Moriond2017'
p23
(dp24
g3
(lp25
F-19.858610890321074
aI0
asg5
(lp26
F-22.368547855347742
aI0
asg7
(lp27
F-4.163531694118369
aI0
asg9
(lp28
F-15.552442686368522
aI0
asg11
(lp29
F0.05689248347415053
aI0
asg13
(lp30
F-0.029185111182355783
aI0
assS'CITo2Mu_Lam34TeVDesLR_dimuon_Moriond2017'
p31
(dp32
g3
(lp33
F-15.031166274719226
aI0
asg5
(lp34
F13.356784843740343
aI0
asg7
(lp35
F-1.9288771052234779
aI0
asg9
(lp36
F-11.713614567108209
aI0
asg11
(lp37
F0.05212050547214367
aI0
asg13
(lp38
F0.17559537455902152
aI0
assS'CITo2Mu_Lam10TeVDesLR_dimuon_Moriond2017'
p39
(dp40
g3
(lp41
F251.2501725348875
aI0
asg5
(lp42
F303.6989573823737
aI0
asg7
(lp43
F266.3168865106118
aI0
asg9
(lp44
F319.78370354874164
aI0
asg11
(lp45
F13.175090262644096
aI0
asg13
(lp46
F124.11318789533087
aI0
assS'CITo2Mu_Lam16TeVDesLL_dimuon_Moriond2017'
p47
(dp48
g3
(lp49
F31.307276721651647
aI0
asg5
(lp50
F-23.886886067971545
aI0
asg7
(lp51
F5.243337121248921
aI0
asg9
(lp52
F-13.800651829874653
aI0
asg11
(lp53
F0.6500456022040604
aI0
asg13
(lp54
F7.775087293382219
aI0
assS'CITo2Mu_Lam16TeVDesLR_dimuon_Moriond2017'
p55
(dp56
g3
(lp57
F-12.603993681734892
aI0
asg5
(lp58
F79.72946461231822
aI0
asg7
(lp59
F28.82324493625108
aI0
asg9
(lp60
F6.301972256700481
aI0
asg11
(lp61
F1.8703762792645735
aI0
asg13
(lp62
F16.66942894846425
aI0
assS'CITo2Mu_Lam22TeVConLL_dimuon_Moriond2017'
p63
(dp64
g3
(lp65
F-5.0507313691229
aI0
asg5
(lp66
F20.016970883706108
aI0
asg7
(lp67
F15.741861275737229
aI0
asg9
(lp68
F26.781618500814602
aI0
asg11
(lp69
F0.31708514030718554
aI0
asg13
(lp70
F4.499446268813578
aI0
assS'CITo2Mu_Lam34TeVConLR_dimuon_Moriond2017'
p71
(dp72
g3
(lp73
F19.05659654165595
aI0
asg5
(lp74
F-9.364708680225704
aI0
asg7
(lp75
F6.654541299259492
aI0
asg9
(lp76
F17.751931253481473
aI0
asg11
(lp77
F0.12956960043161792
aI0
asg13
(lp78
F1.7351182928842217
aI0
assS'CITo2Mu_Lam10TeVConLL_dimuon_Moriond2017'
p79
(dp80
g3
(lp81
F162.60963092145596
aI0
asg5
(lp82
F154.86275825324674
aI0
asg7
(lp83
F184.40311508180383
aI0
asg9
(lp84
F246.66996099700646
aI0
asg11
(lp85
F6.328760330868758
aI0
asg13
(lp86
F66.96135556524489
aI0
assS'CITo2Mu_Lam28TeVDesLR_dimuon_Moriond2017'
p87
(dp88
g3
(lp89
F-19.727474789343205
aI0
asg5
(lp90
F20.550082942922018
aI0
asg7
(lp91
F-1.1899961387418045
aI0
asg9
(lp92
F-14.66279526368686
aI0
asg11
(lp93
F0.1489073266254453
aI0
asg13
(lp94
F0.9585995344522704
aI0
assS'CITo2Mu_Lam16TeVConLL_dimuon_Moriond2017'
p95
(dp96
g3
(lp97
F7.397983257076021
aI0
asg5
(lp98
F43.09757561983406
aI0
asg7
(lp99
F39.565908111144275
aI0
asg9
(lp100
F61.23833962616493
aI0
asg11
(lp101
F1.033827172414944
aI0
asg13
(lp102
F12.60039681351128
aI0
assS'CITo2Mu_Lam22TeVDesLL_dimuon_Moriond2017'
p103
(dp104
g3
(lp105
F15.693534811314294
aI0
asg5
(lp106
F-14.446779925215651
aI0
asg7
(lp107
F-3.0857296653358617
aI0
asg9
(lp108
F-13.258996602975913
aI0
asg11
(lp109
F0.15327333280530525
aI0
asg13
(lp110
F1.2262249138649142
aI0
assS'CITo2Mu_Lam28TeVConLL_dimuon_Moriond2017'
p111
(dp112
g3
(lp113
F-5.495592158460681
aI0
asg5
(lp114
F11.62046079191532
aI0
asg7
(lp115
F8.342769625028126
aI0
asg9
(lp116
F15.045841097587129
aI0
asg11
(lp117
F0.13481719888197402
aI0
asg13
(lp118
F2.203413916927711
aI0
assS'CITo2Mu_Lam34TeVDesRR_dimuon_Moriond2017'
p119
(dp120
g3
(lp121
F-13.824801023996997
aI0
asg5
(lp122
F-15.42141679735846
aI0
asg7
(lp123
F-3.5622987348807698
aI0
asg9
(lp124
F-11.582975072925592
aI0
asg11
(lp125
F0.01593535261590754
aI0
asg13
(lp126
F-0.2336631873953796
aI0
assS'CITo2Mu_Lam22TeVDesLR_dimuon_Moriond2017'
p127
(dp128
g3
(lp129
F-24.35534724124443
aI0
asg5
(lp130
F35.95737558368728
aI0
asg7
(lp131
F3.2333193312494473
aI0
asg9
(lp132
F-15.61168712216363
aI0
asg11
(lp133
F0.4660240905423565
aI0
asg13
(lp134
F3.735827689659968
aI0
assS'CITo2Mu_Lam28TeVDesLL_dimuon_Moriond2017'
p135
(dp136
g3
(lp137
F9.458740641598524
aI0
asg5
(lp138
F-9.399395169135687
aI0
asg7
(lp139
F-3.4590261548908785
aI0
asg9
(lp140
F-9.76609488181407
aI0
asg11
(lp141
F0.04408062563467084
aI0
asg13
(lp142
F-0.008535267776797806
aI0
assS'CITo2Mu_Lam22TeVConLR_dimuon_Moriond2017'
p143
(dp144
g3
(lp145
F48.87665509465205
aI0
asg5
(lp146
F-12.108065248627554
aI0
asg7
(lp147
F23.34396650067707
aI0
asg9
(lp148
F48.68828319333062
aI0
asg11
(lp149
F0.5659329981742649
aI0
asg13
(lp150
F7.2332829274701895
aI0
assS'CITo2Mu_Lam22TeVConRR_dimuon_Moriond2017'
p151
(dp152
g3
(lp153
F36.08945382072511
aI0
asg5
(lp154
F40.55135935999306
aI0
asg7
(lp155
F17.809157525661853
aI0
asg9
(lp156
F38.19907325582983
aI0
asg11
(lp157
F0.3302728636272999
aI0
asg13
(lp158
F4.400302598343415
aI0
assS'CITo2Mu_Lam10TeVDesLL_dimuon_Moriond2017'
p159
(dp160
g3
(lp161
F94.02187473957417
aI0
asg5
(lp162
F-32.10129772200003
aI0
asg7
(lp163
F107.33228638507997
aI0
asg9
(lp164
F60.189105892847294
aI0
asg11
(lp165
F4.718299295004594
aI0
asg13
(lp166
F66.16464691564023
aI0
assS'CITo2Mu_Lam34TeVConLL_dimuon_Moriond2017'
p167
(dp168
g3
(lp169
F-4.56424834239931
aI0
asg5
(lp170
F7.621521729098504
aI0
asg7
(lp171
F5.173784996174014
aI0
asg9
(lp172
F9.68027557718068
aI0
asg11
(lp173
F0.06997806532565043
aI0
asg13
(lp174
F1.2921432115308242
aI0
assS'CITo2Mu_Lam16TeVDesRR_dimuon_Moriond2017'
p175
(dp176
g3
(lp177
F-50.49407027675636
aI0
asg5
(lp178
F-61.23774319990753
aI0
asg7
(lp179
F8.625331902942918
aI0
asg9
(lp180
F-17.665884230334825
aI0
asg11
(lp181
F0.8297427623602542
aI0
asg13
(lp182
F6.100415714621899
aI0
assS'CITo2Mu_Lam34TeVConRR_dimuon_Moriond2017'
p183
(dp184
g3
(lp185
F14.58481040019376
aI0
asg5
(lp186
F16.62878509273014
aI0
asg7
(lp187
F6.177167816942749
aI0
asg9
(lp188
F14.910299993618935
aI0
asg11
(lp189
F0.07687515386951385
aI0
asg13
(lp190
F1.156271182763028
aI0
assS'CITo2Mu_Lam10TeVConRR_dimuon_Moriond2017'
p191
(dp192
g3
(lp193
F214.78640872956737
aI0
asg5
(lp194
F222.95442319984522
aI0
asg7
(lp195
F183.88333438219084
aI0
asg9
(lp196
F267.5899415014107
aI0
asg11
(lp197
F6.287546373742586
aI0
asg13
(lp198
F73.68718134039838
aI0
assS'CITo2Mu_Lam10TeVConLR_dimuon_Moriond2017'
p199
(dp200
g3
(lp201
F344.0296709929386
aI0
asg5
(lp202
F269.39053116966556
aI0
asg7
(lp203
F351.17560756087056
aI0
asg9
(lp204
F436.7223246883525
aI0
asg11
(lp205
F10.938730017640701
aI0
asg13
(lp206
F133.77192514550185
aI0
assS'CITo2Mu_Lam22TeVDesRR_dimuon_Moriond2017'
p207
(dp208
g3
(lp209
F-30.526778220231108
aI0
asg5
(lp210
F-35.078387908665945
aI0
asg7
(lp211
F-3.346369414206549
aI0
asg9
(lp212
F-20.429517623371225
aI0
asg11
(lp213
F0.19635349894128407
aI0
asg13
(lp214
F0.9366291188862585
aI0
assS'CITo2Mu_Lam28TeVConRR_dimuon_Moriond2017'
p215
(dp216
g3
(lp217
F21.769856808361396
aI0
asg5
(lp218
F24.695070207357503
aI0
asg7
(lp219
F9.752791435310805
aI0
asg9
(lp220
F22.530851802773782
aI0
asg11
(lp221
F0.1442937278366071
aI0
asg13
(lp222
F2.050621070693774
aI0
assS'CITo2Mu_Lam16TeVConRR_dimuon_Moriond2017'
p223
(dp224
g3
(lp225
F71.86586558950819
aI0
asg5
(lp226
F79.08512719145051
aI0
asg7
(lp227
F42.520790240023906
aI0
asg9
(lp228
F79.71324830267702
aI0
asg11
(lp229
F1.049243457103346
aI0
asg13
(lp230
F13.06578123712691
aI0
assS'CITo2Mu_Lam28TeVConLR_dimuon_Moriond2017'
p231
(dp232
g3
(lp233
F28.807912594574418
aI0
asg5
(lp234
F-11.643793363173927
aI0
asg7
(lp235
F11.383834774502915
aI0
asg9
(lp236
F27.50187642831014
aI0
asg11
(lp237
F0.2451569394049085
aI0
asg13
(lp238
F3.210133689347532
aI0
assS'CITo2Mu_Lam34TeVDesLL_dimuon_Moriond2017'
p239
(dp240
g3
(lp241
F6.334076599011496
aI0
asg5
(lp242
F-6.5439381553167095
aI0
asg7
(lp243
F-2.8931002929907095
aI0
asg9
(lp244
F-7.179936270167218
aI0
asg11
(lp245
F0.012099545704122909
aI0
asg13
(lp246
F-0.27533663496598537
aI0
ass.