(dp0
S'CITo2Mu_Lam16TeVConRR_dimuon_Moriond2017_BB'
p1
(dp2
S'1'
p3
(lp4
F41.33488154538327
aF0.1306888152832894
asS'0'
p5
(lp6
F17.254415337830892
aF0.11549168351402872
asS'3'
p7
(lp8
F35.620473007611245
aF0.09532210049358233
asS'2'
p9
(lp10
F44.279000899858204
aF0.1391872784221096
asS'5'
p11
(lp12
F2.357629171080693
aF0.4139236694797168
asS'4'
p13
(lp14
F18.51960417091788
aF0.12974005140925837
assS'CITo2Mu_Lam16TeVConRR_dimuon_Moriond2017_BE'
p15
(dp16
g3
(lp17
F63.93345675664716
aF0.11778470606021257
asg5
(lp18
F58.686033446665306
aF0.10456798957696797
asg7
(lp19
F38.24387891964432
aF0.09252492097246423
asg9
(lp20
F64.43259799235437
aF0.12896623644032362
asg11
(lp21
F1.0215306588239768
aF0.3638530854634933
asg13
(lp22
F12.825680984233562
aF0.13758773328297752
assS'CITo2Mu_Lam16TeVConLR_dimuon_Moriond2017_BB'
p23
(dp24
g3
(lp25
F65.19727310965538
aF0.13154819250453176
asg5
(lp26
F34.27749629294169
aF0.1158682561616331
asg7
(lp27
F60.5344022534372
aF0.0996254458980784
asg9
(lp28
F62.111214259096926
aF0.14005329804277455
asg11
(lp29
F4.617202822183195
aF0.3930624790944712
asg13
(lp30
F33.20657361363713
aF0.13252162515803279
assS'CITo2Mu_Lam16TeVConLR_dimuon_Moriond2017_BE'
p31
(dp32
g3
(lp33
F87.74578295439915
aF0.11947400552274712
asg5
(lp34
F91.16863899420764
aF0.1055782060859765
asg7
(lp35
F62.413393674979034
aF0.09699172584078389
asg9
(lp36
F102.53223393088098
aF0.1307924628276453
asg11
(lp37
F1.9022397069636885
aF0.3500402333831792
asg13
(lp38
F22.934405790849688
aF0.1412379799450595
assS'CITo2Mu_Lam16TeVDesRR_dimuon_Moriond2017_BE'
p39
(dp40
g3
(lp41
F-52.74780644739144
aF0.11618863126265869
asg5
(lp42
F-49.05452014069624
aF0.10327424140167775
asg7
(lp43
F2.5265354434930174
aF0.08847947374779956
asg9
(lp44
F-17.394418325501476
aF0.12639157866939527
asg11
(lp45
F0.7865278237942176
aF0.35948192020153646
asg13
(lp46
F6.147456832952884
aF0.1322573258044826
assS'CITo2Mu_Lam16TeVDesRR_dimuon_Moriond2017_BB'
p47
(dp48
g3
(lp49
F-30.448847574658885
aF0.12817429736165742
asg5
(lp50
F-32.410294995660706
aF0.11421134941441002
asg7
(lp51
F6.756367821511546
aF0.09094854934396873
asg9
(lp52
F-10.146162233252397
aF0.13625103402347166
asg11
(lp53
F1.8383929983736216
aF0.3259323089200203
asg13
(lp54
F10.685332425154005
aF0.1250271059180121
assS'CITo2Mu_Lam10TeVLR_dimuon_Moriond2017_BE'
p55
(dp56
g3
(lp57
F215.6639377200554
aF0.12090318915519446
asg5
(lp58
F132.09225273157915
aF0.10687830448020644
asg7
(lp59
F304.44721690587215
aF0.0956879769292256
asg9
(lp60
F372.0074360333172
aF0.12201564960020617
asg11
(lp61
F11.710877107703089
aF0.3495230139590412
asg13
(lp62
F131.52070176399158
aF0.1389925559022446
assS'CITo2Mu_Lam10TeVDesRR_dimuon_Moriond2017_BE'
p63
(dp64
g3
(lp65
F-74.12982886198404
aF0.11983317706673588
asg5
(lp66
F-93.18772658028843
aF0.10576782453264394
asg7
(lp67
F100.5172193852775
aF0.08849653725302352
asg9
(lp68
F45.43027702538518
aF0.1292646586606961
asg11
(lp69
F5.69470536254136
aF0.35732688340491614
asg13
(lp70
F56.093516692788164
aF0.13100366802395144
assS'CITo2Mu_Lam10TeVDesRR_dimuon_Moriond2017_BB'
p71
(dp72
g3
(lp73
F-33.91067197948803
aF0.13272312926175142
asg5
(lp74
F-60.072365842112504
aF0.11755419062348463
asg7
(lp75
F108.87575081210407
aF0.09085292062372535
asg9
(lp76
F43.59211268648991
aF0.13944689207345826
asg11
(lp77
F13.037981426653166
aF0.32499557328620754
asg13
(lp78
F86.95205628852261
aF0.12431620018936063
assS'CITo2Mu_Lam10TeVLR_dimuon_Moriond2017_BB'
p79
(dp80
g3
(lp81
F147.41129238623478
aF0.1334341742291989
asg5
(lp82
F53.35841320546626
aF0.11838336568973397
asg7
(lp83
F302.0798050854381
aF0.0979848284536176
asg9
(lp84
F263.0849209331041
aF0.14080311195877385
asg11
(lp85
F28.065745962489324
aF0.3781002190198175
asg13
(lp86
F193.7605083103233
aF0.1308334519533556
assS'CITo2Mu_Lam28TeVLL_dimuon_Moriond2017_BB'
p87
(dp88
g3
(lp89
F1.0762460884542975
aF0.1292950376397859
asg5
(lp90
F0.6749669003989425
aF0.11474731883441114
asg7
(lp91
F1.571559272680421
aF0.09243919781249922
asg9
(lp92
F-0.373389915842381
aF0.13594806961528655
asg11
(lp93
F0.21792956324846044
aF0.2896244775167867
asg13
(lp94
F1.3942471974718504
aF0.11217632430170793
assS'CITo2Mu_Lam22TeVDesLR_dimuon_Moriond2017_BB'
p95
(dp96
g3
(lp97
F-13.790127791062446
aF0.12822048401125014
asg5
(lp98
F-16.990603201409726
aF0.11438608038266293
asg7
(lp99
F3.2983384584857447
aF0.09680506871840563
asg9
(lp100
F7.399585165837607
aF0.1395423476536275
asg11
(lp101
F1.038837091180264
aF0.36506354593081347
asg13
(lp102
F5.62700270346573
aF0.13033433332952948
assS'CITo2Mu_Lam22TeVDesLR_dimuon_Moriond2017_BE'
p103
(dp104
g3
(lp105
F-12.702375270509151
aF0.11704863529238384
asg5
(lp106
F-24.37197435148414
aF0.10349847200255734
asg7
(lp107
F2.7216823033685316
aF0.09469512805417282
asg9
(lp108
F12.833501389875494
aF0.112575768717821
asg11
(lp109
F0.42398218833499673
aF0.3539092059820809
asg13
(lp110
F3.53437339469372
aF0.13841923085818128
assS'CITo2Mu_Lam28TeVLL_dimuon_Moriond2017_BE'
p111
(dp112
g3
(lp113
F2.3833405547583197
aF0.11747919754462219
asg5
(lp114
F2.171955975466858
aF0.10381527351129155
asg7
(lp115
F1.610740330752165
aF0.09008256536537891
asg9
(lp116
F0.5160617362979281
aF0.12648476087094332
asg11
(lp117
F0.0829207426629331
aF0.31148385303910825
asg13
(lp118
F0.8580573026067384
aF0.12094512392226403
assS'CITo2Mu_Lam22TeVLL_dimuon_Moriond2017_BB'
p119
(dp120
g3
(lp121
F2.9019887765676344
aF0.12944232680316975
asg5
(lp122
F1.6782788970710385
aF0.11484889314500833
asg7
(lp123
F5.029441453614822
aF0.0925980988915869
asg9
(lp124
F1.330844249190875
aF0.13612685709484967
asg11
(lp125
F0.577835926220197
aF0.2851023049547369
asg13
(lp126
F3.8700060154298144
aF0.11218969170986318
assS'CITo2Mu_Lam22TeVLL_dimuon_Moriond2017_BE'
p127
(dp128
g3
(lp129
F5.473426106238662
aF0.11758963292758892
asg5
(lp130
F4.373137296929372
aF0.1038902092632388
asg7
(lp131
F5.130210026913712
aF0.09023945791843761
asg9
(lp132
F3.2743602634838567
aF0.1266258983570574
asg11
(lp133
F0.22818022562261886
aF0.30100195957042053
asg13
(lp134
F2.4991115622703908
aF0.12109853967080778
assS'CITo2Mu_Lam16TeVRR_dimuon_Moriond2017_BE'
p135
(dp136
g3
(lp137
F5.59282515462786
aF0.11698666866143563
asg5
(lp138
F4.815756652984533
aF0.10392111548932287
asg7
(lp139
F20.385207181568667
aF0.0905021973601319
asg9
(lp140
F23.51908983342645
aF0.12767890755485944
asg11
(lp141
F0.9040292413090971
aF0.3616675028325149
asg13
(lp142
F9.486568908593224
aF0.13492252954373007
assS'CITo2Mu_Lam40TeVDesLR_dimuon_Moriond2017_BB'
p143
(dp144
g3
(lp145
F-5.405129394991263
aF0.12796538577530842
asg5
(lp146
F-5.792953312083
aF0.11421960011563705
asg7
(lp147
F-1.8297797154603117
aF0.09634100709848517
asg9
(lp148
F0.14266551911609326
aF0.13929218422581197
asg11
(lp149
F0.0656640712271621
aF0.3784600569218326
asg13
(lp150
F-0.06670136441075147
aF0.13061968514372765
assS'CITo2Mu_Lam40TeVDesLR_dimuon_Moriond2017_BE'
p151
(dp152
g3
(lp153
F-5.53088194471934
aF0.11686481289282116
asg5
(lp154
F-8.344385564793356
aF0.1033749890667979
asg7
(lp155
F-2.0332169402523803
aF0.09424826390804611
asg9
(lp156
F1.1743455865572514
aF0.11256015498672625
asg11
(lp157
F0.020914146501246567
aF0.3816933241930066
asg13
(lp158
F-0.12051012853265197
aF0.13848311315558234
assS'CITo2Mu_Lam16TeVRR_dimuon_Moriond2017_BB'
p159
(dp160
g3
(lp161
F5.443016985362192
aF0.1294315563224734
asg5
(lp162
F-7.577939828914907
aF0.11485151646421937
asg7
(lp163
F21.188420414561396
aF0.09313532491877553
asg9
(lp164
F17.066419333302903
aF0.13771915622279063
asg11
(lp165
F2.0980110847271574
aF0.3699279891998686
asg13
(lp166
F14.602468298035943
aF0.12738357866363526
assS'CITo2Mu_Lam16TeVLL_dimuon_Moriond2017_BB'
p167
(dp168
g3
(lp169
F10.585121621283577
aF0.13003514389411852
asg5
(lp170
F5.747001335720256
aF0.11526655205318545
asg7
(lp171
F20.43846597776781
aF0.09293584453101947
asg9
(lp172
F11.033925935313121
aF0.13677437510259793
asg11
(lp173
F2.0818022965805363
aF0.2829979456641184
asg13
(lp174
F14.408269061032508
aF0.11173703548894054
assS'CITo2Mu_Lam16TeVLL_dimuon_Moriond2017_BE'
p175
(dp176
g3
(lp177
F17.445245855513008
aF0.11803520510844479
asg5
(lp178
F12.030011381259555
aF0.10419865030432701
asg7
(lp179
F20.79312522535291
aF0.0906203046043269
asg9
(lp180
F16.9207078301896
aF0.12715086111733825
asg11
(lp181
F0.8444378170912923
aF0.2953180538905597
asg13
(lp182
F9.60584190524348
aF0.12044862450318677
assS'CITo2Mu_Lam10TeVDesLL_dimuon_Moriond2017_BB'
p183
(dp184
g3
(lp185
F14.019695552064718
aF0.1338880343670813
asg5
(lp186
F-30.279974804016092
aF0.1171725410204498
asg7
(lp187
F114.57801213486849
aF0.09107760975202807
asg9
(lp188
F66.75442979871858
aF0.13918836994792955
asg11
(lp189
F12.84077187109213
aF0.35678980683687145
asg13
(lp190
F86.78618238493507
aF0.12433364993295512
assS'CITo2Mu_Lam28TeVDesRR_dimuon_Moriond2017_BB'
p191
(dp192
g3
(lp193
F-12.367462175111427
aF0.12737577943108894
asg5
(lp194
F-11.84383519293408
aF0.11367418702085769
asg7
(lp195
F-2.8366792638514937
aF0.09019686453454503
asg9
(lp196
F-7.143713518262842
aF0.13522525375116184
asg11
(lp197
F0.14150514758535118
aF0.33490216440555204
asg13
(lp198
F0.20733431556256843
aF0.1257661570778478
assS'CITo2Mu_Lam28TeVDesRR_dimuon_Moriond2017_BE'
p199
(dp200
g3
(lp201
F-20.57749387751062
aF0.11557166392497356
asg5
(lp202
F-17.801464966332105
aF0.10287644419615788
asg7
(lp203
F-4.353851143963361
aF0.08765192909753566
asg9
(lp204
F-10.633473940362649
aF0.12553179343467125
asg11
(lp205
F0.05411973300979438
aF0.37938597855976236
asg13
(lp206
F-0.21487969279281138
aF0.13298014840645725
assS'CITo2Mu_Lam10TeVDesLL_dimuon_Moriond2017_BE'
p207
(dp208
g3
(lp209
F25.873542605704188
aF0.12072298648675504
asg5
(lp210
F-29.266203683199137
aF0.10567091011538832
asg7
(lp211
F102.27467760163393
aF0.0885505053741309
asg9
(lp212
F25.75693861420723
aF0.12842385524719496
asg11
(lp213
F5.255663731449947
aF0.3386864995639525
asg13
(lp214
F57.16638674773474
aF0.13189257897382983
assS'CITo2Mu_Lam40TeVDesLL_dimuon_Moriond2017_BE'
p215
(dp216
g3
(lp217
F-4.251371212561708
aF0.11701396676302066
asg5
(lp218
F-4.807573763592927
aF0.10293326602289107
asg7
(lp219
F-2.690329248741598
aF0.08759402382538092
asg9
(lp220
F-7.171383089400422
aF0.12449656956963394
asg11
(lp221
F-0.008339124306922997
aF0.3884436255875921
asg13
(lp222
F-0.37901377650282564
aF0.1330105095519917
assS'CITo2Mu_Lam28TeVLR_dimuon_Moriond2017_BE'
p223
(dp224
g3
(lp225
F6.170939612126972
aF0.11793337721874392
asg5
(lp226
F5.079081962734676
aF0.10430135174803962
asg7
(lp227
F4.35606610203358
aF0.09559636058285047
asg9
(lp228
F14.204846596305174
aF0.1214536062538758
asg11
(lp229
F0.18739199984087615
aF0.3579533348861391
asg13
(lp230
F1.8998548714791326
aF0.140319443416081
assS'CITo2Mu_Lam28TeVLR_dimuon_Moriond2017_BB'
p231
(dp232
g3
(lp233
F3.329491723498961
aF0.12945301415992927
asg5
(lp234
F-1.2158660287274756
aF0.11479945929788782
asg7
(lp235
F4.24796328255421
aF0.09798225193526307
asg9
(lp236
F7.211111868372811
aF0.13939182685423973
asg11
(lp237
F0.45663161251804263
aF0.3816066930139166
asg13
(lp238
F2.8789937357720796
aF0.13187129355356492
assS'CITo2Mu_Lam40TeVDesLL_dimuon_Moriond2017_BB'
p239
(dp240
g3
(lp241
F-3.1405141802395065
aF0.128903967603657
asg5
(lp242
F-4.049054081418831
aF0.11346310395794132
asg7
(lp243
F-1.6901947639615145
aF0.09035441827232245
asg9
(lp244
F-2.758233775759237
aF0.1353466698388542
asg11
(lp245
F-0.001638599343607175
aF0.38733589051841366
asg13
(lp246
F-0.3373383613958931
aF0.12528357342133747
assS'CITo2Mu_Lam28TeVRR_dimuon_Moriond2017_BB'
p247
(dp248
g3
(lp249
F-0.6004794062588417
aF0.12868506953447284
asg5
(lp250
F-3.7458267937244614
aF0.11431807939823233
asg7
(lp251
F1.8507368489528169
aF0.09262804104115714
asg9
(lp252
F1.704024744910427
aF0.1368887608750175
asg11
(lp253
F0.22333017670743954
aF0.37609844316018226
asg13
(lp254
F1.454488873247517
aF0.12790979347286152
assS'CITo2Mu_Lam28TeVRR_dimuon_Moriond2017_BE'
p255
(dp256
g3
(lp257
F-1.506062758879466
aF0.11642476728914014
asg5
(lp258
F-0.2291148501655016
aF0.10353359396388666
asg7
(lp259
F1.4685090475252203
aF0.08995907645615953
asg9
(lp260
F2.662127671754689
aF0.12701087796105853
asg11
(lp261
F0.09524337180919243
aF0.37477866819283534
asg13
(lp262
F0.8432854407135579
aF0.13544250062974308
assS'CITo2Mu_Lam34TeVRR_dimuon_Moriond2017_BE'
p263
(dp264
g3
(lp265
F-1.3740208946859411
aF0.11638695931509643
asg5
(lp266
F-0.3460237935465784
aF0.10350822970238782
asg7
(lp267
F0.44698510124452895
aF0.08989859015916477
asg9
(lp268
F1.27451949499212
aF0.12696264815195632
asg11
(lp269
F0.04343632304641856
aF0.38295126007974933
asg13
(lp270
F0.3333694672525158
aF0.1351355393757978
assS'CITo2Mu_Lam34TeVRR_dimuon_Moriond2017_BB'
p271
(dp272
g3
(lp273
F-0.6588527173581156
aF0.12863484470842795
asg5
(lp274
F-2.6749558237073643
aF0.11428265872596369
asg7
(lp275
F0.7189052569300003
aF0.09256474902768061
asg9
(lp276
F0.746303990548995
aF0.1368275816389453
asg11
(lp277
F0.10260398573527554
aF0.3811525494979138
asg13
(lp278
F0.6357982744598121
aF0.12776066912209705
assS'CITo2Mu_Lam10TeVConLR_dimuon_Moriond2017_BB'
p279
(dp280
g3
(lp281
F252.90244609288857
aF0.13413044924754888
asg5
(lp282
F131.40505817302312
aF0.1186590421946171
asg7
(lp283
F339.1300110042398
aF0.09942150001967494
asg9
(lp284
F305.7531751271778
aF0.14078588268719322
asg11
(lp285
F29.20673133333399
aF0.39276355961949033
asg13
(lp286
F204.4736229838693
aF0.1323343876775444
assS'CITo2Mu_Lam10TeVRR_dimuon_Moriond2017_BE'
p287
(dp288
g3
(lp289
F74.83301587651334
aF0.11997727790312232
asg5
(lp290
F45.04604188157316
aF0.10617783438052118
asg7
(lp291
F146.39963450077917
aF0.09051330186858254
asg9
(lp292
F151.3294938188169
aF0.12969358975594658
asg11
(lp293
F5.945462299548641
aF0.35992333195242093
asg13
(lp294
F65.22562642169514
aF0.13411213618900897
assS'CITo2Mu_Lam10TeVRR_dimuon_Moriond2017_BB'
p295
(dp296
g3
(lp297
F57.11550259141268
aF0.13329529541917112
asg5
(lp298
F3.689425455252433
aF0.11799610869637178
asg7
(lp299
F146.27745878974815
aF0.09306382661928081
asg9
(lp300
F113.94645340831671
aF0.14007101616560283
asg11
(lp301
F13.75614425806398
aF0.36920034954527264
asg13
(lp302
F97.55942191884358
aF0.12688766086069206
assS'CITo2Mu_Lam10TeVConLR_dimuon_Moriond2017_BE'
p303
(dp304
g3
(lp305
F344.08169272942587
aF0.12151041301522236
asg5
(lp306
F296.5372069266075
aF0.10749513189245177
asg7
(lp307
F344.10146499752454
aF0.09682834289304137
asg9
(lp308
F443.38240190796625
aF0.13136961020489216
asg11
(lp309
F11.914485637784686
aF0.34920061560391547
asg13
(lp310
F141.14278317551384
aF0.1409813598279601
assS'CITo2Mu_Lam34TeVDesLR_dimuon_Moriond2017_BE'
p311
(dp312
g3
(lp313
F-7.265933451674414
aF0.11688346573132766
asg5
(lp314
F-11.325258089451836
aF0.10338731910408257
asg7
(lp315
F-2.155564136695581
aF0.09430751198883552
asg9
(lp316
F2.2496772530161593
aF0.11256170023095798
asg11
(lp317
F0.053694448444709345
aF0.37121056049886475
asg13
(lp318
F0.10748172200021733
aF0.13871667314520375
assS'CITo2Mu_Lam40TeVConLR_dimuon_Moriond2017_BB'
p319
(dp320
g3
(lp321
F7.537418641687509
aF0.1307952613472137
asg5
(lp322
F4.0152514667774994
aF0.115275447548015
asg7
(lp323
F3.4877464321088425
aF0.0993494130843615
asg9
(lp324
F4.999143451017716
aF0.13934111547190614
asg11
(lp325
F0.15362338489059452
aF0.39985762395574936
asg13
(lp326
F1.2926018957918544
aF0.1330613610054343
assS'CITo2Mu_Lam40TeVConLR_dimuon_Moriond2017_BE'
p327
(dp328
g3
(lp329
F10.019288440585228
aF0.11889447351713589
asg5
(lp330
F12.46189207703992
aF0.10515368390024846
asg7
(lp331
F3.7829588124939875
aF0.09668725637014756
asg9
(lp332
F10.317179441845326
aF0.1303093550217836
asg11
(lp333
F0.06727535073275814
aF0.36062815268405096
asg13
(lp334
F0.8953946377151873
aF0.14184521153383728
assS'CITo2Mu_Lam34TeVDesLR_dimuon_Moriond2017_BB'
p335
(dp336
g3
(lp337
F-7.196735877770379
aF0.12799182992592262
asg5
(lp338
F-7.867310166766629
aF0.11423625519663484
asg7
(lp339
F-1.880675825629062
aF0.09640540308513931
asg9
(lp340
F0.680630306478605
aF0.13931822237815608
asg11
(lp341
F0.14819604045545348
aF0.3725925434552014
asg13
(lp342
F0.31549577023712505
aF0.13076108176524767
assS'CITo2Mu_Lam22TeVLR_dimuon_Moriond2017_BE'
p343
(dp344
g3
(lp345
F13.127949080173607
aF0.11804817174029178
asg5
(lp346
F9.95488272270984
aF0.10438087834842363
asg7
(lp347
F12.116840923958993
aF0.09578290655154578
asg9
(lp348
F27.88948227301958
aF0.12150924400915303
asg11
(lp349
F0.49529941608415107
aF0.35301737700760444
asg13
(lp350
F5.261031383848935
aF0.14000856111932192
assS'CITo2Mu_Lam34TeVLL_dimuon_Moriond2017_BB'
p351
(dp352
g3
(lp353
F0.4780571877630564
aF0.12924556669192033
asg5
(lp354
F0.3306145610514477
aF0.1147134805104996
asg7
(lp355
F0.5259379474461454
aF0.09237537060357616
asg9
(lp356
F-0.6739879896763057
aF0.13588461756711745
asg11
(lp357
F0.09892986348929292
aF0.2950525371562498
asg13
(lp358
F0.5952777984745565
aF0.11201222793620758
assS'CITo2Mu_Lam34TeVLL_dimuon_Moriond2017_BE'
p359
(dp360
g3
(lp361
F1.2658093643661346
aF0.11744224429666973
asg5
(lp362
F1.287187636003864
aF0.10379037006461767
asg7
(lp363
F0.5444023433760989
aF0.09002238220449138
asg9
(lp364
F-0.18004361036290106
aF0.1264356503821957
asg11
(lp365
F0.035834185485212895
aF0.3194392196959872
asg13
(lp366
F0.34082972500036113
aF0.12063939680093125
assS'CITo2Mu_Lam10TeVConLL_dimuon_Moriond2017_BB'
p367
(dp368
g3
(lp369
F126.62347611413338
aF0.13360305080960902
asg5
(lp370
F103.34761290829363
aF0.1193188392903652
asg7
(lp371
F175.3827352300158
aF0.09465082237335447
asg9
(lp372
F134.16096801965338
aF0.13893747761346395
asg11
(lp373
F14.592448390897736
aF0.20795562321905042
asg13
(lp374
F107.22321359127055
aF0.09827634315020196
assS'CITo2Mu_Lam40TeVConLL_dimuon_Moriond2017_BE'
p375
(dp376
g3
(lp377
F5.7841985940424365
aF0.11784044764594853
asg5
(lp378
F6.510512707392763
aF0.10462729205698576
asg7
(lp379
F3.0138778542133338
aF0.09239879368661959
asg9
(lp380
F6.463290089344241
aF0.12833345010039207
asg11
(lp381
F0.042877348794094675
aF0.25163038139913274
asg13
(lp382
F0.6677565634015994
aF0.1078696399137067
assS'CITo2Mu_Lam28TeVConLL_dimuon_Moriond2017_BB'
p383
(dp384
g3
(lp385
F7.992903389054277
aF0.12960904124575168
asg5
(lp386
F9.30792527871563
aF0.11598169699385175
asg7
(lp387
F5.339081128139902
aF0.09439863085008861
asg9
(lp388
F3.9008734409495105
aF0.13643719860359516
asg11
(lp389
F0.32532419522658323
aF0.20887855183271267
asg13
(lp390
F2.661071156272895
aF0.09851545899198742
assS'CITo2Mu_Lam28TeVConLL_dimuon_Moriond2017_BE'
p391
(dp392
g3
(lp393
F12.61192957617061
aF0.11788721817625386
asg5
(lp394
F13.733518338519389
aF0.10466068901556846
asg7
(lp395
F7.4257978730595795
aF0.09244189308036223
asg9
(lp396
F14.424116245605092
aF0.1283692815834781
asg11
(lp397
F0.13516408561254678
aF0.2503262477431482
asg13
(lp398
F1.9299910427746592
aF0.10790822911646575
assS'CITo2Mu_Lam40TeVConLL_dimuon_Moriond2017_BB'
p399
(dp400
g3
(lp401
F3.618467326167547
aF0.12954669705302876
asg5
(lp402
F4.41933998370439
aF0.11593633988874359
asg7
(lp403
F1.9939145127230589
aF0.09434005301182938
asg9
(lp404
F1.428744786112901
aF0.13636793571069078
asg11
(lp405
F0.10329251035259591
aF0.20963005317880135
asg13
(lp406
F0.9014777144318762
aF0.09849296476023611
assS'CITo2Mu_Lam34TeVConLR_dimuon_Moriond2017_BB'
p407
(dp408
g3
(lp409
F10.725468098830675
aF0.13081070827740957
asg5
(lp410
F5.706204170135038
aF0.11528913056186993
asg7
(lp411
F5.454901413611623
aF0.09937300480935676
asg9
(lp412
F7.41930621939116
aF0.13935705607626978
asg11
(lp413
F0.271876337309952
aF0.39742255659226294
asg13
(lp414
F2.1961698287136873
aF0.13304635118227323
assS'CITo2Mu_Lam28TeVDesLL_dimuon_Moriond2017_BB'
p415
(dp416
g3
(lp417
F-5.840411212145682
aF0.12898103403382014
asg5
(lp418
F-7.957991477917744
aF0.11351294067497052
asg7
(lp419
F-2.1959625827790603
aF0.09047976477490983
asg9
(lp420
F-4.6476532726342725
aF0.13545894062697797
asg11
(lp421
F0.11053493127033763
aF0.3703704032008608
asg13
(lp422
F0.12742323867080607
aF0.12583718961142842
assS'CITo2Mu_Lam28TeVDesLL_dimuon_Moriond2017_BE'
p423
(dp424
g3
(lp425
F-7.84524846665397
aF0.11707117691299052
asg5
(lp426
F-9.389606387585673
aF0.10296985800701462
asg7
(lp427
F-4.204317211555249
aF0.0877232376503956
asg9
(lp428
F-13.391992773009235
aF0.12460024015840855
asg11
(lp429
F0.030677399713319432
aF0.3726414583350683
asg13
(lp430
F-0.21387643756118235
aF0.1339820187280623
assS'CITo2Mu_Lam34TeVConLR_dimuon_Moriond2017_BE'
p431
(dp432
g3
(lp433
F14.274587307253455
aF0.11890663439932862
asg5
(lp434
F17.463475812917295
aF0.10516261118083908
asg7
(lp435
F5.864049327245787
aF0.09670947946555657
asg9
(lp436
F14.896288114593574
aF0.13031484021531614
asg11
(lp437
F0.11712114861202888
aF0.3582934712678227
asg13
(lp438
F1.5202005316076925
aF0.14184725581053267
assS'CITo2Mu_Lam34TeVConRR_dimuon_Moriond2017_BB'
p439
(dp440
g3
(lp441
F7.326516370061995
aF0.12995112713178592
asg5
(lp442
F2.8160061896513753
aF0.11492787670935288
asg7
(lp443
F3.895259014635897
aF0.09502308585194279
asg9
(lp444
F6.742824759287231
aF0.13851385137855454
asg11
(lp445
F0.1577858077186822
aF0.4199850778286832
asg13
(lp446
F1.4782427381005263
aF0.13004814201922985
assS'CITo2Mu_Lam34TeVConRR_dimuon_Moriond2017_BE'
p447
(dp448
g3
(lp449
F11.562504030270702
aF0.11724658239032834
asg5
(lp450
F11.569657080601928
aF0.10416724637673097
asg7
(lp451
F4.394756826903269
aF0.09223405023310759
asg9
(lp452
F10.284842645992342
aF0.12846313557850877
asg11
(lp453
F0.07161801198844442
aF0.37300964903482375
asg13
(lp454
F1.0476150441640542
aF0.1378738275976329
assS'CITo2Mu_Lam10TeVConRR_dimuon_Moriond2017_BB'
p455
(dp456
g3
(lp457
F148.14167716231339
aF0.1338674615765908
asg5
(lp458
F67.45121675261737
aF0.11843802676925894
asg7
(lp459
F183.67916676739222
aF0.09527473261483627
asg9
(lp460
F184.30079413014352
aF0.1406951402577474
asg11
(lp461
F14.474307089474795
aF0.41340512580433775
asg13
(lp462
F108.16678754916455
aF0.1294591215320235
assS'CITo2Mu_Lam16TeVConLL_dimuon_Moriond2017_BE'
p463
(dp464
g3
(lp465
F48.62429123536708
aF0.11842174433135658
asg5
(lp466
F47.5920325244449
aF0.10504339029194068
asg7
(lp467
F38.532848632422905
aF0.09269725002259822
asg9
(lp468
F59.45370698041785
aF0.12885029680636428
asg11
(lp469
F1.0042055666577947
aF0.24879238442021176
asg13
(lp470
F12.935710668229573
aF0.10778019813199256
assS'CITo2Mu_Lam16TeVConLL_dimuon_Moriond2017_BB'
p471
(dp472
g3
(lp473
F32.01182859315418
aF0.13031427969969636
asg5
(lp474
F32.0831273286434
aF0.11650172938155269
asg7
(lp475
F32.07838675478515
aF0.09469908334773698
asg9
(lp476
F24.146596033975214
aF0.13713210126343087
asg11
(lp477
F2.414687152025234
aF0.2080935434935083
asg13
(lp478
F18.32167721158092
aF0.09839709510715623
assS'CITo2Mu_Lam10TeVConRR_dimuon_Moriond2017_BE'
p479
(dp480
g3
(lp481
F223.79586061501072
aF0.12012137873950877
asg5
(lp482
F183.27981034343475
aF0.10658784422839843
asg7
(lp483
F192.28204961628086
aF0.09253006648414157
asg9
(lp484
F257.2287106122486
aF0.13012252085119705
asg11
(lp485
F6.196219236555921
aF0.3625197804999257
asg13
(lp486
F74.35773615060211
aF0.13722060435406647
assS'CITo2Mu_Lam22TeVDesLL_dimuon_Moriond2017_BE'
p487
(dp488
g3
(lp489
F-11.0719887610461
aF0.11718660884492099
asg5
(lp490
F-14.379279251619437
aF0.10304524238032842
asg7
(lp491
F-4.278271639080373
aF0.08795342938533122
asg9
(lp492
F-19.24478574738913
aF0.12478376610113072
asg11
(lp493
F0.14359080469559796
aF0.35253515280259123
asg13
(lp494
F0.7552737380543748
aF0.13429529667011073
assS'CITo2Mu_Lam22TeVDesLL_dimuon_Moriond2017_BB'
p495
(dp496
g3
(lp497
F-8.340708762855002
aF0.12913604011405913
asg5
(lp498
F-12.289424317115163
aF0.11361485992805344
asg7
(lp499
F-1.0895165399334985
aF0.09069375903156346
asg9
(lp500
F-5.596370425444007
aF0.13566757443533706
asg11
(lp501
F0.4032403288141933
aF0.3617730002765168
asg13
(lp502
F1.8125942513861881
aF0.1258806658064504
assS'CITo2Mu_Lam28TeVDesLR_dimuon_Moriond2017_BE'
p503
(dp504
g3
(lp505
F-9.732129308683966
aF0.1169264350003224
asg5
(lp506
F-16.13406752996434
aF0.10341596469288597
asg7
(lp507
F-1.5179591010734228
aF0.0944312545036142
asg9
(lp508
F4.8910686653781
aF0.11256540163390873
asg11
(lp509
F0.14156516300557997
aF0.3607087831367742
asg13
(lp510
F0.8499872029821285
aF0.1388396199398972
assS'CITo2Mu_Lam28TeVConRR_dimuon_Moriond2017_BB'
p511
(dp512
g3
(lp513
F11.166503362593744
aF0.12999435963785672
asg5
(lp514
F4.352181605485157
aF0.11496197177560695
asg7
(lp515
F6.5381529617571275
aF0.09505921754776925
asg9
(lp516
F10.551763008083697
aF0.13855226799887319
asg11
(lp517
F0.3051552058295279
aF0.4172947219148124
asg13
(lp518
F2.7016434309324655
aF0.13005342986787524
assS'CITo2Mu_Lam28TeVConRR_dimuon_Moriond2017_BE'
p519
(dp520
g3
(lp521
F17.565368359751687
aF0.11727787065330672
asg5
(lp522
F17.343235266001102
aF0.10419074373161544
asg7
(lp523
F7.2908692390138015
aF0.09226622381478337
asg9
(lp524
F15.957729283872027
aF0.1284899624874458
asg11
(lp525
F0.13636701060859047
aF0.37017135782590826
asg13
(lp526
F1.9014505742199272
aF0.13790485285302892
assS'CITo2Mu_Lam28TeVDesLR_dimuon_Moriond2017_BB'
p527
(dp528
g3
(lp529
F-9.894456129269884
aF0.12805182325727457
asg5
(lp530
F-11.220530673758162
aF0.1142748971342481
asg7
(lp531
F-1.1294950380184616
aF0.09653746298771756
asg9
(lp532
F2.221744551471687
aF0.1393784104772629
asg11
(lp533
F0.3630067941134988
aF0.36785627009034616
asg13
(lp534
F1.4933771770886253
aF0.13075871191457628
assS'CITo2Mu_Lam10TeVDesLR_dimuon_Moriond2017_BE'
p535
(dp536
g3
(lp537
F87.24618271068493
aF0.12029596529516655
asg5
(lp538
F-32.35270146344919
aF0.1062614770679611
asg7
(lp539
F264.79296881421976
aF0.09454761096540981
asg9
(lp540
F300.6324701586682
aF0.11266168899552016
asg11
(lp541
F11.507268577621492
aF0.3498454123141668
asg13
(lp542
F121.89862035246932
aF0.13700375197652911
assS'CITo2Mu_Lam10TeVDesLR_dimuon_Moriond2017_BB'
p543
(dp544
g3
(lp545
F41.92013867958099
aF0.13273789921084894
asg5
(lp546
F-24.688231762090595
aF0.11810768918485083
asg7
(lp547
F265.0295991666364
aF0.09654815688756026
asg9
(lp548
F220.41666673903043
aF0.14082034123035447
asg11
(lp549
F26.92476059164466
aF0.3634368784201446
asg13
(lp550
F183.04739363677734
aF0.1293325162291668
assS'CITo2Mu_Lam28TeVConLR_dimuon_Moriond2017_BE'
p551
(dp552
g3
(lp553
F22.07400853293791
aF0.11894031943716545
asg5
(lp554
F26.292231455433694
aF0.10518673880319328
asg7
(lp555
F10.230091305140583
aF0.09676146666208674
asg9
(lp556
F23.518624527232248
aF0.1303418108738429
asg11
(lp557
F0.23321883667617233
aF0.355197886635504
asg13
(lp558
F2.9497225399761366
aF0.14179926689226474
assS'CITo2Mu_Lam28TeVConLR_dimuon_Moriond2017_BB'
p559
(dp560
g3
(lp561
F16.553439576267806
aF0.13085420506258394
asg5
(lp562
F8.788798616303211
aF0.11532402146152755
asg7
(lp563
F9.625421603126881
aF0.09942704088280857
asg9
(lp564
F12.200479185273934
aF0.13940524323121653
asg11
(lp565
F0.5502564309225865
aF0.395357115937487
asg13
(lp566
F4.264610294455534
aF0.13298387519255359
assS'CITo2Mu_Lam16TeVDesLR_dimuon_Moriond2017_BE'
p567
(dp568
g3
(lp569
F-10.541022063888022
aF0.1175262330794967
asg5
(lp570
F-38.32229174721215
aF0.10383250079486694
asg7
(lp571
F27.942218210403418
aF0.09500252262519036
asg9
(lp572
F45.87287447489439
aF0.1126088409769201
asg11
(lp573
F1.6582230828842819
aF0.3508403471349801
asg13
(lp574
F16.176254278364823
aF0.13752763870465656
assS'CITo2Mu_Lam40TeVDesRR_dimuon_Moriond2017_BE'
p575
(dp576
g3
(lp577
F-10.489320206425077
aF0.1155074653194875
asg5
(lp578
F-8.938832237648285
aF0.1028374495378515
asg7
(lp579
F-2.760874196311626
aF0.08752261206179379
asg9
(lp580
F-5.810605721373577
aF0.12542965064528547
asg11
(lp581
F0.0019581134980614923
aF0.3989840883512521
asg13
(lp582
F-0.3745423577236022
aF0.132027795544355
assS'CITo2Mu_Lam40TeVDesRR_dimuon_Moriond2017_BB'
p583
(dp584
g3
(lp585
F-6.353875567525279
aF0.12729308499452463
asg5
(lp586
F-5.956251841032213
aF0.11362158785573069
asg7
(lp587
F-2.00098151632816
aF0.09006488173048893
asg9
(lp588
F-3.964558555565617
aF0.13510217456402226
asg11
(lp589
F0.013749291199714353
aF0.34751116078322236
asg13
(lp590
F-0.29603536577345846
aF0.12524842902020314
assS'CITo2Mu_Lam16TeVDesLR_dimuon_Moriond2017_BB'
p591
(dp592
g3
(lp593
F-16.227072247661567
aF0.12887783075179174
asg5
(lp594
F-26.90922012685803
aF0.11483598340886587
asg7
(lp595
F28.80103385268773
aF0.09705275769267713
asg9
(lp596
F30.71466943492399
aF0.14005385149302194
asg11
(lp597
F3.947879879926387
aF0.36383378375917913
asg13
(lp598
F24.755036129034753
aF0.12967895182852276
assS'CITo2Mu_Lam40TeVLL_dimuon_Moriond2017_BB'
p599
(dp600
g3
(lp601
F0.2389765729640203
aF0.12922533232834288
asg5
(lp602
F0.18514295114277957
aF0.11469972192334246
asg7
(lp603
F0.1518598743807722
aF0.09234723564207592
asg9
(lp604
F-0.664744494823168
aF0.13585730277477248
asg11
(lp605
F0.05082695550449437
aF0.2984829718486075
asg13
(lp606
F0.28206967651799153
aF0.1118882690907868
assS'CITo2Mu_Lam22TeVConLR_dimuon_Moriond2017_BB'
p607
(dp608
g3
(lp609
F29.11907212181268
aF0.130993987557555
asg5
(lp610
F15.406602563865704
aF0.11543099339006196
asg7
(lp611
F20.528212476170346
aF0.09953415053462306
asg9
(lp612
F23.696479719968806
aF0.13955777288081633
asg11
(lp613
F1.3573898023247835
aF0.3938802404303113
asg13
(lp614
F10.110321057080291
aF0.1328027952239817
assS'CITo2Mu_Lam22TeVConLR_dimuon_Moriond2017_BE'
p615
(dp616
g3
(lp617
F38.958273430856366
aF0.11904770818819974
asg5
(lp618
F44.28173979690382
aF0.10526328469428993
asg7
(lp619
F21.511999544549454
aF0.09687068504891873
asg9
(lp620
F42.94546315616367
aF0.13044271930048507
asg11
(lp621
F0.5666166438333053
aF0.35212554803312796
asg13
(lp622
F6.98768937300415
aF0.14159789138046253
assS'CITo2Mu_Lam40TeVLL_dimuon_Moriond2017_BE'
p623
(dp624
g3
(lp625
F0.7664136907403645
aF0.1174272072044846
asg5
(lp626
F0.8514694718999181
aF0.10378027903993842
asg7
(lp627
F0.1617743027358678
aF0.08999640875600026
asg9
(lp628
F-0.35404650002809035
aF0.126415009835013
asg11
(lp629
F0.01726911224358584
aF0.3200370034933624
asg13
(lp630
F0.14437139344938688
aF0.1204400747328492
assS'CITo2Mu_Lam22TeVDesRR_dimuon_Moriond2017_BE'
p631
(dp632
g3
(lp633
F-31.699540516389106
aF0.11569522785153225
asg5
(lp634
F-27.96714025753522
aF0.10295477361481693
asg7
(lp635
F-4.531446928620916
aF0.08788269198945363
asg9
(lp636
F-14.81301542947449
aF0.1257167862125172
asg11
(lp637
F0.18634261523997514
aF0.36626823926804275
asg13
(lp638
F0.7337085975068356
aF0.13335354696636556
assS'CITo2Mu_Lam22TeVDesRR_dimuon_Moriond2017_BB'
p639
(dp640
g3
(lp641
F-18.85275829214015
aF0.1275360168533741
asg5
(lp642
F-18.57125549343982
aF0.11377998398646462
asg7
(lp643
F-2.140085367940614
aF0.090424385946376
asg9
(lp644
F-9.7068509622068
aF0.1354479957248154
asg11
(lp645
F0.45255325189384016
aF0.3288784405276571
asg13
(lp646
F1.933412655300053
aF0.12579391542935278
assS'CITo2Mu_Lam22TeVConRR_dimuon_Moriond2017_BE'
p647
(dp648
g3
(lp649
F30.064729238721156
aF0.11737747745071216
asg5
(lp650
F28.978936581091148
aF0.10426408650959486
asg7
(lp651
F14.339879747354885
aF0.09235090374961989
asg9
(lp652
F28.32256345603048
aF0.12858784518831892
asg11
(lp653
F0.3168865244175521
aF0.36670844661696633
asg13
(lp654
F4.1931222476154435
aF0.13786576599682276
assS'CITo2Mu_Lam22TeVConRR_dimuon_Moriond2017_BB'
p655
(dp656
g3
(lp657
F19.222431851753186
aF0.1301312108627028
asg5
(lp658
F7.673853233106115
aF0.11506547665921196
asg7
(lp659
F13.070022066582432
aF0.09515103679206717
asg9
(lp660
F18.993896105072253
aF0.1386850239054549
asg11
(lp661
F0.7205097044601946
aF0.4152079227617637
asg13
(lp662
F6.0048491313829855
aF0.12998786192394943
assS'CITo2Mu_Lam40TeVConRR_dimuon_Moriond2017_BE'
p663
(dp664
g3
(lp665
F8.205873830177325
aF0.11723510373957283
asg5
(lp666
F8.27772129170171
aF0.10415826421150383
asg7
(lp667
F2.94284707740929
aF0.09222222554177205
asg9
(lp668
F7.2035955270874865
aF0.12845634537473094
asg11
(lp669
F0.042927089194652705
aF0.37481911252953426
asg13
(lp670
F0.6546668421012654
aF0.13785207710220532
assS'CITo2Mu_Lam40TeVConRR_dimuon_Moriond2017_BB'
p671
(dp672
g3
(lp673
F5.18920224086196
aF0.1299351202759206
asg5
(lp674
F1.9772475967304217
aF0.11491424980845993
asg7
(lp675
F2.586605761377996
aF0.09500949141305681
asg9
(lp676
F4.697015269141161
aF0.1385026130552293
asg11
(lp677
F0.09322337936309441
aF0.4229875968745178
asg13
(lp678
F0.9184433021316663
aF0.13004051658460072
assS'CITo2Mu_Lam16TeVDesLL_dimuon_Moriond2017_BB'
p679
(dp680
g3
(lp681
F-10.841585350587025
aF0.1297560080885407
asg5
(lp682
F-20.589124657202888
aF0.11403137472481821
asg7
(lp683
F8.798545200750468
aF0.09117260571430195
asg9
(lp684
F-2.078744163348972
aF0.13641664894176497
asg11
(lp685
F1.7489174411358386
aF0.35790234783472846
asg13
(lp686
F10.494860910484096
aF0.12507697587072483
assS'CITo2Mu_Lam34TeVLR_dimuon_Moriond2017_BE'
p687
(dp688
g3
(lp689
F3.5043269277895206
aF0.11789505006532813
asg5
(lp690
F3.0691088617327296
aF0.10427496514246082
asg7
(lp691
F1.8542425952751032
aF0.09550849572719605
asg9
(lp692
F8.572982683804867
aF0.12143827022313705
asg11
(lp693
F0.0854077985283691
aF0.3647520158833437
asg13
(lp694
F0.8138411268039549
aF0.14028196447786823
assS'CITo2Mu_Lam34TeVLR_dimuon_Moriond2017_BB'
p695
(dp696
g3
(lp697
F1.7643661105301476
aF0.1294012691016661
asg5
(lp698
F-1.0805529983157953
aF0.11476269287925239
asg7
(lp699
F1.7871127939912803
aF0.09788920394724804
asg9
(lp700
F4.0499682629348825
aF0.13933763922721293
asg11
(lp701
F0.21003618888270273
aF0.38500755002373216
asg13
(lp702
F1.2558327994754062
aF0.13190371647376045
assS'CITo2Mu_Lam16TeVDesLL_dimuon_Moriond2017_BE'
p703
(dp704
g3
(lp705
F-13.733799524341066
aF0.11764866588553298
asg5
(lp706
F-23.532009761925792
aF0.10335391031671333
asg7
(lp707
F3.0534018182829143
aF0.08854335918605559
asg9
(lp708
F-25.61229132003865
aF0.12545142542831225
asg11
(lp709
F0.6846700675247898
aF0.3418437233609076
asg13
(lp710
F6.275973142257389
aF0.13311705087438097
assS'CITo2Mu_Lam40TeVRR_dimuon_Moriond2017_BB'
p711
(dp712
g3
(lp713
F-0.5823366633316596
aF0.1286141026352226
asg5
(lp714
F-1.9895021221508955
aF0.1142679188320953
asg7
(lp715
F0.29281212252491784
aF0.09253718657177287
asg9
(lp716
F0.3662283567877722
aF0.13680239380962578
asg11
(lp717
F0.05348633528140438
aF0.3852493788288701
asg13
(lp718
F0.3112039681791039
aF0.12764447280240193
assS'CITo2Mu_Lam10TeVConLL_dimuon_Moriond2017_BE'
p719
(dp720
g3
(lp721
F183.77860886573308
aF0.1209535257489254
asg5
(lp722
F154.64646528550998
aF0.10712049722735048
asg7
(lp723
F192.28502757823316
aF0.09270260899932738
asg9
(lp724
F242.80932923514024
aF0.13008411979632842
asg11
(lp725
F6.070976561144715
aF0.2485094762403291
asg13
(lp726
F74.77357293197491
aF0.1076118023705424
assS'CITo2Mu_Lam22TeVLR_dimuon_Moriond2017_BB'
p727
(dp728
g3
(lp729
F7.664472165375116
aF0.12960723578440259
asg5
(lp730
F-0.7920003187720113
aF0.11490853688636245
asg7
(lp731
F11.913275467328045
aF0.09816960962651435
asg9
(lp732
F15.548032442903207
aF0.13955006026722191
asg11
(lp733
F1.1981134467525236
aF0.3794718931805624
asg13
(lp734
F7.868661880273011
aF0.1315685642767556
assS'CITo2Mu_Lam40TeVRR_dimuon_Moriond2017_BE'
p735
(dp736
g3
(lp737
F-1.1417231881238763
aF0.11637128452953016
asg5
(lp738
F-0.3305554729732876
aF0.10349785687467766
asg7
(lp739
F0.09098644054883209
aF0.08987241880178293
asg9
(lp740
F0.6964949028569549
aF0.1269429980100082
asg11
(lp741
F0.0224426013463571
aF0.3869016004403932
asg13
(lp742
F0.14006224218883156
aF0.13493993632328016
assS'CITo2Mu_Lam40TeVLR_dimuon_Moriond2017_BE'
p743
(dp744
g3
(lp745
F2.244203247932944
aF0.11787964320497853
asg5
(lp746
F2.058753256123282
aF0.10426433648352318
asg7
(lp747
F0.8748709361208036
aF0.09546776013909683
asg9
(lp748
F5.745762514201289
aF0.12143475500425492
asg11
(lp749
F0.044094748617002355
aF0.3711607384385288
asg13
(lp750
F0.3874422545912677
aF0.1401641623447098
assS'CITo2Mu_Lam22TeVConLL_dimuon_Moriond2017_BE'
p751
(dp752
g3
(lp753
F22.018840973523425
aF0.11799265701025685
asg5
(lp754
F23.12555384547818
aF0.10473517614614918
asg7
(lp755
F14.538691692907797
aF0.092525486451544
asg9
(lp756
F25.793506274356844
aF0.12846803061298406
asg11
(lp757
F0.31276964654963973
aF0.24946876633824988
asg13
(lp758
F4.242949386486407
aF0.10790178267150484
assS'CITo2Mu_Lam22TeVConLL_dimuon_Moriond2017_BB'
p759
(dp760
g3
(lp761
F14.14468631599027
aF0.12974861349228037
asg5
(lp762
F15.64598211125724
aF0.11608292636196323
asg7
(lp763
F11.148399447163143
aF0.09450243875161035
asg9
(lp764
F8.258058923825757
aF0.13658613975436232
asg11
(lp765
F0.7524315236262007
aF0.20843160963295693
asg13
(lp766
F5.927417779473441
aF0.09849871761327594
assS'CITo2Mu_Lam40TeVLR_dimuon_Moriond2017_BB'
p767
(dp768
g3
(lp769
F1.0661446233481229
aF0.12938032356126106
asg5
(lp770
F-0.8888509226527503
aF0.11474752383182601
asg7
(lp771
F0.8289833583242654
aF0.09784521009142333
asg9
(lp772
F2.5709044850669045
aF0.13931664984885905
asg11
(lp773
F0.10964372805887831
aF0.389158840438791
asg13
(lp774
F0.6129502656905514
aF0.131840523074581
assS'CITo2Mu_Lam34TeVConLL_dimuon_Moriond2017_BE'
p775
(dp776
g3
(lp777
F8.20789020259383
aF0.11785335755396184
asg5
(lp778
F9.122900551691828
aF0.10463662273592012
asg7
(lp779
F4.49055857709007
aF0.09241027301412656
asg9
(lp780
F9.254495865147987
aF0.12834130830921356
asg11
(lp781
F0.07127351597580146
aF0.2510778066468887
asg13
(lp782
F1.0661894873479763
aF0.10788493279604153
assS'CITo2Mu_Lam34TeVConLL_dimuon_Moriond2017_BB'
p783
(dp784
g3
(lp785
F5.160492790120429
aF0.12956399579989292
asg5
(lp786
F6.189027720400418
aF0.11594900462733737
asg7
(lp787
F3.0775534689048243
aF0.09435688206017959
asg9
(lp788
F2.2240346298043505
aF0.1363874627063725
asg11
(lp789
F0.1716271542479454
aF0.20929665039077272
asg13
(lp790
F1.453272191206576
aF0.09850296310068027
assS'CITo2Mu_Lam16TeVLR_dimuon_Moriond2017_BE'
p791
(dp792
g3
(lp793
F38.60238044525556
aF0.1185001193011219
asg5
(lp794
F26.423173623497746
aF0.10470535344042173
asg7
(lp795
F45.17780594269122
aF0.09599712423298712
asg9
(lp796
F74.20255420288768
aF0.12170065190228271
asg11
(lp797
F1.7802313949239852
aF0.35044029025907963
asg13
(lp798
F19.555330034607255
aF0.13938280932485803
assS'CITo2Mu_Lam16TeVLR_dimuon_Moriond2017_BB'
p799
(dp800
g3
(lp801
F24.48510043099691
aF0.13021301162816173
asg5
(lp802
F3.68413808304183
aF0.11535211978524948
asg7
(lp803
F44.667718053062465
aF0.09833910179537776
asg9
(lp804
F46.41294184701046
aF0.14005357476789826
asg11
(lp805
F4.282541351054791
aF0.37844813142682515
asg13
(lp806
F28.98080487133594
aF0.13110028849327776
assS'CITo2Mu_Lam22TeVRR_dimuon_Moriond2017_BB'
p807
(dp808
g3
(lp809
F0.18483677980651692
aF0.12883361385803843
asg5
(lp810
F-5.448701130166853
aF0.11442273032283828
asg7
(lp811
F5.464968349320909
aF0.09278771136922159
asg9
(lp812
F4.643522571432726
aF0.13706650981513513
asg11
(lp813
F0.5865314781770173
aF0.3720431816447104
asg13
(lp814
F3.9691308933415193
aF0.1278908886766511
assS'CITo2Mu_Lam34TeVDesRR_dimuon_Moriond2017_BE'
p815
(dp816
g3
(lp817
F-14.310545819642584
aF0.11552733623986453
asg5
(lp818
F-12.261704667695085
aF0.10284921302804466
asg7
(lp819
F-3.5007866244142107
aF0.08756313008522196
asg9
(lp820
F-7.735803656008102
aF0.12546216072540387
asg11
(lp821
F0.015254634104392706
aF0.39289287112467486
asg13
(lp822
F-0.3808761096590225
aF0.13239725115396273
assS'CITo2Mu_Lam34TeVDesRR_dimuon_Moriond2017_BB'
p823
(dp824
g3
(lp825
F-8.644221804778226
aF0.12731856228507
asg5
(lp826
F-8.165917837066104
aF0.1136374407425745
asg7
(lp827
F-2.4574485007758966
aF0.09010641220341845
asg9
(lp828
F-5.250216778189241
aF0.13514131189933604
asg11
(lp829
F0.047422163751868876
aF0.34232002116714433
asg13
(lp830
F-0.20664618918090216
aF0.12547319622496428
assS'CITo2Mu_Lam22TeVRR_dimuon_Moriond2017_BE'
p831
(dp832
g3
(lp833
F-0.817405638833975
aF0.1165363526511222
asg5
(lp834
F0.5058981617779637
aF0.1036094300622059
asg7
(lp835
F4.904216409366985
aF0.09011679786953676
asg9
(lp836
F6.754774013277995
aF0.12715231570041807
asg11
(lp837
F0.2516145698287636
aF0.36648834294250454
asg13
(lp838
F2.4634154225611393
aF0.13560965648159418
assS'CITo2Mu_Lam10TeVLL_dimuon_Moriond2017_BB'
p839
(dp840
g3
(lp841
F70.32158583309905
aF0.13374554258834515
asg5
(lp842
F36.53381905213877
aF0.1182456901554075
asg7
(lp843
F144.98037368244215
aF0.09286421606269127
asg9
(lp844
F100.45769890918598
aF0.13906292378069673
asg11
(lp845
F13.716610130994933
aF0.2823727150279609
asg13
(lp846
F97.0046979881028
aF0.11130499654157855
assS'CITo2Mu_Lam10TeVLL_dimuon_Moriond2017_BE'
p847
(dp848
g3
(lp849
F104.82607573571863
aF0.12083825611784021
asg5
(lp850
F62.69013080115542
aF0.1063957036713694
asg7
(lp851
F147.27985258993354
aF0.09062655718672913
asg9
(lp852
F134.28313392467373
aF0.1292539875217617
asg11
(lp853
F5.66332014629733
aF0.2935979879021408
asg13
(lp854
F65.96997983985483
aF0.11975219067218612
assS'CITo2Mu_Lam34TeVDesLL_dimuon_Moriond2017_BB'
p855
(dp856
g3
(lp857
F-4.204378414594316
aF0.12892713758394778
asg5
(lp858
F-5.527798598297522
aF0.11347795639366183
asg7
(lp859
F-2.0256775740125335
aF0.09039385914697273
asg9
(lp860
F-3.572010609156962
aF0.13538177242786237
asg11
(lp861
F0.026232572730640433
aF0.3808084239217269
asg13
(lp862
F-0.26271659425746297
aF0.12552149277173488
assS'CITo2Mu_Lam34TeVDesLL_dimuon_Moriond2017_BE'
p863
(dp864
g3
(lp865
F-5.676271473861561
aF0.11703113103937762
asg5
(lp866
F-6.5485252796841
aF0.1029441173933152
asg7
(lp867
F-3.401753890337872
aF0.08763449139485618
asg9
(lp868
F-9.61458308587379
aF0.12452999245517783
asg11
(lp869
F0.0003948549946243274
aF0.3878006327450857
asg13
(lp870
F-0.384530037347254
aF0.13339386080582097
ass.