(dp0
S'CITo2Mu_Lam10TeVDesLR_dielectron_Moriond2017'
p1
(dp2
S'1'
p3
(lp4
F-23.06749359836374
aI0
asS'0'
p5
(lp6
F-60.40710561253468
aI0
asS'3'
p7
(lp8
F157.39988786083214
aI0
asS'2'
p9
(lp10
F132.1485538612538
aI0
asS'5'
p11
(lp12
F4.827014614319946
aI0
asS'4'
p13
(lp14
F59.289905096072495
aI0
assS'CITo2Mu_Lam16TeVConLR_dimuon_Moriond2017'
p15
(dp16
g3
(lp17
F113.88636203519127
aI0
asg5
(lp18
F9.453525488505647
aI0
asg7
(lp19
F64.44194897874257
aI0
asg9
(lp20
F112.80524752664519
aI0
asg11
(lp21
F1.7694536338756754
aI0
asg13
(lp22
F22.845984180074442
aI0
assS'CITo2Mu_Lam10TeVConLR_dielectron_Moriond2017'
p23
(dp24
g3
(lp25
F239.57619982153778
aI0
asg5
(lp26
F175.4152802465021
aI0
asg7
(lp27
F174.87876895200125
aI0
asg9
(lp28
F263.4247291014116
aI0
asg11
(lp29
F5.427853533583974
aI0
asg13
(lp30
F63.523489499653415
aI0
assS'CITo2Mu_Lam10TeVDesRR_dimuon_Moriond2017'
p31
(dp32
g3
(lp33
F-74.91488107763132
aI0
asg5
(lp34
F-66.76009012490363
aI0
asg7
(lp35
F136.94115988605333
aI0
asg9
(lp36
F-102.41573422892779
aI0
asg11
(lp37
F5.55590935402947
aI0
asg13
(lp38
F54.68040417921074
aI0
assS'CITo2Mu_Lam28TeVDesRR_dimuon_Moriond2017'
p39
(dp40
g3
(lp41
F-24.10947352317328
aI0
asg5
(lp42
F-10.43458936858383
aI0
asg7
(lp43
F-4.209519961145439
aI0
asg9
(lp44
F-13.063230513355734
aI0
asg11
(lp45
F0.05514306598884721
aI0
asg13
(lp46
F-0.03416551812977486
aI0
assS'CITo2Mu_Lam22TeVDesLL_dielectron_Moriond2017'
p47
(dp48
g3
(lp49
F-10.12387500787463
aI0
asg5
(lp50
F65.53057418081391
aI0
asg7
(lp51
F-2.8194793451429803
aI0
asg9
(lp52
F-4.249083430704246
aI0
asg11
(lp53
F0.10507795773062753
aI0
asg13
(lp54
F0.4541987429941212
aI0
assS'CITo2Mu_Lam16TeVDesRR_dielectron_Moriond2017'
p55
(dp56
g3
(lp57
F-1.5037390847934375
aI0
asg5
(lp58
F-35.898468964988865
aI0
asg7
(lp59
F-0.5230088528841534
aI0
asg9
(lp60
F-59.928257244356814
aI0
asg11
(lp61
F0.2911337329186277
aI0
asg13
(lp62
F4.339941000235999
aI0
assS'CITo2Mu_Lam34TeVDesLR_dimuon_Moriond2017'
p63
(dp64
g3
(lp65
F-17.268179725624236
aI0
asg5
(lp66
F12.996802055059788
aI0
asg7
(lp67
F-1.9572424924864293
aI0
asg9
(lp68
F-11.793242187003557
aI0
asg11
(lp69
F0.05012557895924316
aI0
asg13
(lp70
F0.20296568524144032
aI0
assS'CITo2Mu_Lam10TeVDesLR_dimuon_Moriond2017'
p71
(dp72
g3
(lp73
F290.4194405755136
aI0
asg5
(lp74
F279.7238169341051
aI0
asg7
(lp75
F275.9512266604015
aI0
asg9
(lp76
F338.55770633069295
aI0
asg11
(lp77
F12.447994273806627
aI0
asg13
(lp78
F119.85589980100647
aI0
assS'CITo2Mu_Lam16TeVDesLL_dielectron_Moriond2017'
p79
(dp80
g3
(lp81
F-17.13127617249563
aI0
asg5
(lp82
F137.28070139069916
aI0
asg7
(lp83
F0.6450401101990337
aI0
asg9
(lp84
F-5.051754673936074
aI0
asg11
(lp85
F0.4471392643620614
aI0
asg13
(lp86
F2.8862525842037
aI0
assS'CITo2Mu_Lam16TeVDesLL_dimuon_Moriond2017'
p87
(dp88
g3
(lp89
F28.3776928155861
aI0
asg5
(lp90
F-22.64504724619087
aI0
asg7
(lp91
F5.697299155357328
aI0
asg9
(lp92
F-43.726444834412575
aI0
asg11
(lp93
F0.616125970797518
aI0
asg13
(lp94
F7.41250286386149
aI0
assS'CITo2Mu_Lam16TeVDesLR_dimuon_Moriond2017'
p95
(dp96
g3
(lp97
F-14.248695867536071
aI0
asg5
(lp98
F75.5272098666344
aI0
asg7
(lp99
F29.990712401959783
aI0
asg9
(lp100
F8.503604223468699
aI0
asg11
(lp101
F1.7698107011931115
aI0
asg13
(lp102
F16.19823080256494
aI0
assS'CITo2Mu_Lam22TeVConLL_dimuon_Moriond2017'
p103
(dp104
g3
(lp105
F-3.7259515052527377
aI0
asg5
(lp106
F18.45501117996696
aI0
asg7
(lp107
F15.793254658021937
aI0
asg9
(lp108
F30.31607980348508
aI0
asg11
(lp109
F0.31248260920136683
aI0
asg13
(lp110
F4.4745783687921445
aI0
assS'CITo2Mu_Lam28TeVConRR_dielectron_Moriond2017'
p111
(dp112
g3
(lp113
F3.0030083978895163
aI0
asg5
(lp114
F16.18665933496993
aI0
asg7
(lp115
F4.3855495659708055
aI0
asg9
(lp116
F21.935786687183906
aI0
asg11
(lp117
F0.05463734075941242
aI0
asg13
(lp118
F1.0825356910467365
aI0
assS'CITo2Mu_Lam34TeVDesRR_dielectron_Moriond2017'
p119
(dp120
g3
(lp121
F-0.6429635467519574
aI0
asg5
(lp122
F-9.952404959126966
aI0
asg7
(lp123
F-1.7137043233801705
aI0
asg9
(lp124
F-13.27130836910274
aI0
asg11
(lp125
F0.016555280721922833
aI0
asg13
(lp126
F-0.10934777623305147
aI0
assS'CITo2Mu_Lam34TeVConLR_dimuon_Moriond2017'
p127
(dp128
g3
(lp129
F22.59769123989986
aI0
asg5
(lp130
F-9.077743839469349
aI0
asg7
(lp131
F6.679865611276348
aI0
asg9
(lp132
F18.06896952518872
aI0
asg11
(lp133
F0.12442592269167232
aI0
asg13
(lp134
F1.6968098750597842
aI0
assS'CITo2Mu_Lam10TeVConLL_dimuon_Moriond2017'
p135
(dp136
g3
(lp137
F164.6015156085342
aI0
asg5
(lp138
F152.275510106904
aI0
asg7
(lp139
F183.93541370033597
aI0
asg9
(lp140
F237.95485032411432
aI0
asg11
(lp141
F5.963262784414791
aI0
asg13
(lp142
F67.72997410182772
aI0
assS'CITo2Mu_Lam22TeVConRR_dielectron_Moriond2017'
p143
(dp144
g3
(lp145
F6.824578847176326
aI0
asg5
(lp146
F26.47786273245913
aI0
asg7
(lp147
F8.369019337996377
aI0
asg9
(lp148
F35.972685305607
aI0
asg11
(lp149
F0.14780779159740864
aI0
asg13
(lp150
F2.2037962879470934
aI0
assS'CITo2Mu_Lam34TeVDesLL_dielectron_Moriond2017'
p151
(dp152
g3
(lp153
F-4.529128856050534
aI0
asg5
(lp154
F25.501676590546708
aI0
asg7
(lp155
F-2.044210930164798
aI0
asg9
(lp156
F-2.2100088277998964
aI0
asg11
(lp157
F0.00807894138798258
aI0
asg13
(lp158
F-0.10290053870682225
aI0
assS'CITo2Mu_Lam10TeVConLL_dielectron_Moriond2017'
p159
(dp160
g3
(lp161
F149.05174100894737
aI0
asg5
(lp162
F41.108941078809494
aI0
asg7
(lp163
F100.07548921449538
aI0
asg9
(lp164
F136.26224951327907
aI0
asg11
(lp165
F2.885975997143642
aI0
asg13
(lp166
F36.40480450027799
aI0
assS'CITo2Mu_Lam28TeVDesLR_dimuon_Moriond2017'
p167
(dp168
g3
(lp169
F-22.65323225796294
aI0
asg5
(lp170
F19.905735133212147
aI0
asg7
(lp171
F-1.1747248299818835
aI0
asg9
(lp172
F-14.667331934674678
aI0
asg11
(lp173
F0.14193085232300467
aI0
asg13
(lp174
F0.9727439752204767
aI0
assS'CITo2Mu_Lam16TeVConLL_dimuon_Moriond2017'
p175
(dp176
g3
(lp177
F9.502192866062387
aI0
asg5
(lp178
F40.59501172877731
aI0
asg7
(lp179
F39.59816445143919
aI0
asg9
(lp180
F65.58124048091031
aI0
asg11
(lp181
F0.9940299856064011
aI0
asg13
(lp182
F12.633921615580663
aI0
assS'CITo2Mu_Lam34TeVConLL_dielectron_Moriond2017'
p183
(dp184
g3
(lp185
F5.333902269844202
aI0
asg5
(lp186
F-22.303900019798448
aI0
asg7
(lp187
F3.424610656200649
aI0
asg9
(lp188
F3.2636171298972556
aI0
asg11
(lp189
F0.03828081884345694
aI0
asg13
(lp190
F0.5669107299511933
aI0
assS'CITo2Mu_Lam22TeVDesLL_dimuon_Moriond2017'
p191
(dp192
g3
(lp193
F14.157019999196677
aI0
asg5
(lp194
F-13.618171946570328
aI0
asg7
(lp195
F-3.2437332435841597
aI0
asg9
(lp196
F-23.12803640992871
aI0
asg11
(lp197
F0.13708255343594344
aI0
asg13
(lp198
F1.1581423789741967
aI0
assS'CITo2Mu_Lam28TeVConLL_dielectron_Moriond2017'
p199
(dp200
g3
(lp201
F8.365646287141658
aI0
asg5
(lp202
F-31.17357238212992
aI0
asg7
(lp203
F5.39621770833525
aI0
asg9
(lp204
F5.376894854762412
aI0
asg11
(lp205
F0.07044861969357635
aI0
asg13
(lp206
F1.00698849162417
aI0
assS'CITo2Mu_Lam28TeVConLL_dimuon_Moriond2017'
p207
(dp208
g3
(lp209
F-4.621562958403729
aI0
asg5
(lp210
F10.592985767956861
aI0
asg7
(lp211
F8.383603450265838
aI0
asg9
(lp212
F17.55603561176025
aI0
asg11
(lp213
F0.13633830693793586
aI0
asg13
(lp214
F2.1767625494390352
aI0
assS'CITo2Mu_Lam10TeVDesLL_dielectron_Moriond2017'
p215
(dp216
g3
(lp217
F-26.82299702256921
aI0
asg5
(lp218
F464.9284310633135
aI0
asg7
(lp219
F52.31045738517983
aI0
asg9
(lp220
F12.345029786971793
aI0
asg11
(lp221
F3.2511692527161404
aI0
asg13
(lp222
F24.577506690390983
aI0
assS'CITo2Mu_Lam34TeVDesRR_dimuon_Moriond2017'
p223
(dp224
g3
(lp225
F-16.8154369766969
aI0
asg5
(lp226
F-7.137983865457272
aI0
asg7
(lp227
F-3.546533421479076
aI0
asg9
(lp228
F-8.859491644886816
aI0
asg11
(lp229
F0.01654618025990274
aI0
asg13
(lp230
F-0.24679851263652175
aI0
assS'CITo2Mu_Lam22TeVDesLR_dimuon_Moriond2017'
p231
(dp232
g3
(lp233
F-27.931760370357438
aI0
asg5
(lp234
F34.55933562436553
aI0
asg7
(lp235
F3.4361980085727097
aI0
asg9
(lp236
F-15.266865025658774
aI0
asg11
(lp237
F0.44213403147451674
aI0
asg13
(lp238
F3.67695409552554
aI0
assS'CITo2Mu_Lam28TeVDesRR_dielectron_Moriond2017'
p239
(dp240
g3
(lp241
F-0.8863602044046957
aI0
asg5
(lp242
F-14.276196361655934
aI0
asg7
(lp243
F-2.208851502765043
aI0
asg9
(lp244
F-19.568409496522378
aI0
asg11
(lp245
F0.033946409702268365
aI0
asg13
(lp246
F0.05179214812420496
aI0
assS'CITo2Mu_Lam28TeVDesLL_dimuon_Moriond2017'
p247
(dp248
g3
(lp249
F8.51363062413202
aI0
asg5
(lp250
F-8.842296880010963
aI0
asg7
(lp251
F-3.6621655319959885
aI0
asg9
(lp252
F-14.278022049227445
aI0
asg11
(lp253
F0.03454951682129344
aI0
asg13
(lp254
F-0.01775620144538692
aI0
assS'CITo2Mu_Lam22TeVDesRR_dielectron_Moriond2017'
p255
(dp256
g3
(lp257
F-1.2433029860363831
aI0
asg5
(lp258
F-21.88166524884616
aI0
asg7
(lp259
F-2.5858356994926517
aI0
asg9
(lp260
F-31.69758988697359
aI0
asg11
(lp261
F0.08473979444679769
aI0
asg13
(lp262
F0.7485412159970566
aI0
assS'CITo2Mu_Lam34TeVConLR_dielectron_Moriond2017'
p263
(dp264
g3
(lp265
F12.129182316625702
aI0
asg5
(lp266
F11.70620287051895
aI0
asg7
(lp267
F4.257622730855548
aI0
asg9
(lp268
F1.0623852795561675
aI0
asg11
(lp269
F0.05287941480608041
aI0
asg13
(lp270
F0.8541060232033642
aI0
assS'CITo2Mu_Lam28TeVDesLL_dielectron_Moriond2017'
p271
(dp272
g3
(lp273
F-6.5318151325079725
aI0
asg5
(lp274
F38.57700966559446
aI0
asg7
(lp275
F-2.5789308201704877
aI0
asg9
(lp276
F-3.04146409524742
aI0
asg11
(lp277
F0.030010221067474124
aI0
asg13
(lp278
F-0.0040493143802664555
aI0
assS'CITo2Mu_Lam28TeVConLR_dielectron_Moriond2017'
p279
(dp280
g3
(lp281
F18.453826225729244
aI0
asg5
(lp282
F17.490450765815694
aI0
asg7
(lp283
F6.998009953422287
aI0
asg9
(lp284
F3.005834565442001
aI0
asg11
(lp285
F0.10557495450931459
aI0
asg13
(lp286
F1.566850595655542
aI0
assS'CITo2Mu_Lam22TeVConLR_dimuon_Moriond2017'
p287
(dp288
g3
(lp289
F56.44701283910433
aI0
asg5
(lp290
F-11.144094689475196
aI0
asg7
(lp291
F23.11473161936889
aI0
asg9
(lp292
F49.67643144971555
aI0
asg11
(lp293
F0.5494356697240644
aI0
asg13
(lp294
F7.224448623891
aI0
assS'CITo2Mu_Lam10TeVDesRR_dielectron_Moriond2017'
p295
(dp296
g3
(lp297
F3.329979278444057
aI0
asg5
(lp298
F-45.514193334262586
aI0
asg7
(lp299
F35.67310043420787
aI0
asg9
(lp300
F-153.4163409213254
aI0
asg11
(lp301
F1.855216953314592
aI0
asg13
(lp302
F35.90506567760966
aI0
assS'CITo2Mu_Lam22TeVConRR_dimuon_Moriond2017'
p303
(dp304
g3
(lp305
F43.19735932195317
aI0
asg5
(lp306
F20.844838868274564
aI0
asg7
(lp307
F17.435681647371972
aI0
asg9
(lp308
F31.247174946184316
aI0
asg11
(lp309
F0.3271202397363169
aI0
asg13
(lp310
F4.420380886211531
aI0
assS'CITo2Mu_Lam10TeVDesLL_dimuon_Moriond2017'
p311
(dp312
g3
(lp313
F86.31350061231899
aI0
asg5
(lp314
F-31.675289121403694
aI0
asg7
(lp315
F114.87544502730586
aI0
asg9
(lp316
F-111.9397005217462
aI0
asg11
(lp317
F4.603413040770415
aI0
asg13
(lp318
F63.2537994649817
aI0
assS'CITo2Mu_Lam34TeVConRR_dielectron_Moriond2017'
p319
(dp320
g3
(lp321
F1.6105561457475233
aI0
asg5
(lp322
F10.921689614170305
aI0
asg7
(lp323
F2.699278010276437
aI0
asg9
(lp324
F14.781150056316676
aI0
asg11
(lp325
F0.02416418509447047
aI0
asg13
(lp326
F0.6363024664847987
aI0
assS'CITo2Mu_Lam28TeVDesLR_dielectron_Moriond2017'
p327
(dp328
g3
(lp329
F-15.310538492612636
aI0
asg5
(lp330
F-15.238576096668112
aI0
asg7
(lp331
F-1.4845329127196791
aI0
asg9
(lp332
F3.3965130758562623
aI0
asg11
(lp333
F0.06081440627491275
aI0
asg13
(lp334
F0.445113490525072
aI0
assS'CITo2Mu_Lam34TeVConLL_dimuon_Moriond2017'
p335
(dp336
g3
(lp337
F-3.9516999625523113
aI0
asg5
(lp338
F6.902433278596845
aI0
asg7
(lp339
F5.204684854838213
aI0
asg9
(lp340
F11.498252775046296
aI0
asg11
(lp341
F0.07254571121579934
aI0
asg13
(lp342
F1.2700897589869604
aI0
assS'CITo2Mu_Lam22TeVDesLR_dielectron_Moriond2017'
p343
(dp344
g3
(lp345
F-22.985031021641362
aI0
asg5
(lp346
F-23.578134953258996
aI0
asg7
(lp347
F0.7602047298510328
aI0
asg9
(lp348
F7.477434172914087
aI0
asg11
(lp349
F0.17995844654216944
aI0
asg13
(lp350
F1.7657552669708456
aI0
assS'CITo2Mu_Lam16TeVDesRR_dimuon_Moriond2017'
p351
(dp352
g3
(lp353
F-60.3953527039381
aI0
asg5
(lp354
F-30.18357718410539
aI0
asg7
(lp355
F7.125538747101295
aI0
asg9
(lp356
F-40.006145559356696
aI0
asg11
(lp357
F0.772368397948092
aI0
asg13
(lp358
F6.367566806689219
aI0
assS'CITo2Mu_Lam16TeVConLR_dielectron_Moriond2017'
p359
(dp360
g3
(lp361
F67.69263263542246
aI0
asg5
(lp362
F58.07459407886722
aI0
asg7
(lp363
F35.56755589751445
aI0
asg9
(lp364
F37.45767306228558
aI0
asg11
(lp365
F0.8651613448742327
aI0
asg13
(lp366
F10.833820319267055
aI0
assS'CITo2Mu_Lam34TeVConRR_dimuon_Moriond2017'
p367
(dp368
g3
(lp369
F17.653768895103212
aI0
asg5
(lp370
F7.771240832089461
aI0
asg7
(lp371
F6.043224654227714
aI0
asg9
(lp372
F11.135335041011786
aI0
asg11
(lp373
F0.07315022807824886
aI0
asg13
(lp374
F1.1579519741839133
aI0
assS'CITo2Mu_Lam10TeVConRR_dimuon_Moriond2017'
p375
(dp376
g3
(lp377
F242.08819038720367
aI0
asg5
(lp378
F173.90509192569743
aI0
asg7
(lp379
F180.36324439675894
aI0
asg9
(lp380
F299.9431544717162
aI0
asg11
(lp381
F6.455936085673556
aI0
asg13
(lp382
F74.29794771371667
aI0
assS'CITo2Mu_Lam10TeVConLR_dimuon_Moriond2017'
p383
(dp384
g3
(lp385
F352.3017911813223
aI0
asg5
(lp386
F282.9626583697657
aI0
asg7
(lp387
F340.8032746153851
aI0
asg9
(lp388
F448.88800372839995
aI0
asg11
(lp389
F10.72421785061866
aI0
asg13
(lp390
F136.37202967843587
aI0
assS'CITo2Mu_Lam22TeVDesRR_dimuon_Moriond2017'
p391
(dp392
g3
(lp393
F-36.91701024250597
aI0
asg5
(lp394
F-16.62058444243803
aI0
asg7
(lp395
F-3.636876515559102
aI0
asg9
(lp396
F-21.160274854770478
aI0
asg11
(lp397
F0.18525136104652964
aI0
asg13
(lp398
F0.9734513865877399
aI0
assS'CITo2Mu_Lam22TeVConLL_dielectron_Moriond2017'
p399
(dp400
g3
(lp401
F15.1136774533569
aI0
asg5
(lp402
F-45.15044938953133
aI0
asg7
(lp403
F9.822590060607602
aI0
asg9
(lp404
F10.471649708618997
aI0
asg11
(lp405
F0.15780811323480412
aI0
asg13
(lp406
F2.164946697661753
aI0
assS'CITo2Mu_Lam28TeVConRR_dimuon_Moriond2017'
p407
(dp408
g3
(lp409
F26.248150070041333
aI0
asg5
(lp410
F11.94043651836273
aI0
asg7
(lp411
F9.54399332105686
aI0
asg9
(lp412
F17.400229874677677
aI0
asg11
(lp413
F0.14001322762662402
aI0
asg13
(lp414
F2.0564884580531833
aI0
assS'CITo2Mu_Lam16TeVConRR_dielectron_Moriond2017'
p415
(dp416
g3
(lp417
F21.528448579286305
aI0
asg5
(lp418
F51.19567825738034
aI0
asg7
(lp419
F21.389897628152106
aI0
asg9
(lp420
F69.94852540498627
aI0
asg11
(lp421
F0.5404136432995407
aI0
asg13
(lp422
F6.147922299728066
aI0
assS'CITo2Mu_Lam16TeVConRR_dimuon_Moriond2017'
p423
(dp424
g3
(lp425
F84.66095272281996
aI0
asg5
(lp426
F46.024961404229316
aI0
asg7
(lp427
F41.65953952371388
aI0
asg9
(lp428
F72.54938956008357
aI0
asg11
(lp429
F1.0599214006859763
aI0
asg13
(lp430
F13.150272291066301
aI0
assS'CITo2Mu_Lam34TeVDesLR_dielectron_Moriond2017'
p431
(dp432
g3
(lp433
F-10.778252500785129
aI0
asg5
(lp434
F-10.575187372137407
aI0
asg7
(lp435
F-1.6947615358789
aI0
asg9
(lp436
F1.8740745081061903
aI0
asg11
(lp437
F0.023539885534388558
aI0
asg13
(lp438
F0.07478156687368753
aI0
assS'CITo2Mu_Lam28TeVConLR_dimuon_Moriond2017'
p439
(dp440
g3
(lp441
F33.842022391230444
aI0
asg5
(lp442
F-11.161894055762104
aI0
asg7
(lp443
F11.360051314148372
aI0
asg9
(lp444
F28.018065593225685
aI0
asg11
(lp445
F0.23668400641527165
aI0
asg13
(lp446
F3.1710881227760512
aI0
assS'CITo2Mu_Lam10TeVConRR_dielectron_Moriond2017'
p447
(dp448
g3
(lp449
F128.23867289304735
aI0
asg5
(lp450
F140.69126772666152
aI0
asg7
(lp451
F101.95503889072214
aI0
asg9
(lp452
F195.49506439738323
aI0
asg11
(lp453
F3.5958228784124966
aI0
asg13
(lp454
F32.5360260429342
aI0
assS'CITo2Mu_Lam22TeVConLR_dielectron_Moriond2017'
p455
(dp456
g3
(lp457
F31.66892382750541
aI0
asg5
(lp458
F29.048544648667985
aI0
asg7
(lp459
F13.582643465647852
aI0
asg9
(lp460
F9.359824485098414
aI0
asg11
(lp461
F0.2571423083420256
aI0
asg13
(lp462
F3.4973917064779005
aI0
assS'CITo2Mu_Lam34TeVDesLL_dimuon_Moriond2017'
p463
(dp464
g3
(lp465
F5.69431804388239
aI0
asg5
(lp466
F-6.150072100162106
aI0
asg7
(lp467
F-3.068050150347702
aI0
asg9
(lp468
F-9.683364074552458
aI0
asg11
(lp469
F0.0057989933765908094
aI0
asg13
(lp470
F-0.27003797755657155
aI0
assS'CITo2Mu_Lam16TeVDesLR_dielectron_Moriond2017'
p471
(dp472
g3
(lp473
F-35.46704476467164
aI0
asg5
(lp474
F-39.711239855473195
aI0
asg7
(lp475
F15.36419440715612
aI0
asg9
(lp476
F22.830708034547
aI0
asg11
(lp477
F0.6986452441215665
aI0
asg13
(lp478
F7.935707984340105
aI0
assS'CITo2Mu_Lam16TeVConLL_dielectron_Moriond2017'
p479
(dp480
g3
(lp481
F35.45090509938359
aI0
asg5
(lp482
F-61.839691252874786
aI0
asg7
(lp483
F23.33037942897655
aI0
asg9
(lp484
F27.551381966864653
aI0
asg11
(lp485
F0.49062390695645597
aI0
asg13
(lp486
F6.442015502150361
aI0
ass.