(dp0
S'CITo2Mu_Lam16TeVConLR_dimuon_Moriond2017'
p1
(dp2
S'1'
p3
(lp4
F113.88636203519127
aI0
asS'0'
p5
(lp6
F9.453525488505647
aI0
asS'3'
p7
(lp8
F64.44194897874257
aI0
asS'2'
p9
(lp10
F112.80524752664519
aI0
asS'5'
p11
(lp12
F1.7694536338756754
aI0
asS'4'
p13
(lp14
F22.845984180074442
aI0
assS'CITo2Mu_Lam10TeVDesRR_dimuon_Moriond2017'
p15
(dp16
g3
(lp17
F-74.91488107763132
aI0
asg5
(lp18
F-66.76009012490363
aI0
asg7
(lp19
F136.94115988605333
aI0
asg9
(lp20
F-102.41573422892779
aI0
asg11
(lp21
F5.55590935402947
aI0
asg13
(lp22
F54.68040417921074
aI0
assS'CITo2Mu_Lam28TeVDesRR_dimuon_Moriond2017'
p23
(dp24
g3
(lp25
F-24.10947352317328
aI0
asg5
(lp26
F-10.43458936858383
aI0
asg7
(lp27
F-4.209519961145439
aI0
asg9
(lp28
F-13.063230513355734
aI0
asg11
(lp29
F0.05514306598884721
aI0
asg13
(lp30
F-0.03416551812977486
aI0
assS'CITo2Mu_Lam34TeVDesLR_dimuon_Moriond2017'
p31
(dp32
g3
(lp33
F-17.268179725624236
aI0
asg5
(lp34
F12.996802055059788
aI0
asg7
(lp35
F-1.9572424924864293
aI0
asg9
(lp36
F-11.793242187003557
aI0
asg11
(lp37
F0.05012557895924316
aI0
asg13
(lp38
F0.20296568524144032
aI0
assS'CITo2Mu_Lam10TeVDesLR_dimuon_Moriond2017'
p39
(dp40
g3
(lp41
F290.4194405755136
aI0
asg5
(lp42
F279.7238169341051
aI0
asg7
(lp43
F275.9512266604015
aI0
asg9
(lp44
F338.55770633069295
aI0
asg11
(lp45
F12.447994273806627
aI0
asg13
(lp46
F119.85589980100647
aI0
assS'CITo2Mu_Lam16TeVDesLL_dimuon_Moriond2017'
p47
(dp48
g3
(lp49
F28.3776928155861
aI0
asg5
(lp50
F-22.64504724619087
aI0
asg7
(lp51
F5.697299155357328
aI0
asg9
(lp52
F-43.726444834412575
aI0
asg11
(lp53
F0.616125970797518
aI0
asg13
(lp54
F7.41250286386149
aI0
assS'CITo2Mu_Lam16TeVDesLR_dimuon_Moriond2017'
p55
(dp56
g3
(lp57
F-14.248695867536071
aI0
asg5
(lp58
F75.5272098666344
aI0
asg7
(lp59
F29.990712401959783
aI0
asg9
(lp60
F8.503604223468699
aI0
asg11
(lp61
F1.7698107011931115
aI0
asg13
(lp62
F16.19823080256494
aI0
assS'CITo2Mu_Lam22TeVConLL_dimuon_Moriond2017'
p63
(dp64
g3
(lp65
F-3.7259515052527377
aI0
asg5
(lp66
F18.45501117996696
aI0
asg7
(lp67
F15.793254658021937
aI0
asg9
(lp68
F30.31607980348508
aI0
asg11
(lp69
F0.31248260920136683
aI0
asg13
(lp70
F4.4745783687921445
aI0
assS'CITo2Mu_Lam34TeVConLR_dimuon_Moriond2017'
p71
(dp72
g3
(lp73
F22.59769123989986
aI0
asg5
(lp74
F-9.077743839469349
aI0
asg7
(lp75
F6.679865611276348
aI0
asg9
(lp76
F18.06896952518872
aI0
asg11
(lp77
F0.12442592269167232
aI0
asg13
(lp78
F1.6968098750597842
aI0
assS'CITo2Mu_Lam10TeVConLL_dimuon_Moriond2017'
p79
(dp80
g3
(lp81
F164.6015156085342
aI0
asg5
(lp82
F152.275510106904
aI0
asg7
(lp83
F183.93541370033597
aI0
asg9
(lp84
F237.95485032411432
aI0
asg11
(lp85
F5.963262784414791
aI0
asg13
(lp86
F67.72997410182772
aI0
assS'CITo2Mu_Lam28TeVDesLR_dimuon_Moriond2017'
p87
(dp88
g3
(lp89
F-22.65323225796294
aI0
asg5
(lp90
F19.905735133212147
aI0
asg7
(lp91
F-1.1747248299818835
aI0
asg9
(lp92
F-14.667331934674678
aI0
asg11
(lp93
F0.14193085232300467
aI0
asg13
(lp94
F0.9727439752204767
aI0
assS'CITo2Mu_Lam16TeVConLL_dimuon_Moriond2017'
p95
(dp96
g3
(lp97
F9.502192866062387
aI0
asg5
(lp98
F40.59501172877731
aI0
asg7
(lp99
F39.59816445143919
aI0
asg9
(lp100
F65.58124048091031
aI0
asg11
(lp101
F0.9940299856064011
aI0
asg13
(lp102
F12.633921615580663
aI0
assS'CITo2Mu_Lam22TeVDesLL_dimuon_Moriond2017'
p103
(dp104
g3
(lp105
F14.157019999196677
aI0
asg5
(lp106
F-13.618171946570328
aI0
asg7
(lp107
F-3.2437332435841597
aI0
asg9
(lp108
F-23.12803640992871
aI0
asg11
(lp109
F0.13708255343594344
aI0
asg13
(lp110
F1.1581423789741967
aI0
assS'CITo2Mu_Lam28TeVConLL_dimuon_Moriond2017'
p111
(dp112
g3
(lp113
F-4.621562958403729
aI0
asg5
(lp114
F10.592985767956861
aI0
asg7
(lp115
F8.383603450265838
aI0
asg9
(lp116
F17.55603561176025
aI0
asg11
(lp117
F0.13633830693793586
aI0
asg13
(lp118
F2.1767625494390352
aI0
assS'CITo2Mu_Lam34TeVDesRR_dimuon_Moriond2017'
p119
(dp120
g3
(lp121
F-16.8154369766969
aI0
asg5
(lp122
F-7.137983865457272
aI0
asg7
(lp123
F-3.546533421479076
aI0
asg9
(lp124
F-8.859491644886816
aI0
asg11
(lp125
F0.01654618025990274
aI0
asg13
(lp126
F-0.24679851263652175
aI0
assS'CITo2Mu_Lam22TeVDesLR_dimuon_Moriond2017'
p127
(dp128
g3
(lp129
F-27.931760370357438
aI0
asg5
(lp130
F34.55933562436553
aI0
asg7
(lp131
F3.4361980085727097
aI0
asg9
(lp132
F-15.266865025658774
aI0
asg11
(lp133
F0.44213403147451674
aI0
asg13
(lp134
F3.67695409552554
aI0
assS'CITo2Mu_Lam28TeVDesLL_dimuon_Moriond2017'
p135
(dp136
g3
(lp137
F8.51363062413202
aI0
asg5
(lp138
F-8.842296880010963
aI0
asg7
(lp139
F-3.6621655319959885
aI0
asg9
(lp140
F-14.278022049227445
aI0
asg11
(lp141
F0.03454951682129344
aI0
asg13
(lp142
F-0.01775620144538692
aI0
assS'CITo2Mu_Lam22TeVConLR_dimuon_Moriond2017'
p143
(dp144
g3
(lp145
F56.44701283910433
aI0
asg5
(lp146
F-11.144094689475196
aI0
asg7
(lp147
F23.11473161936889
aI0
asg9
(lp148
F49.67643144971555
aI0
asg11
(lp149
F0.5494356697240644
aI0
asg13
(lp150
F7.224448623891
aI0
assS'CITo2Mu_Lam22TeVConRR_dimuon_Moriond2017'
p151
(dp152
g3
(lp153
F43.19735932195317
aI0
asg5
(lp154
F20.844838868274564
aI0
asg7
(lp155
F17.435681647371972
aI0
asg9
(lp156
F31.247174946184316
aI0
asg11
(lp157
F0.3271202397363169
aI0
asg13
(lp158
F4.420380886211531
aI0
assS'CITo2Mu_Lam10TeVDesLL_dimuon_Moriond2017'
p159
(dp160
g3
(lp161
F86.31350061231899
aI0
asg5
(lp162
F-31.675289121403694
aI0
asg7
(lp163
F114.87544502730586
aI0
asg9
(lp164
F-111.9397005217462
aI0
asg11
(lp165
F4.603413040770415
aI0
asg13
(lp166
F63.2537994649817
aI0
assS'CITo2Mu_Lam34TeVConLL_dimuon_Moriond2017'
p167
(dp168
g3
(lp169
F-3.9516999625523113
aI0
asg5
(lp170
F6.902433278596845
aI0
asg7
(lp171
F5.204684854838213
aI0
asg9
(lp172
F11.498252775046296
aI0
asg11
(lp173
F0.07254571121579934
aI0
asg13
(lp174
F1.2700897589869604
aI0
assS'CITo2Mu_Lam16TeVDesRR_dimuon_Moriond2017'
p175
(dp176
g3
(lp177
F-60.3953527039381
aI0
asg5
(lp178
F-30.18357718410539
aI0
asg7
(lp179
F7.125538747101295
aI0
asg9
(lp180
F-40.006145559356696
aI0
asg11
(lp181
F0.772368397948092
aI0
asg13
(lp182
F6.367566806689219
aI0
assS'CITo2Mu_Lam34TeVConRR_dimuon_Moriond2017'
p183
(dp184
g3
(lp185
F17.653768895103212
aI0
asg5
(lp186
F7.771240832089461
aI0
asg7
(lp187
F6.043224654227714
aI0
asg9
(lp188
F11.135335041011786
aI0
asg11
(lp189
F0.07315022807824886
aI0
asg13
(lp190
F1.1579519741839133
aI0
assS'CITo2Mu_Lam10TeVConRR_dimuon_Moriond2017'
p191
(dp192
g3
(lp193
F242.08819038720367
aI0
asg5
(lp194
F173.90509192569743
aI0
asg7
(lp195
F180.36324439675894
aI0
asg9
(lp196
F299.9431544717162
aI0
asg11
(lp197
F6.455936085673556
aI0
asg13
(lp198
F74.29794771371667
aI0
assS'CITo2Mu_Lam10TeVConLR_dimuon_Moriond2017'
p199
(dp200
g3
(lp201
F352.3017911813223
aI0
asg5
(lp202
F282.9626583697657
aI0
asg7
(lp203
F340.8032746153851
aI0
asg9
(lp204
F448.88800372839995
aI0
asg11
(lp205
F10.72421785061866
aI0
asg13
(lp206
F136.37202967843587
aI0
assS'CITo2Mu_Lam22TeVDesRR_dimuon_Moriond2017'
p207
(dp208
g3
(lp209
F-36.91701024250597
aI0
asg5
(lp210
F-16.62058444243803
aI0
asg7
(lp211
F-3.636876515559102
aI0
asg9
(lp212
F-21.160274854770478
aI0
asg11
(lp213
F0.18525136104652964
aI0
asg13
(lp214
F0.9734513865877399
aI0
assS'CITo2Mu_Lam28TeVConRR_dimuon_Moriond2017'
p215
(dp216
g3
(lp217
F26.248150070041333
aI0
asg5
(lp218
F11.94043651836273
aI0
asg7
(lp219
F9.54399332105686
aI0
asg9
(lp220
F17.400229874677677
aI0
asg11
(lp221
F0.14001322762662402
aI0
asg13
(lp222
F2.0564884580531833
aI0
assS'CITo2Mu_Lam16TeVConRR_dimuon_Moriond2017'
p223
(dp224
g3
(lp225
F84.66095272281996
aI0
asg5
(lp226
F46.024961404229316
aI0
asg7
(lp227
F41.65953952371388
aI0
asg9
(lp228
F72.54938956008357
aI0
asg11
(lp229
F1.0599214006859763
aI0
asg13
(lp230
F13.150272291066301
aI0
assS'CITo2Mu_Lam28TeVConLR_dimuon_Moriond2017'
p231
(dp232
g3
(lp233
F33.842022391230444
aI0
asg5
(lp234
F-11.161894055762104
aI0
asg7
(lp235
F11.360051314148372
aI0
asg9
(lp236
F28.018065593225685
aI0
asg11
(lp237
F0.23668400641527165
aI0
asg13
(lp238
F3.1710881227760512
aI0
assS'CITo2Mu_Lam34TeVDesLL_dimuon_Moriond2017'
p239
(dp240
g3
(lp241
F5.69431804388239
aI0
asg5
(lp242
F-6.150072100162106
aI0
asg7
(lp243
F-3.068050150347702
aI0
asg9
(lp244
F-9.683364074552458
aI0
asg11
(lp245
F0.0057989933765908094
aI0
asg13
(lp246
F-0.27003797755657155
aI0
ass.