(dp0
S'CITo2Mu_Lam10TeVDesLR_dielectron_Moriond2017'
p1
(dp2
S'1'
p3
(lp4
F2.4823745969678157
aI0
asS'0'
p5
(lp6
F-63.86128593156559
aI0
asS'3'
p7
(lp8
F169.73319484169383
aI0
asS'2'
p9
(lp10
F101.8707253411024
aI0
asS'5'
p11
(lp12
F4.281551213988882
aI0
asS'4'
p13
(lp14
F55.53169508430915
aI0
assS'CITo2Mu_Lam16TeVConLR_dimuon_Moriond2017'
p15
(dp16
g3
(lp17
F113.88636203519127
aI0
asg5
(lp18
F9.453525488505647
aI0
asg7
(lp19
F64.44194897874257
aI0
asg9
(lp20
F112.80524752664519
aI0
asg11
(lp21
F1.7694536338756754
aI0
asg13
(lp22
F22.845984180074442
aI0
assS'CITo2Mu_Lam10TeVConLR_dielectron_Moriond2017'
p23
(dp24
g3
(lp25
F237.03060993353256
aI0
asg5
(lp26
F177.59561627205017
aI0
asg7
(lp27
F166.11187140637526
aI0
asg9
(lp28
F239.65762758665875
aI0
asg11
(lp29
F4.896817399414546
aI0
asg13
(lp30
F60.821683140844634
aI0
assS'CITo2Mu_Lam10TeVDesRR_dimuon_Moriond2017'
p31
(dp32
g3
(lp33
F-74.91488107763132
aI0
asg5
(lp34
F-66.76009012490363
aI0
asg7
(lp35
F136.94115988605333
aI0
asg9
(lp36
F-102.41573422892779
aI0
asg11
(lp37
F5.55590935402947
aI0
asg13
(lp38
F54.68040417921074
aI0
assS'CITo2Mu_Lam28TeVDesRR_dimuon_Moriond2017'
p39
(dp40
g3
(lp41
F-24.10947352317328
aI0
asg5
(lp42
F-10.43458936858383
aI0
asg7
(lp43
F-4.209519961145439
aI0
asg9
(lp44
F-13.063230513355734
aI0
asg11
(lp45
F0.05514306598884721
aI0
asg13
(lp46
F-0.03416551812977486
aI0
assS'CITo2Mu_Lam22TeVDesLL_dielectron_Moriond2017'
p47
(dp48
g3
(lp49
F-11.69698827355387
aI0
asg5
(lp50
F65.54874716138238
aI0
asg7
(lp51
F-2.583342769248816
aI0
asg9
(lp52
F-5.085859767478894
aI0
asg11
(lp53
F0.10454190272936581
aI0
asg13
(lp54
F0.43076981228794864
aI0
assS'CITo2Mu_Lam16TeVDesRR_dielectron_Moriond2017'
p55
(dp56
g3
(lp57
F-2.596668916780004
aI0
asg5
(lp58
F-25.233399253159746
aI0
asg7
(lp59
F152536.09349580153
aI0
asg9
(lp60
F-16.938652547242526
aI0
asg11
(lp61
F0.24382613624021346
aI0
asg13
(lp62
F3.7732612753750097
aI0
assS'CITo2Mu_Lam34TeVDesLR_dimuon_Moriond2017'
p63
(dp64
g3
(lp65
F-17.268179725624236
aI0
asg5
(lp66
F12.996802055059788
aI0
asg7
(lp67
F-1.9572424924864293
aI0
asg9
(lp68
F-11.793242187003557
aI0
asg11
(lp69
F0.05012557895924316
aI0
asg13
(lp70
F0.20296568524144032
aI0
assS'CITo2Mu_Lam10TeVDesLR_dimuon_Moriond2017'
p71
(dp72
g3
(lp73
F290.4194405755136
aI0
asg5
(lp74
F279.7238169341051
aI0
asg7
(lp75
F275.9512266604015
aI0
asg9
(lp76
F338.55770633069295
aI0
asg11
(lp77
F12.447994273806627
aI0
asg13
(lp78
F119.85589980100647
aI0
assS'CITo2Mu_Lam16TeVDesLL_dielectron_Moriond2017'
p79
(dp80
g3
(lp81
F-19.70154236930557
aI0
asg5
(lp82
F137.7588576899766
aI0
asg7
(lp83
F1.129612149897202
aI0
asg9
(lp84
F-5.223558336893518
aI0
asg11
(lp85
F0.43092571092396964
aI0
asg13
(lp86
F2.938529216369609
aI0
assS'CITo2Mu_Lam16TeVDesLL_dimuon_Moriond2017'
p87
(dp88
g3
(lp89
F28.3776928155861
aI0
asg5
(lp90
F-22.64504724619087
aI0
asg7
(lp91
F5.697299155357328
aI0
asg9
(lp92
F-43.726444834412575
aI0
asg11
(lp93
F0.616125970797518
aI0
asg13
(lp94
F7.41250286386149
aI0
assS'CITo2Mu_Lam16TeVDesLR_dimuon_Moriond2017'
p95
(dp96
g3
(lp97
F-14.248695867536071
aI0
asg5
(lp98
F75.5272098666344
aI0
asg7
(lp99
F29.990712401959783
aI0
asg9
(lp100
F8.503604223468699
aI0
asg11
(lp101
F1.7698107011931115
aI0
asg13
(lp102
F16.19823080256494
aI0
assS'CITo2Mu_Lam22TeVConLL_dimuon_Moriond2017'
p103
(dp104
g3
(lp105
F-3.7259515052527377
aI0
asg5
(lp106
F18.45501117996696
aI0
asg7
(lp107
F15.793254658021937
aI0
asg9
(lp108
F30.31607980348508
aI0
asg11
(lp109
F0.31248260920136683
aI0
asg13
(lp110
F4.4745783687921445
aI0
assS'CITo2Mu_Lam28TeVConRR_dielectron_Moriond2017'
p111
(dp112
g3
(lp113
F3.3080340943308784
aI0
asg5
(lp114
F13.631298795192492
aI0
asg7
(lp115
F4.425857128590973
aI0
asg9
(lp116
F22.14812602622635
aI0
asg11
(lp117
F0.045895877659435876
aI0
asg13
(lp118
F0.9993556867281663
aI0
assS'CITo2Mu_Lam34TeVDesRR_dielectron_Moriond2017'
p119
(dp120
g3
(lp121
F-0.8408017381693753
aI0
asg5
(lp122
F-8.099524879176556
aI0
asg7
(lp123
F7478.725253507864
aI0
asg9
(lp124
F-11.274183057680261
aI0
asg11
(lp125
F0.017678916117104614
aI0
asg13
(lp126
F-0.10688302770942482
aI0
assS'CITo2Mu_Lam34TeVConLR_dimuon_Moriond2017'
p127
(dp128
g3
(lp129
F22.59769123989986
aI0
asg5
(lp130
F-9.077743839469349
aI0
asg7
(lp131
F6.679865611276348
aI0
asg9
(lp132
F18.06896952518872
aI0
asg11
(lp133
F0.12442592269167232
aI0
asg13
(lp134
F1.6968098750597842
aI0
assS'CITo2Mu_Lam10TeVConLL_dimuon_Moriond2017'
p135
(dp136
g3
(lp137
F164.6015156085342
aI0
asg5
(lp138
F152.275510106904
aI0
asg7
(lp139
F183.93541370033597
aI0
asg9
(lp140
F237.95485032411432
aI0
asg11
(lp141
F5.963262784414791
aI0
asg13
(lp142
F67.72997410182772
aI0
assS'CITo2Mu_Lam22TeVConRR_dielectron_Moriond2017'
p143
(dp144
g3
(lp145
F7.3576122845112195
aI0
asg5
(lp146
F22.369386672891892
aI0
asg7
(lp147
F8.293661181902177
aI0
asg9
(lp148
F36.29764688918473
aI0
asg11
(lp149
F0.13159476156629069
aI0
asg13
(lp150
F2.0522141883904625
aI0
assS'CITo2Mu_Lam34TeVDesLL_dielectron_Moriond2017'
p151
(dp152
g3
(lp153
F-5.246149225355907
aI0
asg5
(lp154
F25.445137217130082
aI0
asg7
(lp155
F-1.9508549780998372
aI0
asg9
(lp156
F-2.7641937386289044
aI0
asg11
(lp157
F0.010051575527112487
aI0
asg13
(lp158
F-0.12666873381995902
aI0
assS'CITo2Mu_Lam10TeVConLL_dielectron_Moriond2017'
p159
(dp160
g3
(lp161
F139.88924123684444
aI0
asg5
(lp162
F58.16996164795307
aI0
asg7
(lp163
F96.65390854347831
aI0
asg9
(lp164
F137.8207741564887
aI0
asg11
(lp165
F2.665817415644409
aI0
asg13
(lp166
F32.678002790723085
aI0
assS'CITo2Mu_Lam28TeVDesLR_dimuon_Moriond2017'
p167
(dp168
g3
(lp169
F-22.65323225796294
aI0
asg5
(lp170
F19.905735133212147
aI0
asg7
(lp171
F-1.1747248299818835
aI0
asg9
(lp172
F-14.667331934674678
aI0
asg11
(lp173
F0.14193085232300467
aI0
asg13
(lp174
F0.9727439752204767
aI0
assS'CITo2Mu_Lam16TeVConLL_dimuon_Moriond2017'
p175
(dp176
g3
(lp177
F9.502192866062387
aI0
asg5
(lp178
F40.59501172877731
aI0
asg7
(lp179
F39.59816445143919
aI0
asg9
(lp180
F65.58124048091031
aI0
asg11
(lp181
F0.9940299856064011
aI0
asg13
(lp182
F12.633921615580663
aI0
assS'CITo2Mu_Lam34TeVConLL_dielectron_Moriond2017'
p183
(dp184
g3
(lp185
F6.2029300762131925
aI0
asg5
(lp186
F-22.07986618846951
aI0
asg7
(lp187
F3.3093058422197643
aI0
asg9
(lp188
F4.052780913642891
aI0
asg11
(lp189
F0.033298968235779665
aI0
asg13
(lp190
F0.5707451184475132
aI0
assS'CITo2Mu_Lam22TeVDesLL_dimuon_Moriond2017'
p191
(dp192
g3
(lp193
F14.157019999196677
aI0
asg5
(lp194
F-13.618171946570328
aI0
asg7
(lp195
F-3.2437332435841597
aI0
asg9
(lp196
F-23.12803640992871
aI0
asg11
(lp197
F0.13708255343594344
aI0
asg13
(lp198
F1.1581423789741967
aI0
assS'CITo2Mu_Lam28TeVConLL_dielectron_Moriond2017'
p199
(dp200
g3
(lp201
F9.536931098530204
aI0
asg5
(lp202
F-30.76029924330419
aI0
asg7
(lp203
F5.21423138416187
aI0
asg9
(lp204
F6.4971567160732775
aI0
asg11
(lp205
F0.06217121682714659
aI0
asg13
(lp206
F0.9910291092605963
aI0
assS'CITo2Mu_Lam28TeVConLL_dimuon_Moriond2017'
p207
(dp208
g3
(lp209
F-4.621562958403729
aI0
asg5
(lp210
F10.592985767956861
aI0
asg7
(lp211
F8.383603450265838
aI0
asg9
(lp212
F17.55603561176025
aI0
asg11
(lp213
F0.13633830693793586
aI0
asg13
(lp214
F2.1767625494390352
aI0
assS'CITo2Mu_Lam10TeVDesLL_dielectron_Moriond2017'
p215
(dp216
g3
(lp217
F-29.978749233909866
aI0
asg5
(lp218
F469.9148719385373
aI0
asg7
(lp219
F53.874183090661816
aI0
asg9
(lp220
F23.860609286820193
aI0
asg11
(lp221
F3.0808017622810464
aI0
asg13
(lp222
F25.53003735796793
aI0
assS'CITo2Mu_Lam34TeVDesRR_dimuon_Moriond2017'
p223
(dp224
g3
(lp225
F-16.8154369766969
aI0
asg5
(lp226
F-7.137983865457272
aI0
asg7
(lp227
F-3.546533421479076
aI0
asg9
(lp228
F-8.859491644886816
aI0
asg11
(lp229
F0.01654618025990274
aI0
asg13
(lp230
F-0.24679851263652175
aI0
assS'CITo2Mu_Lam22TeVDesLR_dimuon_Moriond2017'
p231
(dp232
g3
(lp233
F-27.931760370357438
aI0
asg5
(lp234
F34.55933562436553
aI0
asg7
(lp235
F3.4361980085727097
aI0
asg9
(lp236
F-15.266865025658774
aI0
asg11
(lp237
F0.44213403147451674
aI0
asg13
(lp238
F3.67695409552554
aI0
assS'CITo2Mu_Lam28TeVDesRR_dielectron_Moriond2017'
p239
(dp240
g3
(lp241
F-1.1868656173650152
aI0
asg5
(lp242
F-11.442862490886682
aI0
asg7
(lp243
F16261.33900145348
aI0
asg9
(lp244
F-15.12653396938802
aI0
asg11
(lp245
F0.03329471796130613
aI0
asg13
(lp246
F0.029962022792970888
aI0
assS'CITo2Mu_Lam28TeVDesLL_dimuon_Moriond2017'
p247
(dp248
g3
(lp249
F8.51363062413202
aI0
asg5
(lp250
F-8.842296880010963
aI0
asg7
(lp251
F-3.6621655319959885
aI0
asg9
(lp252
F-14.278022049227445
aI0
asg11
(lp253
F0.03454951682129344
aI0
asg13
(lp254
F-0.01775620144538692
aI0
assS'CITo2Mu_Lam22TeVDesRR_dielectron_Moriond2017'
p255
(dp256
g3
(lp257
F-1.7575129595313683
aI0
asg5
(lp258
F-16.976130819933587
aI0
asg7
(lp259
F42671.12957453605
aI0
asg9
(lp260
F-19.831351501869563
aI0
asg11
(lp261
F0.07648158708983453
aI0
asg13
(lp262
F0.6337299158801484
aI0
assS'CITo2Mu_Lam34TeVConLR_dielectron_Moriond2017'
p263
(dp264
g3
(lp265
F10.33023224035162
aI0
asg5
(lp266
F9.936959022663586
aI0
asg7
(lp267
F4.181489131122309
aI0
asg9
(lp268
F0.22205637703797265
aI0
asg11
(lp269
F0.04667310458008936
aI0
asg13
(lp270
F0.8073690130009972
aI0
assS'CITo2Mu_Lam28TeVDesLL_dielectron_Moriond2017'
p271
(dp272
g3
(lp273
F-7.559636028331056
aI0
asg5
(lp274
F38.52596720516419
aI0
asg7
(lp275
F-2.4385014651750723
aI0
asg9
(lp276
F-3.7558894894443995
aI0
asg11
(lp277
F0.031811744307140594
aI0
asg13
(lp278
F-0.03206140538811475
aI0
assS'CITo2Mu_Lam28TeVConLR_dielectron_Moriond2017'
p279
(dp280
g3
(lp281
F15.905888887071796
aI0
asg5
(lp282
F15.011432144171977
aI0
asg7
(lp283
F6.840550809487073
aI0
asg9
(lp284
F1.6862379146610635
aI0
asg11
(lp285
F0.09379151556317036
aI0
asg13
(lp286
F1.485549170835581
aI0
assS'CITo2Mu_Lam22TeVConLR_dimuon_Moriond2017'
p287
(dp288
g3
(lp289
F56.44701283910433
aI0
asg5
(lp290
F-11.144094689475196
aI0
asg7
(lp291
F23.11473161936889
aI0
asg9
(lp292
F49.67643144971555
aI0
asg11
(lp293
F0.5494356697240644
aI0
asg13
(lp294
F7.224448623891
aI0
assS'CITo2Mu_Lam10TeVDesRR_dielectron_Moriond2017'
p295
(dp296
g3
(lp297
F-0.49160981876934784
aI0
asg5
(lp298
F-6.423084385693869
aI0
asg7
(lp299
F999704.1466434868
aI0
asg9
(lp300
F130.8949616034902
aI0
asg11
(lp301
F1.4654155244864913
aI0
asg13
(lp302
F31.49045801180756
aI0
assS'CITo2Mu_Lam22TeVConRR_dimuon_Moriond2017'
p303
(dp304
g3
(lp305
F43.19735932195317
aI0
asg5
(lp306
F20.844838868274564
aI0
asg7
(lp307
F17.435681647371972
aI0
asg9
(lp308
F31.247174946184316
aI0
asg11
(lp309
F0.3271202397363169
aI0
asg13
(lp310
F4.420380886211531
aI0
assS'CITo2Mu_Lam10TeVDesLL_dimuon_Moriond2017'
p311
(dp312
g3
(lp313
F86.31350061231899
aI0
asg5
(lp314
F-31.675289121403694
aI0
asg7
(lp315
F114.87544502730586
aI0
asg9
(lp316
F-111.9397005217462
aI0
asg11
(lp317
F4.603413040770415
aI0
asg13
(lp318
F63.2537994649817
aI0
assS'CITo2Mu_Lam34TeVConRR_dielectron_Moriond2017'
p319
(dp320
g3
(lp321
F1.8089599643137717
aI0
asg5
(lp322
F9.181950534917519
aI0
asg7
(lp323
F2.7571874579003754
aI0
asg9
(lp324
F14.929287231275225
aI0
asg11
(lp325
F0.018682042762453638
aI0
asg13
(lp326
F0.5835511395470556
aI0
assS'CITo2Mu_Lam28TeVDesLR_dielectron_Moriond2017'
p327
(dp328
g3
(lp329
F-11.695389008624716
aI0
asg5
(lp330
F-13.476809463050927
aI0
asg7
(lp331
F-1.268813602271603
aI0
asg9
(lp332
F3.8125380987929987
aI0
asg11
(lp333
F0.05516588167790837
aI0
asg13
(lp334
F0.451939709400613
aI0
assS'CITo2Mu_Lam34TeVConLL_dimuon_Moriond2017'
p335
(dp336
g3
(lp337
F-3.9516999625523113
aI0
asg5
(lp338
F6.902433278596845
aI0
asg7
(lp339
F5.204684854838213
aI0
asg9
(lp340
F11.498252775046296
aI0
asg11
(lp341
F0.07254571121579934
aI0
asg13
(lp342
F1.2700897589869604
aI0
assS'CITo2Mu_Lam22TeVDesLR_dielectron_Moriond2017'
p343
(dp344
g3
(lp345
F-17.181377677323894
aI0
asg5
(lp346
F-21.04764276002402
aI0
asg7
(lp347
F1.3088853265137494
aI0
asg9
(lp348
F7.523368045083345
aI0
asg11
(lp349
F0.16142521844011828
aI0
asg13
(lp350
F1.7054458065768776
aI0
assS'CITo2Mu_Lam16TeVDesRR_dimuon_Moriond2017'
p351
(dp352
g3
(lp353
F-60.3953527039381
aI0
asg5
(lp354
F-30.18357718410539
aI0
asg7
(lp355
F7.125538747101295
aI0
asg9
(lp356
F-40.006145559356696
aI0
asg11
(lp357
F0.772368397948092
aI0
asg13
(lp358
F6.367566806689219
aI0
assS'CITo2Mu_Lam16TeVConLR_dielectron_Moriond2017'
p359
(dp360
g3
(lp361
F61.942632299457955
aI0
asg5
(lp362
F53.028667554919366
aI0
asg7
(lp363
F34.19811528343607
aI0
asg9
(lp364
F31.83553233265235
aI0
asg11
(lp365
F0.7774067642402585
aI0
asg13
(lp366
F10.341674546675607
aI0
assS'CITo2Mu_Lam34TeVConRR_dimuon_Moriond2017'
p367
(dp368
g3
(lp369
F17.653768895103212
aI0
asg5
(lp370
F7.771240832089461
aI0
asg7
(lp371
F6.043224654227714
aI0
asg9
(lp372
F11.135335041011786
aI0
asg11
(lp373
F0.07315022807824886
aI0
asg13
(lp374
F1.1579519741839133
aI0
assS'CITo2Mu_Lam10TeVConRR_dimuon_Moriond2017'
p375
(dp376
g3
(lp377
F242.08819038720367
aI0
asg5
(lp378
F173.90509192569743
aI0
asg7
(lp379
F180.36324439675894
aI0
asg9
(lp380
F299.9431544717162
aI0
asg11
(lp381
F6.455936085673556
aI0
asg13
(lp382
F74.29794771371667
aI0
assS'CITo2Mu_Lam10TeVConLR_dimuon_Moriond2017'
p383
(dp384
g3
(lp385
F352.3017911813223
aI0
asg5
(lp386
F282.9626583697657
aI0
asg7
(lp387
F340.8032746153851
aI0
asg9
(lp388
F448.88800372839995
aI0
asg11
(lp389
F10.72421785061866
aI0
asg13
(lp390
F136.37202967843587
aI0
assS'CITo2Mu_Lam22TeVDesRR_dimuon_Moriond2017'
p391
(dp392
g3
(lp393
F-36.91701024250597
aI0
asg5
(lp394
F-16.62058444243803
aI0
asg7
(lp395
F-3.636876515559102
aI0
asg9
(lp396
F-21.160274854770478
aI0
asg11
(lp397
F0.18525136104652964
aI0
asg13
(lp398
F0.9734513865877399
aI0
assS'CITo2Mu_Lam22TeVConLL_dielectron_Moriond2017'
p399
(dp400
g3
(lp401
F16.66748568931564
aI0
asg5
(lp402
F-44.222245990240935
aI0
asg7
(lp403
F9.490453588784959
aI0
asg9
(lp404
F12.15102801920483
aI0
asg11
(lp405
F0.14149309223318024
aI0
asg13
(lp406
F2.0716610370901845
aI0
assS'CITo2Mu_Lam28TeVConRR_dimuon_Moriond2017'
p407
(dp408
g3
(lp409
F26.248150070041333
aI0
asg5
(lp410
F11.94043651836273
aI0
asg7
(lp411
F9.54399332105686
aI0
asg9
(lp412
F17.400229874677677
aI0
asg11
(lp413
F0.14001322762662402
aI0
asg13
(lp414
F2.0564884580531833
aI0
assS'CITo2Mu_Lam16TeVConRR_dielectron_Moriond2017'
p415
(dp416
g3
(lp417
F22.7075774133026
aI0
asg5
(lp418
F43.56356112929677
aI0
asg7
(lp419
F20.628504274289984
aI0
asg9
(lp420
F70.47932829221631
aI0
asg11
(lp421
F0.5007254614939844
aI0
asg13
(lp422
F5.787215502741885
aI0
assS'CITo2Mu_Lam16TeVConRR_dimuon_Moriond2017'
p423
(dp424
g3
(lp425
F84.66095272281996
aI0
asg5
(lp426
F46.024961404229316
aI0
asg7
(lp427
F41.65953952371388
aI0
asg9
(lp428
F72.54938956008357
aI0
asg11
(lp429
F1.0599214006859763
aI0
asg13
(lp430
F13.150272291066301
aI0
assS'CITo2Mu_Lam34TeVDesLR_dielectron_Moriond2017'
p431
(dp432
g3
(lp433
F-8.315089193370227
aI0
asg5
(lp434
F-9.310085457271612
aI0
asg7
(lp435
F-1.5917714480815768
aI0
asg9
(lp436
F2.2927212596324864
aI0
asg11
(lp437
F0.021748741408836605
aI0
asg13
(lp438
F0.09492401252199589
aI0
assS'CITo2Mu_Lam28TeVConLR_dimuon_Moriond2017'
p439
(dp440
g3
(lp441
F33.842022391230444
aI0
asg5
(lp442
F-11.161894055762104
aI0
asg7
(lp443
F11.360051314148372
aI0
asg9
(lp444
F28.018065593225685
aI0
asg11
(lp445
F0.23668400641527165
aI0
asg13
(lp446
F3.1710881227760512
aI0
assS'CITo2Mu_Lam10TeVConRR_dielectron_Moriond2017'
p447
(dp448
g3
(lp449
F132.70999245676023
aI0
asg5
(lp450
F122.3015188471561
aI0
asg7
(lp451
F94.75889516359787
aI0
asg9
(lp452
F196.14537864228265
aI0
asg11
(lp453
F3.417622062971752
aI0
asg13
(lp454
F30.984237818148966
aI0
assS'CITo2Mu_Lam22TeVConLR_dielectron_Moriond2017'
p455
(dp456
g3
(lp457
F27.868031979571924
aI0
asg5
(lp458
F25.43765659679775
aI0
asg7
(lp459
F13.186556545779059
aI0
asg9
(lp460
F6.971006501547748
aI0
asg11
(lp461
F0.22984218550732352
aI0
asg13
(lp462
F3.3270451036527127
aI0
assS'CITo2Mu_Lam34TeVDesLL_dimuon_Moriond2017'
p463
(dp464
g3
(lp465
F5.69431804388239
aI0
asg5
(lp466
F-6.150072100162106
aI0
asg7
(lp467
F-3.068050150347702
aI0
asg9
(lp468
F-9.683364074552458
aI0
asg11
(lp469
F0.0057989933765908094
aI0
asg13
(lp470
F-0.27003797755657155
aI0
assS'CITo2Mu_Lam16TeVDesLR_dielectron_Moriond2017'
p471
(dp472
g3
(lp473
F-24.724617264855397
aI0
asg5
(lp474
F-36.34959289084543
aI0
asg7
(lp475
F17.278333540599142
aI0
asg9
(lp476
F20.1542670236758
aI0
asg11
(lp477
F0.6223141988742318
aI0
asg13
(lp478
F7.50764078478288
aI0
assS'CITo2Mu_Lam16TeVConLL_dielectron_Moriond2017'
p479
(dp480
g3
(lp481
F36.877115934811854
aI0
asg5
(lp482
F-58.94611094797972
aI0
asg7
(lp483
F22.538083573513624
aI0
asg9
(lp484
F30.13125103978595
aI0
asg11
(lp485
F0.4469862873456951
aI0
asg13
(lp486
F5.968908281317805
aI0
ass.