(dp0
S'CITo2Mu_Lam16TeVConRR_dimuon_Moriond2017_BB'
p1
(dp2
S'1'
p3
(lp4
F39.24679382809768
aF34.0990277858974
asS'0'
p5
(lp6
F20.432756499780794
aF24.991837861653302
asS'3'
p7
(lp8
F38.20675407136667
aF10.48284923325148
asS'2'
p9
(lp10
F37.4370716396393
aF42.463181533040675
asS'5'
p11
(lp12
F2.265125600460954
aF0.46816133757790185
asS'4'
p13
(lp14
F19.943227467603066
aF4.642315004176491
assS'CITo2Mu_Lam22TeVConLL_dimuon_Moriond2017_BE'
p15
(dp16
g3
(lp17
F-5.0507313691229
aF35.52908958100605
asg5
(lp18
F20.016970883706108
aF38.026203051794866
asg7
(lp19
F15.741861275737229
aF3.251226610307464
asg9
(lp20
F26.781618500814602
aF19.443548428474166
asg11
(lp21
F0.31708514030718554
aF0.06893360598745482
asg13
(lp22
F4.499446268813578
aF0.7488315693863649
assS'CITo2Mu_Lam22TeVConLL_dimuon_Moriond2017_BB'
p23
(dp24
g3
(lp25
F-52.67916015430012
aF60.07271430608287
asg5
(lp26
F5.478655884255431
aF32.71959174182995
asg7
(lp27
F14.136742812974667
aF2.565861932165775
asg9
(lp28
F12.754198703347782
aF29.167310347463363
asg11
(lp29
F0.7592907743007881
aF0.1550423800724609
asg13
(lp30
F6.084876629802714
aF1.1594963027212624
assS'CITo2Mu_Lam16TeVConRR_dimuon_Moriond2017_BE'
p31
(dp32
g3
(lp33
F71.86586558950819
aF35.35440931098057
asg5
(lp34
F79.08512719145051
aF37.52147035301549
asg7
(lp35
F42.520790240023906
aF8.90781991142519
asg9
(lp36
F79.71324830267702
aF31.908651563279886
asg11
(lp37
F1.049243457103346
aF0.2630652737934721
asg13
(lp38
F13.06578123712691
aF2.8874590362685866
assS'CITo2Mu_Lam16TeVConLR_dimuon_Moriond2017_BB'
p39
(dp40
g3
(lp41
F80.71443627353608
aF74.38962995523015
asg5
(lp42
F41.766360628194434
aF33.61313323008539
asg7
(lp43
F60.47302329104539
aF13.361454337547308
asg9
(lp44
F54.01154817017999
aF46.29665226739006
asg11
(lp45
F4.531854633482405
aF0.9498604350789172
asg13
(lp46
F33.10158525708922
aF6.940342998425704
assS'CITo2Mu_Lam10TeVDesRR_dimuon_Moriond2017_BB'
p47
(dp48
g3
(lp49
F-26.998416882022184
aF21.91935031669726
asg5
(lp50
F-28.769240134098595
aF18.088804798292035
asg7
(lp51
F112.48205123390281
aF16.694648002026536
asg9
(lp52
F38.52070930796501
aF13.006471732886562
asg11
(lp53
F15.9212859378455
aF1.3289749921772387
asg13
(lp54
F78.72082288565906
aF6.954580157634484
assS'CITo2Mu_Lam16TeVConLR_dimuon_Moriond2017_BE'
p55
(dp56
g3
(lp57
F102.14380558429593
aF57.477778919812934
asg5
(lp58
F6.824097230713278
aF79.5403762196377
asg7
(lp59
F65.7145504150904
aF14.868195128690772
asg9
(lp60
F110.26813309551153
aF43.601261899171526
asg11
(lp61
F1.8128444269600266
aF0.39507280652750026
asg13
(lp62
F22.623245675241623
aF4.68379672846525
assS'CITo2Mu_Lam28TeVDesLR_dimuon_Moriond2017_BE'
p63
(dp64
g3
(lp65
F-19.727474789343205
aF11.696056534953257
asg5
(lp66
F20.550082942922018
aF2.9003534070498125
asg7
(lp67
F-1.1899961387418045
aF0.7577688013767355
asg9
(lp68
F-14.66279526368686
aF15.803287567110308
asg11
(lp69
F0.1489073266254453
aF0.018435975689638798
asg13
(lp70
F0.9585995344522704
aF0.17082608837007998
assS'CITo2Mu_Lam28TeVConRR_dimuon_Moriond2017_BB'
p71
(dp72
g3
(lp73
F10.030303755310683
aF21.869533103920972
asg5
(lp74
F5.920703106774226
aF14.696388034823805
asg7
(lp75
F6.8823831885121365
aF1.9511631416806579
asg9
(lp76
F5.507628955973587
aF14.615492366709361
asg11
(lp77
F0.3338542437948917
aF0.07213995678199035
asg13
(lp78
F2.7803372693524997
aF0.6837089824866077
assS'CITo2Mu_Lam28TeVConRR_dimuon_Moriond2017_BE'
p79
(dp80
g3
(lp81
F21.769856808361396
aF17.314624339665812
asg5
(lp82
F24.695070207357503
aF20.504010423715464
asg7
(lp83
F9.752791435310805
aF1.8185140522695074
asg9
(lp84
F22.530851802773782
aF10.652069647891695
asg11
(lp85
F0.1442937278366071
aF0.04214515977838634
asg13
(lp86
F2.050621070693774
aF0.443502080644766
assS'CITo2Mu_Lam28TeVDesLR_dimuon_Moriond2017_BB'
p87
(dp88
g3
(lp89
F-16.960147314974392
aF23.75096153175544
asg5
(lp90
F-10.258524243040029
aF10.696256621793836
asg7
(lp91
F-0.38619638413001667
aF1.3699346312685874
asg9
(lp92
F2.5619859128424594
aF2.089470426150424
asg11
(lp93
F0.3427561888780668
aF0.035562312686817706
asg13
(lp94
F1.7067260276827705
aF0.2388506473330042
assS'CITo2Mu_Lam10TeVConLR_dimuon_Moriond2017_BB'
p95
(dp96
g3
(lp97
F291.2811303864157
aF301.8848573670648
asg5
(lp98
F132.4027128389314
aF102.06442585684134
asg7
(lp99
F334.20335165417373
aF80.79093208397228
asg9
(lp100
F353.21242242006014
aF219.17419559005208
asg11
(lp101
F28.085044981737727
aF5.95321410259481
asg13
(lp102
F200.41428475315843
aF43.619767171785156
assS'CITo2Mu_Lam34TeVConLL_dimuon_Moriond2017_BE'
p103
(dp104
g3
(lp105
F-4.56424834239931
aF32.182591985415264
asg5
(lp106
F7.621521729098504
aF23.725220292683403
asg7
(lp107
F5.173784996174014
aF1.2397938207788617
asg9
(lp108
F9.68027557718068
aF12.321761254442386
asg11
(lp109
F0.06997806532565043
aF0.018456421191145326
asg13
(lp110
F1.2921432115308242
aF0.21100921658100197
assS'CITo2Mu_Lam10TeVDesLR_dimuon_Moriond2017_BB'
p111
(dp112
g3
(lp113
F25.641559792748808
aF104.78660726829214
asg5
(lp114
F-27.064000241376107
aF29.70960398294981
asg7
(lp115
F252.16719479299445
aF75.63806165865142
asg9
(lp116
F160.70954292298413
aF37.44431486948122
asg11
(lp117
F27.964069098248036
aF2.155625263018304
asg13
(lp118
F175.4533212169886
aF13.578508494739108
assS'CITo2Mu_Lam10TeVConLR_dimuon_Moriond2017_BE'
p119
(dp120
g3
(lp121
F344.0296709929386
aF204.3838016359015
asg5
(lp122
F269.39053116966556
aF292.79196604839024
asg7
(lp123
F351.17560756087056
aF89.80080842544716
asg9
(lp124
F436.7223246883525
aF191.93812851214196
asg11
(lp125
F10.938730017640701
aF2.4438220076718564
asg13
(lp126
F133.77192514550185
aF29.336284907633818
assS'CITo2Mu_Lam34TeVDesLR_dimuon_Moriond2017_BE'
p127
(dp128
g3
(lp129
F-15.031166274719226
aF11.290171601351526
asg5
(lp130
F13.356784843740343
aF2.4022021825775783
asg7
(lp131
F-1.9288771052234779
aF0.5618051652506183
asg9
(lp132
F-11.713614567108209
aF15.72380029304679
asg11
(lp133
F0.05212050547214367
aF0.008649078125067803
asg13
(lp134
F0.17559537455902152
aF0.09356537566520483
assS'CITo2Mu_Lam28TeVConLR_dimuon_Moriond2017_BE'
p135
(dp136
g3
(lp137
F28.807912594574418
aF22.77637202434733
asg5
(lp138
F-11.643793363173927
aF31.264302451899972
asg7
(lp139
F11.383834774502915
aF2.572363992612823
asg9
(lp140
F27.50187642831014
aF16.251141980834603
asg11
(lp141
F0.2451569394049085
aF0.06074452619729627
asg13
(lp142
F3.210133689347532
aF0.6828250608368972
assS'CITo2Mu_Lam10TeVDesLR_dimuon_Moriond2017_BE'
p143
(dp144
g3
(lp145
F251.2501725348875
aF205.73746708333073
asg5
(lp146
F303.6989573823737
aF104.31136879333424
asg7
(lp147
F266.3168865106118
aF31.518059429317788
asg9
(lp148
F319.78370354874164
aF93.52327887128583
asg11
(lp149
F13.175090262644096
aF1.1225035995588322
asg13
(lp150
F124.11318789533087
aF9.656354866014373
assS'CITo2Mu_Lam28TeVConLR_dimuon_Moriond2017_BB'
p151
(dp152
g3
(lp153
F21.694344770078942
aF30.835514327469582
asg5
(lp154
F12.234887866628696
aF16.39781932813918
asg7
(lp155
F9.868014542184461
aF2.305237563263248
asg9
(lp156
F5.800552967536447
aF14.238665283722353
asg11
(lp157
F0.5721222426411989
aF0.13756581287647807
asg13
(lp158
F4.439056745900452
aF0.9933881545956024
assS'CITo2Mu_Lam34TeVDesLR_dimuon_Moriond2017_BB'
p159
(dp160
g3
(lp161
F-12.147887742029752
aF23.70130108435651
asg5
(lp162
F-7.174513077562665
aF10.686453912503762
asg7
(lp163
F-1.3005065057435132
aF0.810598152057308
asg9
(lp164
F1.1652333020415995
aF2.018444069845281
asg11
(lp165
F0.12958616973566808
aF0.01680293296971599
asg13
(lp166
F0.49790266189077315
aF0.12910257461299812
assS'CITo2Mu_Lam10TeVConLL_dimuon_Moriond2017_BE'
p167
(dp168
g3
(lp169
F162.60963092145596
aF135.19568874004432
asg5
(lp170
F154.86275825324674
aF216.97965042921086
asg7
(lp171
F184.40311508180383
aF50.63288353114776
asg9
(lp172
F246.66996099700646
aF155.10760939926206
asg11
(lp173
F6.328760330868758
aF1.3801550644517793
asg13
(lp174
F66.96135556524489
aF14.609280112407424
assS'CITo2Mu_Lam34TeVConLL_dimuon_Moriond2017_BB'
p175
(dp176
g3
(lp177
F-39.01907458698179
aF32.28952155781524
asg5
(lp178
F1.3410756795436782
aF20.566039886208966
asg7
(lp179
F4.821562607677052
aF1.0283276465014157
asg9
(lp180
F3.7137790417921224
aF14.560844952872255
asg11
(lp181
F0.17324047632688686
aF0.040882057310893234
asg13
(lp182
F1.5592793769985978
aF0.313804971810868
assS'CITo2Mu_Lam16TeVDesLR_dimuon_Moriond2017_BB'
p183
(dp184
g3
(lp185
F-33.25833853393215
aF28.396251679575354
asg5
(lp186
F-25.13127630165468
aF11.521750376869887
asg7
(lp187
F28.87596017783077
aF11.57154606873671
asg9
(lp188
F24.409730887450536
aF6.045450649301753
asg11
(lp189
F4.026980023379691
aF0.3292278172222383
asg13
(lp190
F24.316915669694573
aF2.079938638471565
assS'CITo2Mu_Lam22TeVConLR_dimuon_Moriond2017_BB'
p191
(dp192
g3
(lp193
F37.4104283519938
aF40.498362622270214
asg5
(lp194
F20.501532266373715
aF20.543577350903444
asg7
(lp195
F20.793321597343677
aF4.530148543801152
asg9
(lp196
F15.157666432926078
aF21.47127818601977
asg11
(lp197
F1.3685978817402535
aF0.29823380857586557
asg13
(lp198
F10.291286029433671
aF2.1663806806680728
assS'CITo2Mu_Lam22TeVConLR_dimuon_Moriond2017_BE'
p199
(dp200
g3
(lp201
F48.87665509465205
aF31.38162709647798
asg5
(lp202
F-12.108065248627554
aF43.05144822964373
asg7
(lp203
F23.34396650067707
aF5.05011481132384
asg9
(lp204
F48.68828319333062
aF22.25091219493704
asg11
(lp205
F0.5659329981742649
aF0.1275397977971702
asg13
(lp206
F7.2332829274701895
aF1.4735632853357081
assS'CITo2Mu_Lam22TeVDesRR_dimuon_Moriond2017_BE'
p207
(dp208
g3
(lp209
F-30.526778220231108
aF10.104627819649316
asg5
(lp210
F-35.078387908665945
aF13.311368255513443
asg7
(lp211
F-3.346369414206549
aF1.9291981765841404
asg9
(lp212
F-20.429517623371225
aF3.7422126340030757
asg11
(lp213
F0.19635349894128407
aF0.026189158826488042
asg13
(lp214
F0.9366291188862585
aF0.23965845082858728
assS'CITo2Mu_Lam22TeVDesLR_dimuon_Moriond2017_BB'
p215
(dp216
g3
(lp217
F-24.503004522470064
aF24.101141477223564
asg5
(lp218
F-15.61800413896674
aF10.758701544850997
asg7
(lp219
F4.152429914707092
aF3.2957799541478034
asg9
(lp220
F6.78288276339876
aF2.5580369643664334
asg11
(lp221
F1.0284659297123886
aF0.09240655465257895
asg13
(lp222
F5.799092057307446
aF0.5913968221620358
assS'CITo2Mu_Lam22TeVDesLR_dimuon_Moriond2017_BE'
p223
(dp224
g3
(lp225
F-24.35534724124443
aF14.284525034731365
asg5
(lp226
F35.95737558368728
aF5.141020190985445
asg7
(lp227
F3.2333193312494473
aF1.5066320283427894
asg9
(lp228
F-15.61168712216363
aF16.282077484748577
asg11
(lp229
F0.4660240905423565
aF0.048048371154380765
asg13
(lp230
F3.735827689659968
aF0.42097836597930166
assS'CITo2Mu_Lam22TeVDesRR_dimuon_Moriond2017_BB'
p231
(dp232
g3
(lp233
F-12.598272269384324
aF8.319153604656655
asg5
(lp234
F-8.555066976635658
aF9.878349639668071
asg7
(lp235
F-1.0389541810542013
aF1.0364847252040768
asg9
(lp236
F-1.3239075013632373
aF1.5753778901391622
asg11
(lp237
F0.5080311520379429
aF0.05794938665661562
asg13
(lp238
F2.0800547402970873
aF0.3122217995063007
assS'CITo2Mu_Lam10TeVDesRR_dimuon_Moriond2017_BE'
p239
(dp240
g3
(lp241
F-68.05097940685891
aF27.842386004431823
asg5
(lp242
F-113.6824033441635
aF35.017330301620234
asg7
(lp243
F148.8390799992444
aF16.83751078670983
asg9
(lp244
F132.45547058221774
aF47.677355611750194
asg11
(lp245
F6.011241523838326
aF0.609625559826789
asg13
(lp246
F52.32187487073532
aF4.9224366443114
assS'CITo2Mu_Lam16TeVDesRR_dimuon_Moriond2017_BE'
p247
(dp248
g3
(lp249
F-50.49407027675636
aF10.878232326104142
asg5
(lp250
F-61.23774319990753
aF14.269047240702417
asg7
(lp251
F8.625331902942918
aF3.2036269963993007
asg9
(lp252
F-17.665884230334825
aF8.30675013787139
asg11
(lp253
F0.8297427623602542
aF0.09314935930863316
asg13
(lp254
F6.100415714621899
aF0.7750338941574331
assS'CITo2Mu_Lam22TeVConRR_dimuon_Moriond2017_BE'
p255
(dp256
g3
(lp257
F36.08945382072511
aF21.68690370782558
asg5
(lp258
F40.55135935999306
aF24.501523564225042
asg7
(lp259
F17.809157525661853
aF3.2929756893863806
asg9
(lp260
F38.19907325582983
aF15.841975710549132
asg11
(lp261
F0.3302728636272999
aF0.08664427996422197
asg13
(lp262
F4.400302598343415
aF0.9294572733308717
assS'CITo2Mu_Lam34TeVDesRR_dimuon_Moriond2017_BE'
p263
(dp264
g3
(lp265
F-13.824801023996997
aF10.012580116525182
asg5
(lp266
F-15.42141679735846
aF13.186670696648312
asg7
(lp267
F-3.5622987348807698
aF1.7404929460025185
asg9
(lp268
F-11.582975072925592
aF2.755953393312624
asg11
(lp269
F0.01593535261590754
aF0.004867247410220219
asg13
(lp270
F-0.2336631873953796
aF0.07639047728342356
assS'CITo2Mu_Lam34TeVDesRR_dimuon_Moriond2017_BB'
p271
(dp272
g3
(lp273
F-5.719657779255044
aF8.263760197107981
asg5
(lp274
F-3.747370681536836
aF9.855205199745262
asg7
(lp275
F-1.9738554398006585
aF0.49280557014996507
asg9
(lp276
F-1.1426608221275671
aF1.472449034104188
asg11
(lp277
F0.03640791222025251
aF0.011607415817109563
asg13
(lp278
F-0.028162648578828886
aF0.08567109194015156
assS'CITo2Mu_Lam22TeVConRR_dimuon_Moriond2017_BB'
p279
(dp280
g3
(lp281
F17.603167084057304
aF24.352031719090665
asg5
(lp282
F9.956254894359631
aF17.05726067306536
asg7
(lp283
F13.871150593970256
aF3.692142432089667
asg9
(lp284
F12.191163939646685
aF20.80202108055323
asg11
(lp285
F0.7383226609460376
aF0.1512864340297052
asg13
(lp286
F6.320305060588806
aF1.4667960561059168
assS'CITo2Mu_Lam10TeVDesLL_dimuon_Moriond2017_BB'
p287
(dp288
g3
(lp289
F1354.2775082623107
aF385.38909193088114
asg5
(lp290
F3.952925766747285
aF13.48443885710142
asg7
(lp291
F171.32188041944215
aF30.14503702580896
asg9
(lp292
F54.76718665336719
aF21.625180083865473
asg11
(lp293
F13.157989121686304
aF1.1378609564169366
asg13
(lp294
F85.79468114121558
aF7.762178969837173
assS'CITo2Mu_Lam28TeVDesRR_dimuon_Moriond2017_BE'
p295
(dp296
g3
(lp297
F-19.858610890321074
aF10.028048759105225
asg5
(lp298
F-22.368547855347742
aF13.209034553847015
asg7
(lp299
F-4.163531694118369
aF1.77155004593916
asg9
(lp300
F-15.552442686368522
aF2.947101045696851
asg11
(lp301
F0.05689248347415053
aF0.010135287722354759
asg13
(lp302
F-0.029185111182355783
aF0.1146767489758029
assS'CITo2Mu_Lam28TeVConLL_dimuon_Moriond2017_BB'
p303
(dp304
g3
(lp305
F-48.98551785824782
aF39.9679528837601
asg5
(lp306
F2.4574965974888983
aF24.08823490414386
asg7
(lp307
F7.662265463788998
aF1.4570147816260237
asg9
(lp308
F6.295379398385165
aF18.81967973195711
asg11
(lp309
F0.32833720311983694
aF0.07076298677283596
asg13
(lp310
F2.797180583363014
aF0.535853978357722
assS'CITo2Mu_Lam28TeVConLL_dimuon_Moriond2017_BE'
p311
(dp312
g3
(lp313
F-5.495592158460681
aF33.00937970561133
asg5
(lp314
F11.62046079191532
aF27.892648575023422
asg7
(lp315
F8.342769625028126
aF1.796614090044155
asg9
(lp316
F15.045841097587129
aF14.282941386294054
asg11
(lp317
F0.13481719888197402
aF0.03172779885516215
asg13
(lp318
F2.203413916927711
aF0.35324683992791617
assS'CITo2Mu_Lam34TeVDesLL_dimuon_Moriond2017_BE'
p319
(dp320
g3
(lp321
F6.334076599011496
aF1.7213138853615477
asg5
(lp322
F-6.5439381553167095
aF15.605753679610634
asg7
(lp323
F-2.8931002929907095
aF0.4594375363943558
asg9
(lp324
F-7.179936270167218
aF4.71638881641603
asg11
(lp325
F0.012099545704122909
aF0.004946034156549878
asg13
(lp326
F-0.27533663496598537
aF0.13402462538195126
assS'CITo2Mu_Lam28TeVDesLL_dimuon_Moriond2017_BE'
p327
(dp328
g3
(lp329
F9.458740641598524
aF1.7644593336494316
asg5
(lp330
F-9.399395169135687
aF15.639237476477996
asg7
(lp331
F-3.4590261548908785
aF0.5629161730000112
asg9
(lp332
F-9.76609488181407
aF4.825346251539192
asg11
(lp333
F0.04408062563467084
aF0.009832376321311355
asg13
(lp334
F-0.008535267776797806
aF0.17183400177521857
assS'CITo2Mu_Lam16TeVDesRR_dimuon_Moriond2017_BB'
p335
(dp336
g3
(lp337
F-20.74030461115001
aF8.863345045743204
asg5
(lp338
F-15.029497690219273
aF10.131781905611913
asg7
(lp339
F8.68207601100211
aF2.8195932190947257
asg9
(lp340
F1.567460050155148
aF2.4729641346407396
asg11
(lp341
F2.1801785509337086
aF0.2038036783329595
asg13
(lp342
F10.152533150449557
aF1.0713846440659403
assS'CITo2Mu_Lam10TeVDesLL_dimuon_Moriond2017_BE'
p343
(dp344
g3
(lp345
F94.02187473957417
aF15.083088495775481
asg5
(lp346
F-32.10129772200003
aF69.85118564299424
asg7
(lp347
F107.33228638507997
aF16.13720637082113
asg9
(lp348
F60.189105892847294
aF65.25096486475869
asg11
(lp349
F4.718299295004594
aF0.5810940346696727
asg13
(lp350
F66.16464691564023
aF6.793924670193634
assS'CITo2Mu_Lam16TeVDesLL_dimuon_Moriond2017_BB'
p351
(dp352
g3
(lp353
F336.5722313629665
aF58.850618439735776
asg5
(lp354
F-1.2457658368061857
aF9.711019335003595
asg7
(lp355
F15.337731394163228
aF4.696400903981514
asg9
(lp356
F1.1783039398988535
aF4.698496025906824
asg11
(lp357
F1.8226975482538625
aF0.17383705711656847
asg13
(lp358
F10.96858857662065
aF1.2391943559495284
assS'CITo2Mu_Lam34TeVConLR_dimuon_Moriond2017_BB'
p359
(dp360
g3
(lp361
F14.219871890809372
aF27.254088640643662
asg5
(lp362
F8.149238645523383
aF14.812696735137848
asg7
(lp363
F5.647218970230121
aF1.4874573284965125
asg9
(lp364
F2.681520179774509
aF11.375329268912667
asg11
(lp365
F0.2919684385379503
aF0.08010247768654453
asg13
(lp366
F2.336566228086042
aF0.577484195062764
assS'CITo2Mu_Lam28TeVDesLL_dimuon_Moriond2017_BB'
p367
(dp368
g3
(lp369
F82.77312121936916
aF6.364962300898751
asg5
(lp370
F-0.8000610267434922
aF9.603876831323173
asg7
(lp371
F-2.263521518063939
aF0.7469495369904169
asg9
(lp372
F-2.464911589361378
aF3.3916947958733017
asg11
(lp373
F0.1275593170729159
aF0.019180587120238568
asg13
(lp374
F0.4034869424274792
aF0.18940933924976258
assS'CITo2Mu_Lam28TeVDesRR_dimuon_Moriond2017_BB'
p375
(dp376
g3
(lp377
F-8.209367349002036
aF8.271917337988539
asg5
(lp378
F-5.4420687091209174
aF9.858295502876281
asg7
(lp379
F-2.134997144498385
aF0.6229415867441256
asg9
(lp380
F-1.388366666141394
aF1.4858535255974428
asg11
(lp381
F0.1425193157198522
aF0.023020624995129028
asg13
(lp382
F0.41150645016992105
aF0.13654001476696206
assS'CITo2Mu_Lam34TeVConLR_dimuon_Moriond2017_BE'
p383
(dp384
g3
(lp385
F19.05659654165595
aF19.27751722984172
asg5
(lp386
F-9.364708680225704
aF26.519063322199816
asg7
(lp387
F6.654541299259492
aF1.6587782955826873
asg9
(lp388
F17.751931253481473
aF14.016555379209398
asg11
(lp389
F0.12956960043161792
aF0.03624851148067688
asg13
(lp390
F1.7351182928842217
aF0.40105209729786223
assS'CITo2Mu_Lam16TeVDesLL_dimuon_Moriond2017_BE'
p391
(dp392
g3
(lp393
F31.307276721651647
aF3.1066833249746133
asg5
(lp394
F-23.886886067971545
aF18.770671703855964
asg7
(lp395
F5.243337121248921
aF2.643399733490594
asg9
(lp396
F-13.800651829874653
aF11.083400366885659
asg11
(lp397
F0.6500456022040604
aF0.08883830703753529
asg13
(lp398
F7.775087293382219
aF1.0569926984861209
assS'CITo2Mu_Lam34TeVDesLL_dimuon_Moriond2017_BB'
p399
(dp400
g3
(lp401
F53.266221609567765
aF3.0342659037233988
asg5
(lp402
F-0.5842170874402655
aF9.602877309878997
asg7
(lp403
F-2.304586859882882
aF0.5691683894303536
asg9
(lp404
F-1.9732433418172093
aF3.376848729379798
asg11
(lp405
F0.03703071617835062
aF0.009693619581212832
asg13
(lp406
F-0.06264642275095911
aF0.12146398010326638
assS'CITo2Mu_Lam34TeVConRR_dimuon_Moriond2017_BE'
p407
(dp408
g3
(lp409
F14.58481040019376
aF15.637630238576525
asg5
(lp410
F16.62878509273014
aF19.02112494904144
asg7
(lp411
F6.177167816942749
aF1.252057324371106
asg9
(lp412
F14.910299993618935
aF8.471628072291697
asg11
(lp413
F0.07687515386951385
aF0.025531744691338155
asg13
(lp414
F1.156271182763028
aF0.26796800035565044
assS'CITo2Mu_Lam34TeVConRR_dimuon_Moriond2017_BB'
p415
(dp416
g3
(lp417
F6.507865104186067
aF21.024363003888308
asg5
(lp418
F3.9359343760140746
aF13.838440795221016
asg7
(lp419
F4.075779890070571
aF1.2973796653161598
asg9
(lp420
F3.0245443924690676
aF12.256374045029398
asg11
(lp421
F0.18348250170084907
aF0.043094917013939416
asg13
(lp422
F1.4907509432689556
aF0.40411130383513155
assS'CITo2Mu_Lam10TeVConRR_dimuon_Moriond2017_BB'
p423
(dp424
g3
(lp425
F151.04775676779684
aF102.7578657766047
asg5
(lp426
F65.95017820145824
aF66.16121586861185
asg7
(lp427
F199.38508971629278
aF62.05943642349304
asg9
(lp428
F217.81650823341917
aF192.92667667338208
asg11
(lp429
F13.167778940049478
aF2.894537921460325
asg13
(lp430
F118.82409112599862
aF29.02213480120107
assS'CITo2Mu_Lam16TeVConLL_dimuon_Moriond2017_BE'
p431
(dp432
g3
(lp433
F7.397983257076021
aF46.38801597139296
asg5
(lp434
F43.09757561983406
aF67.56953237981598
asg7
(lp435
F39.565908111144275
aF8.803282498004592
asg9
(lp436
F61.23833962616493
aF37.12752353271513
asg11
(lp437
F1.033827172414944
aF0.21999822720583923
asg13
(lp438
F12.60039681351128
aF2.347206734931942
assS'CITo2Mu_Lam16TeVConLL_dimuon_Moriond2017_BB'
p439
(dp440
g3
(lp441
F17.759773953826084
aF132.28778400429766
asg5
(lp442
F16.94956469265412
aF58.22807798915375
asg7
(lp443
F34.318632503427054
aF6.737077931772531
asg9
(lp444
F35.36409337702233
aF63.47486543791908
asg11
(lp445
F2.4363624468776175
aF0.49815894817797896
asg13
(lp446
F18.342075678514057
aF3.6925745908139347
assS'CITo2Mu_Lam10TeVConRR_dimuon_Moriond2017_BE'
p447
(dp448
g3
(lp449
F214.78640872956737
aF105.19230946752404
asg5
(lp450
F222.95442319984522
aF104.09985568627195
asg7
(lp451
F183.88333438219084
aF51.18069054700885
asg9
(lp452
F267.5899415014107
aF132.3036406052114
asg11
(lp453
F6.287546373742586
aF1.610844124649061
asg13
(lp454
F73.68718134039838
aF17.898734590211117
assS'CITo2Mu_Lam10TeVConLL_dimuon_Moriond2017_BB'
p455
(dp456
g3
(lp457
F1040.3698612765388
aF650.976998929544
asg5
(lp458
F99.2711012709376
aF190.92945338404448
asg7
(lp459
F152.21247128563715
aF37.961202842403054
asg9
(lp460
F185.91137047586002
aF297.9786879429989
asg11
(lp461
F14.721752178892059
aF3.1346198914265595
asg13
(lp462
F104.92460739245077
aF23.14698321622299
assS'CITo2Mu_Lam16TeVDesLR_dimuon_Moriond2017_BE'
p463
(dp464
g3
(lp465
F-12.603993681734892
aF33.39382102346413
asg5
(lp466
F79.72946461231822
aF16.237943120206953
asg7
(lp467
F28.82324493625108
aF4.910534490823472
asg9
(lp468
F6.301972256700481
aF21.33261495886074
asg11
(lp469
F1.8703762792645735
aF0.17138080951786144
asg13
(lp470
F16.66942894846425
aF1.4792771599219798
assS'CITo2Mu_Lam22TeVDesLL_dimuon_Moriond2017_BE'
p471
(dp472
g3
(lp473
F15.693534811314294
aF1.9399101901460656
asg5
(lp474
F-14.446779925215651
aF15.87560763380537
asg7
(lp475
F-3.0857296653358617
aF0.9335211559903346
asg9
(lp476
F-13.258996602975913
aF5.507530055968933
asg11
(lp477
F0.15327333280530525
aF0.02505358889895933
asg13
(lp478
F1.2262249138649142
aF0.3271204800942507
assS'CITo2Mu_Lam22TeVDesLL_dimuon_Moriond2017_BB'
p479
(dp480
g3
(lp481
F147.28475729545505
aF16.515267236841602
asg5
(lp482
F-1.1045168610621658
aF9.611216196234107
asg7
(lp483
F-0.12662107148130275
aF1.4497088636031887
asg9
(lp484
F-2.6055264512500287
aF3.4970777236027395
asg11
(lp485
F0.43425729000080493
aF0.04894245710352282
asg13
(lp486
F2.200685166031506
aF0.3930617479525657
ass.